 CourseworkBase2020

 Timestamp is 5ecbc213 (Mon May 25 14:03:15 2020)

 Preferred load address is 00400000

 Start         Length     Name                   Class
 0001:00000000 00007ba0H .text$di                CODE
 0001:00007ba0 00048080H .text$mn                CODE
 0001:0004fc20 000050c0H .text$x                 CODE
 0001:00054ce0 00001037H .text$yd                CODE
 0002:00000000 00000104H .CRT$XCA                DATA
 0002:00000104 00000104H .CRT$XCAA               DATA
 0002:00000208 00000104H .CRT$XCL                DATA
 0002:0000030c 00000104H .CRT$XCU                DATA
 0002:00000410 00000104H .CRT$XCZ                DATA
 0002:00000514 00000104H .CRT$XIA                DATA
 0002:00000618 00000104H .CRT$XIAA               DATA
 0002:0000071c 00000104H .CRT$XIAC               DATA
 0002:00000820 00000104H .CRT$XIZ                DATA
 0002:00000924 00000104H .CRT$XPA                DATA
 0002:00000a28 00000104H .CRT$XPZ                DATA
 0002:00000b2c 00000104H .CRT$XTA                DATA
 0002:00000c30 00000110H .CRT$XTZ                DATA
 0002:00000d40 00014c48H .rdata                  DATA
 0002:00015988 000023dcH .rdata$r                DATA
 0002:00017d64 0000058cH .rdata$sxdata           DATA
 0002:000182f0 00000190H .rdata$zzzdbg           DATA
 0002:00018480 00000104H .rtc$IAA                DATA
 0002:00018584 00000104H .rtc$IZZ                DATA
 0002:00018688 00000104H .rtc$TAA                DATA
 0002:0001878c 00000104H .rtc$TZZ                DATA
 0002:00018890 00003fadH .xdata$x                DATA
 0002:0001c83d 00000000H .edata                  DATA
 0003:00000000 00000218H .data                   DATA
 0003:00000218 00001410H .data$r                 DATA
 0003:00001628 00000498H .bss                    DATA
 0004:00000000 00000508H .idata$5                DATA
 0004:00000508 000000a0H .idata$2                DATA
 0004:000005a8 00000014H .idata$3                DATA
 0004:000005bc 00000508H .idata$4                DATA
 0004:00000ac4 00001c2aH .idata$6                DATA
 0005:00000000 00000109H .00cfg                  DATA
 0006:00000000 00000170H .rsrc$01                DATA
 0006:00000170 000002ccH .rsrc$02                DATA

  Address         Publics by Value              Rva+Base       Lib:Object

 0000:00000000       ___guard_iat_table         00000000     <absolute>
 0000:00000000       ___guard_longjmp_count     00000000     <absolute>
 0000:00000000       ___enclave_config          00000000     <absolute>
 0000:00000000       ___volatile_metadata       00000000     <absolute>
 0000:00000000       ___dynamic_value_reloc_table 00000000     <absolute>
 0000:00000000       ___guard_fids_table        00000000     <absolute>
 0000:00000000       ___guard_longjmp_table     00000000     <absolute>
 0000:00000000       ___guard_fids_count        00000000     <absolute>
 0000:00000000       ___guard_eh_cont_table     00000000     <absolute>
 0000:00000000       ___guard_iat_count         00000000     <absolute>
 0000:00000000       ___hybrid_auxiliary_iat    00000000     <absolute>
 0000:00000000       ___guard_eh_cont_count     00000000     <absolute>
 0000:00000000       ___hybrid_code_map         00000000     <absolute>
 0000:00000000       ___hybrid_code_map_count   00000000     <absolute>
 0000:00000000       ___AbsoluteZero            00000000     <absolute>
 0000:000000f2       ___safe_se_handler_count   000000f2     <absolute>
 0000:00000100       ___guard_flags             00000100     <absolute>
 0000:00000000       ___ImageBase               00400000     <linker-defined>
 0001:00007ba0       ?isValidClick@Button@@QAE_NHH@Z 00408ba0 f   Button.obj
 0001:00007c20       ?virtDraw@Button@@MAEXXZ   00408c20 f   Button.obj
 0001:00007dd0       ??$_Unfancy@D@std@@YAPADPAD@Z 00408dd0 f i Button.obj
 0001:00007de0       ?_Large_string_engaged@?$_String_val@U?$_Simple_types@D@std@@@std@@QBE_NXZ 00408de0 f i Button.obj
 0001:00007e20       ?_Myptr@?$_String_val@U?$_Simple_types@D@std@@@std@@QBEPBDXZ 00408e20 f i Button.obj
 0001:00007e70       ?__empty_global_delete@@YAXPAX@Z 00408e70 f i Button.obj
 0001:00007e80       ?__global_delete@@YAXPAXI@Z 00408e80 f i Button.obj
 0001:00007e80       ?__empty_global_delete@@YAXPAXI@Z 00408e80 f i Button.obj
 0001:00007e90       ?c_str@?$basic_string@DU?$char_traits@D@std@@V?$allocator@D@2@@std@@QBEPBDXZ 00408e90 f i Button.obj
 0001:00007ee0       ?drawForegroundRectangle@BaseEngine@@QAEXHHHHI@Z 00408ee0 f i Button.obj
 0001:00007f20       ?drawForegroundString@BaseEngine@@QAEXHHPBDIPAVFont@@@Z 00408f20 f i Button.obj
 0001:00007f60       ?getEngine@DisplayableObject@@QBEPAVBaseEngine@@XZ 00408f60 f i Button.obj
 0001:00007f80       ?getFont@BaseEngine@@QAEPAVFont@@PBDH@Z 00408f80 f i Button.obj
 0001:00007fb0       ?virtDoUpdate@Button_start@@MAEXH@Z 00408fb0 f   Button_start.obj
 0001:00007fe0       ?virtDoUpdate@Button_back@@MAEXH@Z 00408fe0 f   Button_back.obj
 0001:00008010       ?virtDoUpdate@Button_exit@@MAEXH@Z 00409010 f   Button_exit.obj
 0001:00008050       ?setExitWithCode@BaseEngine@@QAEXH@Z 00409050 f i Button_exit.obj
 0001:00008070       ?virtDoUpdate@Button_load@@MAEXH@Z 00409070 f   Button_load.obj
 0001:000080a0       ?virtDoUpdate@Button_stop@@MAEXH@Z 004090a0 f   Button_stop.obj
 0001:000080d0       ?virtDoUpdate@Button_rank@@MAEXH@Z 004090d0 f   Button_rank.obj
 0001:00008100       ??$?0$$V@?$_Compressed_pair@V?$allocator@D@std@@V?$_String_val@U?$_Simple_types@D@std@@@2@$00@std@@QAE@U_Zero_then_variadic_args_t@1@@Z 00409100 f i Configuration.obj
 0001:00008130       ??$?0D@?$allocator@U_Container_proxy@std@@@std@@QAE@ABV?$allocator@D@1@@Z 00409130 f i Configuration.obj
 0001:00008150       ??$_Allocate@$07U_Default_allocate_traits@std@@$0A@@std@@YAPAXI@Z 00409150 f i Configuration.obj
 0001:00008190       ??$_Allocate_manually_vector_aligned@U_Default_allocate_traits@std@@@std@@YAPAXI@Z 00409190 f i Configuration.obj
 0001:00008270       ??$_Construct_in_place@PADABQAD@std@@YAXAAPADABQAD@Z 00409270 f i Configuration.obj
 0001:000082c0       ??$_Construct_in_place@U_Container_proxy@std@@PAU_Container_base12@2@@std@@YAXAAU_Container_proxy@0@$$QAPAU_Container_base12@0@@Z 004092c0 f i Configuration.obj
 0001:00008310       ??$_Convert_size@I@std@@YAII@Z 00409310 f i Configuration.obj
 0001:00008320       ??$_Deallocate@$07$0A@@std@@YAXPAXI@Z 00409320 f i Configuration.obj
 0001:00008390       ??$_Deallocate_plain@V?$allocator@U_Container_proxy@std@@@std@@@std@@YAXAAV?$allocator@U_Container_proxy@std@@@0@QAU_Container_proxy@0@@Z 00409390 f i Configuration.obj
 0001:000083f0       ??$_Delete_plain_internal@V?$allocator@U_Container_proxy@std@@@std@@@std@@YAXAAV?$allocator@U_Container_proxy@std@@@0@QAU_Container_proxy@0@@Z 004093f0 f i Configuration.obj
 0001:00008410       ??$_Destroy_in_place@PAD@std@@YAXAAPAD@Z 00409410 f i Configuration.obj
 0001:00008420       ??$_Get_size_of_n@$00@std@@YAII@Z 00409420 f i Configuration.obj
 0001:00008440       ??$_Get_size_of_n@$07@std@@YAII@Z 00409440 f i Configuration.obj
 0001:00008480       ??$_Max_value@I@std@@YAABIABI0@Z 00409480 f i Configuration.obj
 0001:000084c0       ??$_Min_value@I@std@@YAABIABI0@Z 004094c0 f i Configuration.obj
 0001:00008500       ??$_Reallocate_for@V<lambda_9366063389c5f42a00a5088cf24e69de>@@PBD@?$basic_string@DU?$char_traits@D@std@@V?$allocator@D@2@@std@@AAEAAV01@IV<lambda_9366063389c5f42a00a5088cf24e69de>@@PBD@Z 00409500 f i Configuration.obj
 0001:00008600       ??$_Unfancy@U_Container_proxy@std@@@std@@YAPAU_Container_proxy@0@PAU10@@Z 00409600 f i Configuration.obj
 0001:00008610       ??$addressof@PAD@std@@YAPAPADAAPAD@Z 00409610 f i Configuration.obj
 0001:00008620       ??$addressof@U_Container_base12@std@@@std@@YAPAU_Container_base12@0@AAU10@@Z 00409620 f i Configuration.obj
 0001:00008630       ??$addressof@U_Container_proxy@std@@@std@@YAPAU_Container_proxy@0@AAU10@@Z 00409630 f i Configuration.obj
 0001:00008640       ??$forward@ABQAD@std@@YAABQADABQAD@Z 00409640 f i Configuration.obj
 0001:00008650       ??$forward@PAU_Container_base12@std@@@std@@YA$$QAPAU_Container_base12@0@AAPAU10@@Z 00409650 f i Configuration.obj
 0001:00008660       ??0?$_Container_proxy_ptr12@V?$allocator@U_Container_proxy@std@@@std@@@std@@QAE@AAV?$allocator@U_Container_proxy@std@@@1@AAU_Container_base12@1@@Z 00409660 f i Configuration.obj
 0001:000086e0       ??0?$_String_val@U?$_Simple_types@D@std@@@std@@QAE@XZ 004096e0 f i Configuration.obj
 0001:00008730       ??0?$allocator@D@std@@QAE@XZ 00409730 f i Configuration.obj
 0001:00008750       ??0?$basic_string@DU?$char_traits@D@std@@V?$allocator@D@2@@std@@QAE@QBD@Z 00409750 f i Configuration.obj
 0001:00008830       ??0_Bxty@?$_String_val@U?$_Simple_types@D@std@@@std@@QAE@XZ 00409830 f i Configuration.obj
 0001:00008850       ??0_Container_base12@std@@QAE@XZ 00409850 f i Configuration.obj
 0001:00008870       ??0_Container_proxy@std@@QAE@PAU_Container_base12@1@@Z 00409870 f i Configuration.obj
 0001:000088a0       ??0bad_alloc@std@@AAE@QBD@Z 004098a0 f i Configuration.obj
 0001:000088d0       ??0bad_alloc@std@@QAE@ABV01@@Z 004098d0 f i Configuration.obj
 0001:00008900       ??0bad_array_new_length@std@@QAE@ABV01@@Z 00409900 f i Configuration.obj
 0001:00008930       ??0bad_array_new_length@std@@QAE@XZ 00409930 f i Configuration.obj
 0001:00008960       ??0exception@std@@QAE@ABV01@@Z 00409960 f i Configuration.obj
 0001:000089b0       ??0exception@std@@QAE@QBDH@Z 004099b0 f i Configuration.obj
 0001:000089f0       ??1?$_Compressed_pair@V?$allocator@D@std@@V?$_String_val@U?$_Simple_types@D@std@@@2@$00@std@@QAE@XZ 004099f0 f i Configuration.obj
 0001:00008a10       ??1?$_Container_proxy_ptr12@V?$allocator@U_Container_proxy@std@@@std@@@std@@QAE@XZ 00409a10 f i Configuration.obj
 0001:00008a50       ??1?$_String_val@U?$_Simple_types@D@std@@@std@@QAE@XZ 00409a50 f i Configuration.obj
 0001:00008a70       ??1?$basic_string@DU?$char_traits@D@std@@V?$allocator@D@2@@std@@QAE@XZ 00409a70 f i Configuration.obj
 0001:00008ae0       ??1_Bxty@?$_String_val@U?$_Simple_types@D@std@@@std@@QAE@XZ 00409ae0 f i Configuration.obj
 0001:00008af0       ??1bad_alloc@std@@UAE@XZ   00409af0 f i Configuration.obj
 0001:00008b10       ??1bad_array_new_length@std@@UAE@XZ 00409b10 f i Configuration.obj
 0001:00008b30       ??1exception@std@@UAE@XZ   00409b30 f i Configuration.obj
 0001:00008b60       ??2@YAPAXIPAX@Z            00409b60 f i Configuration.obj
 0001:00008b70       ??R<lambda_9366063389c5f42a00a5088cf24e69de>@@QBE@QADIQBD@Z 00409b70 f i Configuration.obj
 0001:00008bc0       ??_Gbad_alloc@std@@UAEPAXI@Z 00409bc0 f i Configuration.obj
 0001:00008bc0       ??_Ebad_alloc@std@@UAEPAXI@Z 00409bc0 f i Configuration.obj
 0001:00008c00       ??_Ebad_array_new_length@std@@UAEPAXI@Z 00409c00 f i Configuration.obj
 0001:00008c00       ??_Gbad_array_new_length@std@@UAEPAXI@Z 00409c00 f i Configuration.obj
 0001:00008c40       ??_Eexception@std@@UAEPAXI@Z 00409c40 f i Configuration.obj
 0001:00008c40       ??_Gexception@std@@UAEPAXI@Z 00409c40 f i Configuration.obj
 0001:00008c80       ?_Adjust_manually_vector_aligned@std@@YAXAAPAXAAI@Z 00409c80 f i Configuration.obj
 0001:00008dc0       ?_Allocate@_Default_allocate_traits@std@@SAPAXI@Z 00409dc0 f i Configuration.obj
 0001:00008de0       ?_Calculate_growth@?$basic_string@DU?$char_traits@D@std@@V?$allocator@D@2@@std@@ABEII@Z 00409de0 f i Configuration.obj
 0001:00008e20       ?_Calculate_growth@?$basic_string@DU?$char_traits@D@std@@V?$allocator@D@2@@std@@CAIIII@Z 00409e20 f i Configuration.obj
 0001:00008e90       ?_Get_first@?$_Compressed_pair@V?$allocator@D@std@@V?$_String_val@U?$_Simple_types@D@std@@@2@$00@std@@QAEAAV?$allocator@D@2@XZ 00409e90 f i Configuration.obj
 0001:00008eb0       ?_Get_first@?$_Compressed_pair@V?$allocator@D@std@@V?$_String_val@U?$_Simple_types@D@std@@@2@$00@std@@QBEABV?$allocator@D@2@XZ 00409eb0 f i Configuration.obj
 0001:00008ed0       ?_Getal@?$basic_string@DU?$char_traits@D@std@@V?$allocator@D@2@@std@@AAEAAV?$allocator@D@2@XZ 00409ed0 f i Configuration.obj
 0001:00008ef0       ?_Getal@?$basic_string@DU?$char_traits@D@std@@V?$allocator@D@2@@std@@ABEABV?$allocator@D@2@XZ 00409ef0 f i Configuration.obj
 0001:00008f10       ?_Myptr@?$_String_val@U?$_Simple_types@D@std@@@std@@QAEPADXZ 00409f10 f i Configuration.obj
 0001:00008f60       ?_Orphan_all@_Container_base12@std@@QAEXXZ 00409f60 f i Configuration.obj
 0001:00008fe0       ?_Release@_Basic_container_proxy_ptr12@std@@QAEXXZ 00409fe0 f i Configuration.obj
 0001:00009000       ?_Throw_bad_array_new_length@std@@YAXXZ 0040a000 f i Configuration.obj
 0001:00009030       ?_Tidy_deallocate@?$basic_string@DU?$char_traits@D@std@@V?$allocator@D@2@@std@@AAEXXZ 0040a030 f i Configuration.obj
 0001:00009120       ?_Tidy_init@?$basic_string@DU?$char_traits@D@std@@V?$allocator@D@2@@std@@AAEXXZ 0040a120 f i Configuration.obj
 0001:00009180       ?_Xlen@?$basic_string@DU?$char_traits@D@std@@V?$allocator@D@2@@std@@CAXXZ 0040a180 f i Configuration.obj
 0001:000091a0       ?allocate@?$allocator@D@std@@QAEPADI@Z 0040a1a0 f i Configuration.obj
 0001:000091d0       ?allocate@?$allocator@U_Container_proxy@std@@@std@@QAEPAU_Container_proxy@2@I@Z 0040a1d0 f i Configuration.obj
 0001:00009200       ?assign@?$_Narrow_char_traits@DH@std@@SAXAADABD@Z 0040a200 f i Configuration.obj
 0001:00009220       ?assign@?$basic_string@DU?$char_traits@D@std@@V?$allocator@D@2@@std@@QAEAAV12@QBD@Z 0040a220 f i Configuration.obj
 0001:00009260       ?assign@?$basic_string@DU?$char_traits@D@std@@V?$allocator@D@2@@std@@QAEAAV12@QBDI@Z 0040a260 f i Configuration.obj
 0001:00009300       ?copy@?$_Narrow_char_traits@DH@std@@SAPADQADQBDI@Z 0040a300 f i Configuration.obj
 0001:00009320       ?deallocate@?$_Default_allocator_traits@V?$allocator@U_Container_proxy@std@@@std@@@std@@SAXAAV?$allocator@U_Container_proxy@std@@@2@QAU_Container_proxy@2@I@Z 0040a320 f i Configuration.obj
 0001:00009340       ?deallocate@?$allocator@D@std@@QAEXQADI@Z 0040a340 f i Configuration.obj
 0001:00009370       ?length@?$_Narrow_char_traits@DH@std@@SAIQBD@Z 0040a370 f i Configuration.obj
 0001:00009390       ?max@?$numeric_limits@H@std@@SAHXZ 0040a390 f i Configuration.obj
 0001:000093a0       ?max_size@?$_Default_allocator_traits@V?$allocator@D@std@@@std@@SAIABV?$allocator@D@2@@Z 0040a3a0 f i Configuration.obj
 0001:000093b0       ?max_size@?$basic_string@DU?$char_traits@D@std@@V?$allocator@D@2@@std@@QBEIXZ 0040a3b0 f i Configuration.obj
 0001:00009430       ?move@?$_Narrow_char_traits@DH@std@@SAPADQADQBDI@Z 0040a430 f i Configuration.obj
 0001:00009450       ?what@exception@std@@UBEPBDXZ 0040a450 f i Configuration.obj
 0001:00009490       ??0controller@@QAE@PAVBaseEngine@@HHHHH_NHV?$basic_string@DU?$char_traits@D@std@@V?$allocator@D@2@@std@@@Z 0040a490 f   controller.obj
 0001:00009660       ??1controller@@UAE@XZ      0040a660 f   controller.obj
 0001:000096a0       ?virtDraw@controller@@UAEXXZ 0040a6a0 f   controller.obj
 0001:00009890       ?virtDoUpdate@controller@@UAEXH@Z 0040a890 f   controller.obj
 0001:00009a30       ??$?0$$V@?$_Compressed_pair@V?$allocator@U?$_Tree_node@U?$pair@$$CBV?$basic_string@DU?$char_traits@D@std@@V?$allocator@D@2@@std@@V?$shared_ptr@VRawImageData@@@2@@std@@PAX@std@@@std@@V?$_Tree_val@U?$_Tree_simple_types@U?$pair@$$CBV?$basic_string@DU?$char_traits@D@std@@V?$allocator@D@2@@std@@V?$shared_ptr@VRawImageData@@@2@@std@@@std@@@2@$00@std@@QAE@U_Zero_then_variadic_args_t@1@@Z 0040aa30 f i controller.obj
 0001:00009a60       ??$?0$$V@?$_Compressed_pair@V?$allocator@U?$_Tree_node@U?$pair@$$CBV?$basic_string@DU?$char_traits@D@std@@V?$allocator@D@2@@std@@V?$weak_ptr@VRawImageData@@@2@@std@@PAX@std@@@std@@V?$_Tree_val@U?$_Tree_simple_types@U?$pair@$$CBV?$basic_string@DU?$char_traits@D@std@@V?$allocator@D@2@@std@@V?$weak_ptr@VRawImageData@@@2@@std@@@std@@@2@$00@std@@QAE@U_Zero_then_variadic_args_t@1@@Z 0040aa60 f i controller.obj
 0001:00009a90       ??$?0AAPAU?$_Tree_node@U?$pair@$$CBV?$basic_string@DU?$char_traits@D@std@@V?$allocator@D@2@@std@@V?$shared_ptr@VRawImageData@@@2@@std@@PAX@std@@_N$0A@@?$pair@PAU?$_Tree_node@U?$pair@$$CBV?$basic_string@DU?$char_traits@D@std@@V?$allocator@D@2@@std@@V?$shared_ptr@VRawImageData@@@2@@std@@PAX@std@@_N@std@@QAE@AAPAU?$_Tree_node@U?$pair@$$CBV?$basic_string@DU?$char_traits@D@std@@V?$allocator@D@2@@std@@V?$shared_ptr@VRawImageData@@@2@@std@@PAX@1@$$QA_N@Z 0040aa90 f i controller.obj
 0001:00009ae0       ??$?0AAPAU?$_Tree_node@U?$pair@$$CBV?$basic_string@DU?$char_traits@D@std@@V?$allocator@D@2@@std@@V?$weak_ptr@VRawImageData@@@2@@std@@PAX@std@@_N$0A@@?$pair@PAU?$_Tree_node@U?$pair@$$CBV?$basic_string@DU?$char_traits@D@std@@V?$allocator@D@2@@std@@V?$weak_ptr@VRawImageData@@@2@@std@@PAX@std@@_N@std@@QAE@AAPAU?$_Tree_node@U?$pair@$$CBV?$basic_string@DU?$char_traits@D@std@@V?$allocator@D@2@@std@@V?$weak_ptr@VRawImageData@@@2@@std@@PAX@1@$$QA_N@Z 0040aae0 f i controller.obj
 0001:00009b30       ??$?0AAV?$basic_string@DU?$char_traits@D@std@@V?$allocator@D@2@@std@@AAV?$shared_ptr@VRawImageData@@@1@$0A@@?$pair@V?$basic_string@DU?$char_traits@D@std@@V?$allocator@D@2@@std@@V?$shared_ptr@VRawImageData@@@2@@std@@QAE@AAV?$basic_string@DU?$char_traits@D@std@@V?$allocator@D@2@@1@AAV?$shared_ptr@VRawImageData@@@1@@Z 0040ab30 f i controller.obj
 0001:00009b80       ??$?0AAV?$basic_string@DU?$char_traits@D@std@@V?$allocator@D@2@@std@@AAV?$weak_ptr@VRawImageData@@@1@$0A@@?$pair@V?$basic_string@DU?$char_traits@D@std@@V?$allocator@D@2@@std@@V?$weak_ptr@VRawImageData@@@2@@std@@QAE@AAV?$basic_string@DU?$char_traits@D@std@@V?$allocator@D@2@@1@AAV?$weak_ptr@VRawImageData@@@1@@Z 0040ab80 f i controller.obj
 0001:00009bd0       ??$?0ABU?$less@V?$basic_string@DU?$char_traits@D@std@@V?$allocator@D@2@@std@@@std@@U_Zero_then_variadic_args_t@1@@?$_Compressed_pair@U?$less@V?$basic_string@DU?$char_traits@D@std@@V?$allocator@D@2@@std@@@std@@V?$_Compressed_pair@V?$allocator@U?$_Tree_node@U?$pair@$$CBV?$basic_string@DU?$char_traits@D@std@@V?$allocator@D@2@@std@@V?$shared_ptr@VRawImageData@@@2@@std@@PAX@std@@@std@@V?$_Tree_val@U?$_Tree_simple_types@U?$pair@$$CBV?$basic_string@DU?$char_traits@D@std@@V?$allocator@D@2@@std@@V?$shared_ptr@VRawImageData@@@2@@std@@@std@@@2@$00@2@$00@std@@QAE@U_One_then_variadic_args_t@1@ABU?$less@V?$basic_string@DU?$char_traits@D@std@@V?$allocator@D@2@@std@@@1@$$QAU_Zero_then_variadic_args_t@1@@Z 0040abd0 f i controller.obj
 0001:00009c20       ??$?0ABU?$less@V?$basic_string@DU?$char_traits@D@std@@V?$allocator@D@2@@std@@@std@@U_Zero_then_variadic_args_t@1@@?$_Compressed_pair@U?$less@V?$basic_string@DU?$char_traits@D@std@@V?$allocator@D@2@@std@@@std@@V?$_Compressed_pair@V?$allocator@U?$_Tree_node@U?$pair@$$CBV?$basic_string@DU?$char_traits@D@std@@V?$allocator@D@2@@std@@V?$weak_ptr@VRawImageData@@@2@@std@@PAX@std@@@std@@V?$_Tree_val@U?$_Tree_simple_types@U?$pair@$$CBV?$basic_string@DU?$char_traits@D@std@@V?$allocator@D@2@@std@@V?$weak_ptr@VRawImageData@@@2@@std@@@std@@@2@$00@2@$00@std@@QAE@U_One_then_variadic_args_t@1@ABU?$less@V?$basic_string@DU?$char_traits@D@std@@V?$allocator@D@2@@std@@@1@$$QAU_Zero_then_variadic_args_t@1@@Z 0040ac20 f i controller.obj
 0001:00009c70       ??$?0PAU?$_Tree_node@U?$pair@$$CBV?$basic_string@DU?$char_traits@D@std@@V?$allocator@D@2@@std@@V?$shared_ptr@VRawImageData@@@2@@std@@PAX@std@@_N$0A@@?$pair@PAU?$_Tree_node@U?$pair@$$CBV?$basic_string@DU?$char_traits@D@std@@V?$allocator@D@2@@std@@V?$shared_ptr@VRawImageData@@@2@@std@@PAX@std@@_N@std@@QAE@$$QAPAU?$_Tree_node@U?$pair@$$CBV?$basic_string@DU?$char_traits@D@std@@V?$allocator@D@2@@std@@V?$shared_ptr@VRawImageData@@@2@@std@@PAX@1@$$QA_N@Z 0040ac70 f i controller.obj
 0001:00009cc0       ??$?0PAU?$_Tree_node@U?$pair@$$CBV?$basic_string@DU?$char_traits@D@std@@V?$allocator@D@2@@std@@V?$weak_ptr@VRawImageData@@@2@@std@@PAX@std@@_N$0A@@?$pair@PAU?$_Tree_node@U?$pair@$$CBV?$basic_string@DU?$char_traits@D@std@@V?$allocator@D@2@@std@@V?$weak_ptr@VRawImageData@@@2@@std@@PAX@std@@_N@std@@QAE@$$QAPAU?$_Tree_node@U?$pair@$$CBV?$basic_string@DU?$char_traits@D@std@@V?$allocator@D@2@@std@@V?$weak_ptr@VRawImageData@@@2@@std@@PAX@1@$$QA_N@Z 0040acc0 f i controller.obj
 0001:00009d10       ??$?0U?$_Tree_node@U?$pair@$$CBV?$basic_string@DU?$char_traits@D@std@@V?$allocator@D@2@@std@@V?$shared_ptr@VRawImageData@@@2@@std@@PAX@std@@@?$allocator@U_Container_proxy@std@@@std@@QAE@ABV?$allocator@U?$_Tree_node@U?$pair@$$CBV?$basic_string@DU?$char_traits@D@std@@V?$allocator@D@2@@std@@V?$shared_ptr@VRawImageData@@@2@@std@@PAX@std@@@1@@Z 0040ad10 f i controller.obj
 0001:00009d30       ??$?0U?$_Tree_node@U?$pair@$$CBV?$basic_string@DU?$char_traits@D@std@@V?$allocator@D@2@@std@@V?$weak_ptr@VRawImageData@@@2@@std@@PAX@std@@@?$allocator@U_Container_proxy@std@@@std@@QAE@ABV?$allocator@U?$_Tree_node@U?$pair@$$CBV?$basic_string@DU?$char_traits@D@std@@V?$allocator@D@2@@std@@V?$weak_ptr@VRawImageData@@@2@@std@@PAX@std@@@1@@Z 0040ad30 f i controller.obj
 0001:00009d50       ??$?0U?$pair@V?$basic_string@DU?$char_traits@D@std@@V?$allocator@D@2@@std@@V?$shared_ptr@VRawImageData@@@2@@std@@@?$_Tree_temp_node@V?$allocator@U?$_Tree_node@U?$pair@$$CBV?$basic_string@DU?$char_traits@D@std@@V?$allocator@D@2@@std@@V?$shared_ptr@VRawImageData@@@2@@std@@PAX@std@@@std@@@std@@QAE@AAV?$allocator@U?$_Tree_node@U?$pair@$$CBV?$basic_string@DU?$char_traits@D@std@@V?$allocator@D@2@@std@@V?$shared_ptr@VRawImageData@@@2@@std@@PAX@std@@@1@PAU?$_Tree_node@U?$pair@$$CBV?$basic_string@DU?$char_traits@D@std@@V?$allocator@D@2@@std@@V?$shared_ptr@VRawImageData@@@2@@std@@PAX@1@$$QAU?$pair@V?$basic_string@DU?$char_traits@D@std@@V?$allocator@D@2@@std@@V?$shared_ptr@VRawImageData@@@2@@1@@Z 0040ad50 f i controller.obj
 0001:00009e60       ??$?0U?$pair@V?$basic_string@DU?$char_traits@D@std@@V?$allocator@D@2@@std@@V?$weak_ptr@VRawImageData@@@2@@std@@@?$_Tree_temp_node@V?$allocator@U?$_Tree_node@U?$pair@$$CBV?$basic_string@DU?$char_traits@D@std@@V?$allocator@D@2@@std@@V?$weak_ptr@VRawImageData@@@2@@std@@PAX@std@@@std@@@std@@QAE@AAV?$allocator@U?$_Tree_node@U?$pair@$$CBV?$basic_string@DU?$char_traits@D@std@@V?$allocator@D@2@@std@@V?$weak_ptr@VRawImageData@@@2@@std@@PAX@std@@@1@PAU?$_Tree_node@U?$pair@$$CBV?$basic_string@DU?$char_traits@D@std@@V?$allocator@D@2@@std@@V?$weak_ptr@VRawImageData@@@2@@std@@PAX@1@$$QAU?$pair@V?$basic_string@DU?$char_traits@D@std@@V?$allocator@D@2@@std@@V?$weak_ptr@VRawImageData@@@2@@1@@Z 0040ae60 f i controller.obj
 0001:00009f70       ??$?0V?$_Tree_iterator@V?$_Tree_val@U?$_Tree_simple_types@U?$pair@$$CBV?$basic_string@DU?$char_traits@D@std@@V?$allocator@D@2@@std@@V?$shared_ptr@VRawImageData@@@2@@std@@@std@@@std@@@std@@AB_N$0A@@?$pair@V?$_Tree_iterator@V?$_Tree_val@U?$_Tree_simple_types@U?$pair@$$CBV?$basic_string@DU?$char_traits@D@std@@V?$allocator@D@2@@std@@V?$shared_ptr@VRawImageData@@@2@@std@@@std@@@std@@@std@@_N@std@@QAE@$$QAV?$_Tree_iterator@V?$_Tree_val@U?$_Tree_simple_types@U?$pair@$$CBV?$basic_string@DU?$char_traits@D@std@@V?$allocator@D@2@@std@@V?$shared_ptr@VRawImageData@@@2@@std@@@std@@@std@@@1@AB_N@Z 0040af70 f i controller.obj
 0001:00009fc0       ??$?0V?$_Tree_iterator@V?$_Tree_val@U?$_Tree_simple_types@U?$pair@$$CBV?$basic_string@DU?$char_traits@D@std@@V?$allocator@D@2@@std@@V?$weak_ptr@VRawImageData@@@2@@std@@@std@@@std@@@std@@AB_N$0A@@?$pair@V?$_Tree_iterator@V?$_Tree_val@U?$_Tree_simple_types@U?$pair@$$CBV?$basic_string@DU?$char_traits@D@std@@V?$allocator@D@2@@std@@V?$weak_ptr@VRawImageData@@@2@@std@@@std@@@std@@@std@@_N@std@@QAE@$$QAV?$_Tree_iterator@V?$_Tree_val@U?$_Tree_simple_types@U?$pair@$$CBV?$basic_string@DU?$char_traits@D@std@@V?$allocator@D@2@@std@@V?$weak_ptr@VRawImageData@@@2@@std@@@std@@@std@@@1@AB_N@Z 0040afc0 f i controller.obj
 0001:0000a010       ??$?0V?$allocator@D@std@@$$V@?$_Compressed_pair@V?$allocator@D@std@@V?$_String_val@U?$_Simple_types@D@std@@@2@$00@std@@QAE@U_One_then_variadic_args_t@1@$$QAV?$allocator@D@1@@Z 0040b010 f i controller.obj
 0001:0000a040       ??$?0V?$basic_string@DU?$char_traits@D@std@@V?$allocator@D@2@@std@@V?$shared_ptr@VRawImageData@@@1@$0A@@?$pair@$$CBV?$basic_string@DU?$char_traits@D@std@@V?$allocator@D@2@@std@@V?$shared_ptr@VRawImageData@@@2@@std@@QAE@$$QAU?$pair@V?$basic_string@DU?$char_traits@D@std@@V?$allocator@D@2@@std@@V?$shared_ptr@VRawImageData@@@2@@1@@Z 0040b040 f i controller.obj
 0001:0000a090       ??$?0V?$basic_string@DU?$char_traits@D@std@@V?$allocator@D@2@@std@@V?$weak_ptr@VRawImageData@@@1@$0A@@?$pair@$$CBV?$basic_string@DU?$char_traits@D@std@@V?$allocator@D@2@@std@@V?$weak_ptr@VRawImageData@@@2@@std@@QAE@$$QAU?$pair@V?$basic_string@DU?$char_traits@D@std@@V?$allocator@D@2@@std@@V?$weak_ptr@VRawImageData@@@2@@1@@Z 0040b090 f i controller.obj
 0001:0000a0e0       ??$?0VRawImageData@@$0A@@?$shared_ptr@VRawImageData@@@std@@QAE@PAVRawImageData@@@Z 0040b0e0 f i controller.obj
 0001:0000a1d0       ??$?0VRawImageData@@$0A@@?$weak_ptr@VRawImageData@@@std@@QAE@ABV?$shared_ptr@VRawImageData@@@1@@Z 0040b1d0 f i controller.obj
 0001:0000a200       ??$?6DU?$char_traits@D@std@@V?$allocator@D@1@@std@@YAAAV?$basic_ostream@DU?$char_traits@D@std@@@0@AAV10@ABV?$basic_string@DU?$char_traits@D@std@@V?$allocator@D@2@@0@@Z 0040b200 f i controller.obj
 0001:0000a230       ??$?6U?$char_traits@D@std@@@std@@YAAAV?$basic_ostream@DU?$char_traits@D@std@@@0@AAV10@PBD@Z 0040b230 f i controller.obj
 0001:0000a630       ??$?9VRawImageData@@@std@@YA_NABV?$shared_ptr@VRawImageData@@@0@$$T@Z 0040b630 f i controller.obj
 0001:0000a660       ??$?CVRawImageData@@$0A@@?$shared_ptr@VRawImageData@@@std@@QBEPAVRawImageData@@XZ 0040b660 f i controller.obj
 0001:0000a680       ??$?HDU?$char_traits@D@std@@V?$allocator@D@1@@std@@YA?AV?$basic_string@DU?$char_traits@D@std@@V?$allocator@D@2@@0@$$QAV10@QBD@Z 0040b680 f i controller.obj
 0001:0000a6d0       ??$?HDU?$char_traits@D@std@@V?$allocator@D@1@@std@@YA?AV?$basic_string@DU?$char_traits@D@std@@V?$allocator@D@2@@0@QBDABV10@@Z 0040b6d0 f i controller.obj
 0001:0000a7d0       ??$?MDU?$char_traits@D@std@@V?$allocator@D@1@@std@@YA_NABV?$basic_string@DU?$char_traits@D@std@@V?$allocator@D@2@@0@0@Z 0040b7d0 f i controller.obj
 0001:0000a810       ??$_Alloc_proxy@V?$allocator@U_Container_proxy@std@@@std@@@_Container_base12@std@@QAEX$$QAV?$allocator@U_Container_proxy@std@@@1@@Z 0040b810 f i controller.obj
 0001:0000a870       ??$_Atomic_address_as@$$CBJ$$CCJ@std@@YAPDJACJ@Z 0040b870 f i controller.obj
 0001:0000a880       ??$_Buyheadnode@V?$allocator@U?$_Tree_node@U?$pair@$$CBV?$basic_string@DU?$char_traits@D@std@@V?$allocator@D@2@@std@@V?$shared_ptr@VRawImageData@@@2@@std@@PAX@std@@@std@@@?$_Tree_node@U?$pair@$$CBV?$basic_string@DU?$char_traits@D@std@@V?$allocator@D@2@@std@@V?$shared_ptr@VRawImageData@@@2@@std@@PAX@std@@SAPAU01@AAV?$allocator@U?$_Tree_node@U?$pair@$$CBV?$basic_string@DU?$char_traits@D@std@@V?$allocator@D@2@@std@@V?$shared_ptr@VRawImageData@@@2@@std@@PAX@std@@@1@@Z 0040b880 f i controller.obj
 0001:0000a900       ??$_Buyheadnode@V?$allocator@U?$_Tree_node@U?$pair@$$CBV?$basic_string@DU?$char_traits@D@std@@V?$allocator@D@2@@std@@V?$weak_ptr@VRawImageData@@@2@@std@@PAX@std@@@std@@@?$_Tree_node@U?$pair@$$CBV?$basic_string@DU?$char_traits@D@std@@V?$allocator@D@2@@std@@V?$weak_ptr@VRawImageData@@@2@@std@@PAX@std@@SAPAU01@AAV?$allocator@U?$_Tree_node@U?$pair@$$CBV?$basic_string@DU?$char_traits@D@std@@V?$allocator@D@2@@std@@V?$weak_ptr@VRawImageData@@@2@@std@@PAX@std@@@1@@Z 0040b900 f i controller.obj
 0001:0000a980       ??$_Construct_from_weak@VRawImageData@@@?$_Ptr_base@VRawImageData@@@std@@IAE_NABV?$weak_ptr@VRawImageData@@@1@@Z 0040b980 f i controller.obj
 0001:0000a9e0       ??$_Construct_in_place@PAU?$_Tree_node@U?$pair@$$CBV?$basic_string@DU?$char_traits@D@std@@V?$allocator@D@2@@std@@V?$shared_ptr@VRawImageData@@@2@@std@@PAX@std@@AAPAU12@@std@@YAXAAPAU?$_Tree_node@U?$pair@$$CBV?$basic_string@DU?$char_traits@D@std@@V?$allocator@D@2@@std@@V?$shared_ptr@VRawImageData@@@2@@std@@PAX@0@0@Z 0040b9e0 f i controller.obj
 0001:0000aa30       ??$_Construct_in_place@PAU?$_Tree_node@U?$pair@$$CBV?$basic_string@DU?$char_traits@D@std@@V?$allocator@D@2@@std@@V?$shared_ptr@VRawImageData@@@2@@std@@PAX@std@@ABQAU12@@std@@YAXAAPAU?$_Tree_node@U?$pair@$$CBV?$basic_string@DU?$char_traits@D@std@@V?$allocator@D@2@@std@@V?$shared_ptr@VRawImageData@@@2@@std@@PAX@0@ABQAU10@@Z 0040ba30 f i controller.obj
 0001:0000aa80       ??$_Construct_in_place@PAU?$_Tree_node@U?$pair@$$CBV?$basic_string@DU?$char_traits@D@std@@V?$allocator@D@2@@std@@V?$weak_ptr@VRawImageData@@@2@@std@@PAX@std@@AAPAU12@@std@@YAXAAPAU?$_Tree_node@U?$pair@$$CBV?$basic_string@DU?$char_traits@D@std@@V?$allocator@D@2@@std@@V?$weak_ptr@VRawImageData@@@2@@std@@PAX@0@0@Z 0040ba80 f i controller.obj
 0001:0000aad0       ??$_Construct_in_place@PAU?$_Tree_node@U?$pair@$$CBV?$basic_string@DU?$char_traits@D@std@@V?$allocator@D@2@@std@@V?$weak_ptr@VRawImageData@@@2@@std@@PAX@std@@ABQAU12@@std@@YAXAAPAU?$_Tree_node@U?$pair@$$CBV?$basic_string@DU?$char_traits@D@std@@V?$allocator@D@2@@std@@V?$weak_ptr@VRawImageData@@@2@@std@@PAX@0@ABQAU10@@Z 0040bad0 f i controller.obj
 0001:0000ab20       ??$_Copy_construct_from@VRawImageData@@@?$_Ptr_base@VRawImageData@@@std@@IAEXABV?$shared_ptr@VRawImageData@@@1@@Z 0040bb20 f i controller.obj
 0001:0000ab70       ??$_Debug_lt_pred@ABU?$less@V?$basic_string@DU?$char_traits@D@std@@V?$allocator@D@2@@std@@@std@@ABV?$basic_string@DU?$char_traits@D@std@@V?$allocator@D@2@@2@ABV32@$0A@@std@@YA_NABU?$less@V?$basic_string@DU?$char_traits@D@std@@V?$allocator@D@2@@std@@@0@ABV?$basic_string@DU?$char_traits@D@std@@V?$allocator@D@2@@0@1@Z 0040bb70 f i controller.obj
 0001:0000ac20       ??$_Destroy_in_place@PAU?$_Tree_node@U?$pair@$$CBV?$basic_string@DU?$char_traits@D@std@@V?$allocator@D@2@@std@@V?$shared_ptr@VRawImageData@@@2@@std@@PAX@std@@@std@@YAXAAPAU?$_Tree_node@U?$pair@$$CBV?$basic_string@DU?$char_traits@D@std@@V?$allocator@D@2@@std@@V?$shared_ptr@VRawImageData@@@2@@std@@PAX@0@@Z 0040bc20 f i controller.obj
 0001:0000ac30       ??$_Destroy_in_place@PAU?$_Tree_node@U?$pair@$$CBV?$basic_string@DU?$char_traits@D@std@@V?$allocator@D@2@@std@@V?$weak_ptr@VRawImageData@@@2@@std@@PAX@std@@@std@@YAXAAPAU?$_Tree_node@U?$pair@$$CBV?$basic_string@DU?$char_traits@D@std@@V?$allocator@D@2@@std@@V?$weak_ptr@VRawImageData@@@2@@std@@PAX@0@@Z 0040bc30 f i controller.obj
 0001:0000ac40       ??$_Emplace@U?$pair@V?$basic_string@DU?$char_traits@D@std@@V?$allocator@D@2@@std@@V?$shared_ptr@VRawImageData@@@2@@std@@@?$_Tree@V?$_Tmap_traits@V?$basic_string@DU?$char_traits@D@std@@V?$allocator@D@2@@std@@V?$shared_ptr@VRawImageData@@@2@U?$less@V?$basic_string@DU?$char_traits@D@std@@V?$allocator@D@2@@std@@@2@V?$allocator@U?$pair@$$CBV?$basic_string@DU?$char_traits@D@std@@V?$allocator@D@2@@std@@V?$shared_ptr@VRawImageData@@@2@@std@@@2@$0A@@std@@@std@@IAE?AU?$pair@PAU?$_Tree_node@U?$pair@$$CBV?$basic_string@DU?$char_traits@D@std@@V?$allocator@D@2@@std@@V?$shared_ptr@VRawImageData@@@2@@std@@PAX@std@@_N@1@$$QAU?$pair@V?$basic_string@DU?$char_traits@D@std@@V?$allocator@D@2@@std@@V?$shared_ptr@VRawImageData@@@2@@1@@Z 0040bc40 f i controller.obj
 0001:0000ad70       ??$_Emplace@U?$pair@V?$basic_string@DU?$char_traits@D@std@@V?$allocator@D@2@@std@@V?$weak_ptr@VRawImageData@@@2@@std@@@?$_Tree@V?$_Tmap_traits@V?$basic_string@DU?$char_traits@D@std@@V?$allocator@D@2@@std@@V?$weak_ptr@VRawImageData@@@2@U?$less@V?$basic_string@DU?$char_traits@D@std@@V?$allocator@D@2@@std@@@2@V?$allocator@U?$pair@$$CBV?$basic_string@DU?$char_traits@D@std@@V?$allocator@D@2@@std@@V?$weak_ptr@VRawImageData@@@2@@std@@@2@$0A@@std@@@std@@IAE?AU?$pair@PAU?$_Tree_node@U?$pair@$$CBV?$basic_string@DU?$char_traits@D@std@@V?$allocator@D@2@@std@@V?$weak_ptr@VRawImageData@@@2@@std@@PAX@std@@_N@1@$$QAU?$pair@V?$basic_string@DU?$char_traits@D@std@@V?$allocator@D@2@@std@@V?$weak_ptr@VRawImageData@@@2@@1@@Z 0040bd70 f i controller.obj
 0001:0000aea0       ??$_Erase_head@V?$allocator@U?$_Tree_node@U?$pair@$$CBV?$basic_string@DU?$char_traits@D@std@@V?$allocator@D@2@@std@@V?$shared_ptr@VRawImageData@@@2@@std@@PAX@std@@@std@@@?$_Tree_val@U?$_Tree_simple_types@U?$pair@$$CBV?$basic_string@DU?$char_traits@D@std@@V?$allocator@D@2@@std@@V?$shared_ptr@VRawImageData@@@2@@std@@@std@@@std@@QAEXAAV?$allocator@U?$_Tree_node@U?$pair@$$CBV?$basic_string@DU?$char_traits@D@std@@V?$allocator@D@2@@std@@V?$shared_ptr@VRawImageData@@@2@@std@@PAX@std@@@1@@Z 0040bea0 f i controller.obj
 0001:0000aef0       ??$_Erase_head@V?$allocator@U?$_Tree_node@U?$pair@$$CBV?$basic_string@DU?$char_traits@D@std@@V?$allocator@D@2@@std@@V?$weak_ptr@VRawImageData@@@2@@std@@PAX@std@@@std@@@?$_Tree_val@U?$_Tree_simple_types@U?$pair@$$CBV?$basic_string@DU?$char_traits@D@std@@V?$allocator@D@2@@std@@V?$weak_ptr@VRawImageData@@@2@@std@@@std@@@std@@QAEXAAV?$allocator@U?$_Tree_node@U?$pair@$$CBV?$basic_string@DU?$char_traits@D@std@@V?$allocator@D@2@@std@@V?$weak_ptr@VRawImageData@@@2@@std@@PAX@std@@@1@@Z 0040bef0 f i controller.obj
 0001:0000af40       ??$_Erase_tree@V?$allocator@U?$_Tree_node@U?$pair@$$CBV?$basic_string@DU?$char_traits@D@std@@V?$allocator@D@2@@std@@V?$shared_ptr@VRawImageData@@@2@@std@@PAX@std@@@std@@@?$_Tree_val@U?$_Tree_simple_types@U?$pair@$$CBV?$basic_string@DU?$char_traits@D@std@@V?$allocator@D@2@@std@@V?$shared_ptr@VRawImageData@@@2@@std@@@std@@@std@@QAEXAAV?$allocator@U?$_Tree_node@U?$pair@$$CBV?$basic_string@DU?$char_traits@D@std@@V?$allocator@D@2@@std@@V?$shared_ptr@VRawImageData@@@2@@std@@PAX@std@@@1@PAU?$_Tree_node@U?$pair@$$CBV?$basic_string@DU?$char_traits@D@std@@V?$allocator@D@2@@std@@V?$shared_ptr@VRawImageData@@@2@@std@@PAX@1@@Z 0040bf40 f i controller.obj
 0001:0000afa0       ??$_Erase_tree@V?$allocator@U?$_Tree_node@U?$pair@$$CBV?$basic_string@DU?$char_traits@D@std@@V?$allocator@D@2@@std@@V?$weak_ptr@VRawImageData@@@2@@std@@PAX@std@@@std@@@?$_Tree_val@U?$_Tree_simple_types@U?$pair@$$CBV?$basic_string@DU?$char_traits@D@std@@V?$allocator@D@2@@std@@V?$weak_ptr@VRawImageData@@@2@@std@@@std@@@std@@QAEXAAV?$allocator@U?$_Tree_node@U?$pair@$$CBV?$basic_string@DU?$char_traits@D@std@@V?$allocator@D@2@@std@@V?$weak_ptr@VRawImageData@@@2@@std@@PAX@std@@@1@PAU?$_Tree_node@U?$pair@$$CBV?$basic_string@DU?$char_traits@D@std@@V?$allocator@D@2@@std@@V?$weak_ptr@VRawImageData@@@2@@std@@PAX@1@@Z 0040bfa0 f i controller.obj
 0001:0000b000       ??$_Find@V?$basic_string@DU?$char_traits@D@std@@V?$allocator@D@2@@std@@@?$_Tree@V?$_Tmap_traits@V?$basic_string@DU?$char_traits@D@std@@V?$allocator@D@2@@std@@V?$weak_ptr@VRawImageData@@@2@U?$less@V?$basic_string@DU?$char_traits@D@std@@V?$allocator@D@2@@std@@@2@V?$allocator@U?$pair@$$CBV?$basic_string@DU?$char_traits@D@std@@V?$allocator@D@2@@std@@V?$weak_ptr@VRawImageData@@@2@@std@@@2@$0A@@std@@@std@@ABEPAU?$_Tree_node@U?$pair@$$CBV?$basic_string@DU?$char_traits@D@std@@V?$allocator@D@2@@std@@V?$weak_ptr@VRawImageData@@@2@@std@@PAX@1@ABV?$basic_string@DU?$char_traits@D@std@@V?$allocator@D@2@@1@@Z 0040c000 f i controller.obj
 0001:0000b060       ??$_Find_lower_bound@V?$basic_string@DU?$char_traits@D@std@@V?$allocator@D@2@@std@@@?$_Tree@V?$_Tmap_traits@V?$basic_string@DU?$char_traits@D@std@@V?$allocator@D@2@@std@@V?$shared_ptr@VRawImageData@@@2@U?$less@V?$basic_string@DU?$char_traits@D@std@@V?$allocator@D@2@@std@@@2@V?$allocator@U?$pair@$$CBV?$basic_string@DU?$char_traits@D@std@@V?$allocator@D@2@@std@@V?$shared_ptr@VRawImageData@@@2@@std@@@2@$0A@@std@@@std@@IBE?AU?$_Tree_find_result@PAU?$_Tree_node@U?$pair@$$CBV?$basic_string@DU?$char_traits@D@std@@V?$allocator@D@2@@std@@V?$shared_ptr@VRawImageData@@@2@@std@@PAX@std@@@1@ABV?$basic_string@DU?$char_traits@D@std@@V?$allocator@D@2@@1@@Z 0040c060 f i controller.obj
 0001:0000b150       ??$_Find_lower_bound@V?$basic_string@DU?$char_traits@D@std@@V?$allocator@D@2@@std@@@?$_Tree@V?$_Tmap_traits@V?$basic_string@DU?$char_traits@D@std@@V?$allocator@D@2@@std@@V?$weak_ptr@VRawImageData@@@2@U?$less@V?$basic_string@DU?$char_traits@D@std@@V?$allocator@D@2@@std@@@2@V?$allocator@U?$pair@$$CBV?$basic_string@DU?$char_traits@D@std@@V?$allocator@D@2@@std@@V?$weak_ptr@VRawImageData@@@2@@std@@@2@$0A@@std@@@std@@IBE?AU?$_Tree_find_result@PAU?$_Tree_node@U?$pair@$$CBV?$basic_string@DU?$char_traits@D@std@@V?$allocator@D@2@@std@@V?$weak_ptr@VRawImageData@@@2@@std@@PAX@std@@@1@ABV?$basic_string@DU?$char_traits@D@std@@V?$allocator@D@2@@1@@Z 0040c150 f i controller.obj
 0001:0000b240       ??$_Freenode0@V?$allocator@U?$_Tree_node@U?$pair@$$CBV?$basic_string@DU?$char_traits@D@std@@V?$allocator@D@2@@std@@V?$shared_ptr@VRawImageData@@@2@@std@@PAX@std@@@std@@@?$_Tree_node@U?$pair@$$CBV?$basic_string@DU?$char_traits@D@std@@V?$allocator@D@2@@std@@V?$shared_ptr@VRawImageData@@@2@@std@@PAX@std@@SAXAAV?$allocator@U?$_Tree_node@U?$pair@$$CBV?$basic_string@DU?$char_traits@D@std@@V?$allocator@D@2@@std@@V?$shared_ptr@VRawImageData@@@2@@std@@PAX@std@@@1@PAU01@@Z 0040c240 f i controller.obj
 0001:0000b2d0       ??$_Freenode0@V?$allocator@U?$_Tree_node@U?$pair@$$CBV?$basic_string@DU?$char_traits@D@std@@V?$allocator@D@2@@std@@V?$weak_ptr@VRawImageData@@@2@@std@@PAX@std@@@std@@@?$_Tree_node@U?$pair@$$CBV?$basic_string@DU?$char_traits@D@std@@V?$allocator@D@2@@std@@V?$weak_ptr@VRawImageData@@@2@@std@@PAX@std@@SAXAAV?$allocator@U?$_Tree_node@U?$pair@$$CBV?$basic_string@DU?$char_traits@D@std@@V?$allocator@D@2@@std@@V?$weak_ptr@VRawImageData@@@2@@std@@PAX@std@@@1@PAU01@@Z 0040c2d0 f i controller.obj
 0001:0000b360       ??$_Freenode@V?$allocator@U?$_Tree_node@U?$pair@$$CBV?$basic_string@DU?$char_traits@D@std@@V?$allocator@D@2@@std@@V?$shared_ptr@VRawImageData@@@2@@std@@PAX@std@@@std@@@?$_Tree_node@U?$pair@$$CBV?$basic_string@DU?$char_traits@D@std@@V?$allocator@D@2@@std@@V?$shared_ptr@VRawImageData@@@2@@std@@PAX@std@@SAXAAV?$allocator@U?$_Tree_node@U?$pair@$$CBV?$basic_string@DU?$char_traits@D@std@@V?$allocator@D@2@@std@@V?$shared_ptr@VRawImageData@@@2@@std@@PAX@std@@@1@PAU01@@Z 0040c360 f i controller.obj
 0001:0000b3e0       ??$_Freenode@V?$allocator@U?$_Tree_node@U?$pair@$$CBV?$basic_string@DU?$char_traits@D@std@@V?$allocator@D@2@@std@@V?$weak_ptr@VRawImageData@@@2@@std@@PAX@std@@@std@@@?$_Tree_node@U?$pair@$$CBV?$basic_string@DU?$char_traits@D@std@@V?$allocator@D@2@@std@@V?$weak_ptr@VRawImageData@@@2@@std@@PAX@std@@SAXAAV?$allocator@U?$_Tree_node@U?$pair@$$CBV?$basic_string@DU?$char_traits@D@std@@V?$allocator@D@2@@std@@V?$weak_ptr@VRawImageData@@@2@@std@@PAX@std@@@1@PAU01@@Z 0040c3e0 f i controller.obj
 0001:0000b460       ??$_Get_size_of_n@$0DE@@std@@YAII@Z 0040c460 f i controller.obj
 0001:0000b490       ??$_Insert_string@DU?$char_traits@D@std@@I@std@@YAAAV?$basic_ostream@DU?$char_traits@D@std@@@0@AAV10@QBDI@Z 0040c490 f i controller.obj
 0001:0000b810       ??$_Kfn@$$CBV?$basic_string@DU?$char_traits@D@std@@V?$allocator@D@2@@std@@V?$shared_ptr@VRawImageData@@@2@@?$_Tmap_traits@V?$basic_string@DU?$char_traits@D@std@@V?$allocator@D@2@@std@@V?$shared_ptr@VRawImageData@@@2@U?$less@V?$basic_string@DU?$char_traits@D@std@@V?$allocator@D@2@@std@@@2@V?$allocator@U?$pair@$$CBV?$basic_string@DU?$char_traits@D@std@@V?$allocator@D@2@@std@@V?$shared_ptr@VRawImageData@@@2@@std@@@2@$0A@@std@@SAABV?$basic_string@DU?$char_traits@D@std@@V?$allocator@D@2@@1@ABU?$pair@$$CBV?$basic_string@DU?$char_traits@D@std@@V?$allocator@D@2@@std@@V?$shared_ptr@VRawImageData@@@2@@1@@Z 0040c810 f i controller.obj
 0001:0000b820       ??$_Kfn@$$CBV?$basic_string@DU?$char_traits@D@std@@V?$allocator@D@2@@std@@V?$weak_ptr@VRawImageData@@@2@@?$_Tmap_traits@V?$basic_string@DU?$char_traits@D@std@@V?$allocator@D@2@@std@@V?$weak_ptr@VRawImageData@@@2@U?$less@V?$basic_string@DU?$char_traits@D@std@@V?$allocator@D@2@@std@@@2@V?$allocator@U?$pair@$$CBV?$basic_string@DU?$char_traits@D@std@@V?$allocator@D@2@@std@@V?$weak_ptr@VRawImageData@@@2@@std@@@2@$0A@@std@@SAABV?$basic_string@DU?$char_traits@D@std@@V?$allocator@D@2@@1@ABU?$pair@$$CBV?$basic_string@DU?$char_traits@D@std@@V?$allocator@D@2@@std@@V?$weak_ptr@VRawImageData@@@2@@1@@Z 0040c820 f i controller.obj
 0001:0000b830       ??$_Lower_bound_duplicate@V?$basic_string@DU?$char_traits@D@std@@V?$allocator@D@2@@std@@@?$_Tree@V?$_Tmap_traits@V?$basic_string@DU?$char_traits@D@std@@V?$allocator@D@2@@std@@V?$shared_ptr@VRawImageData@@@2@U?$less@V?$basic_string@DU?$char_traits@D@std@@V?$allocator@D@2@@std@@@2@V?$allocator@U?$pair@$$CBV?$basic_string@DU?$char_traits@D@std@@V?$allocator@D@2@@std@@V?$shared_ptr@VRawImageData@@@2@@std@@@2@$0A@@std@@@std@@IBE_NQAU?$_Tree_node@U?$pair@$$CBV?$basic_string@DU?$char_traits@D@std@@V?$allocator@D@2@@std@@V?$shared_ptr@VRawImageData@@@2@@std@@PAX@1@ABV?$basic_string@DU?$char_traits@D@std@@V?$allocator@D@2@@1@@Z 0040c830 f i controller.obj
 0001:0000b8a0       ??$_Lower_bound_duplicate@V?$basic_string@DU?$char_traits@D@std@@V?$allocator@D@2@@std@@@?$_Tree@V?$_Tmap_traits@V?$basic_string@DU?$char_traits@D@std@@V?$allocator@D@2@@std@@V?$weak_ptr@VRawImageData@@@2@U?$less@V?$basic_string@DU?$char_traits@D@std@@V?$allocator@D@2@@std@@@2@V?$allocator@U?$pair@$$CBV?$basic_string@DU?$char_traits@D@std@@V?$allocator@D@2@@std@@V?$weak_ptr@VRawImageData@@@2@@std@@@2@$0A@@std@@@std@@IBE_NQAU?$_Tree_node@U?$pair@$$CBV?$basic_string@DU?$char_traits@D@std@@V?$allocator@D@2@@std@@V?$weak_ptr@VRawImageData@@@2@@std@@PAX@1@ABV?$basic_string@DU?$char_traits@D@std@@V?$allocator@D@2@@1@@Z 0040c8a0 f i controller.obj
 0001:0000b910       ??$_Move_construct_from@VRawImageData@@@?$_Ptr_base@VRawImageData@@@std@@IAEX$$QAV01@@Z 0040c910 f i controller.obj
 0001:0000b960       ??$_Reallocate_grow_by@V<lambda_67d87d4aa1269033985980465fd1d824>@@$$V@?$basic_string@DU?$char_traits@D@std@@V?$allocator@D@2@@std@@AAEAAV01@IV<lambda_67d87d4aa1269033985980465fd1d824>@@@Z 0040c960 f i controller.obj
 0001:0000bac0       ??$_Reallocate_grow_by@V<lambda_ab246b20b9526e2ef7792587e4298a77>@@PBDI@?$basic_string@DU?$char_traits@D@std@@V?$allocator@D@2@@std@@AAEAAV01@IV<lambda_ab246b20b9526e2ef7792587e4298a77>@@PBDI@Z 0040cac0 f i controller.obj
 0001:0000bc30       ??$_Set_ptr_rep_and_enable_shared@VRawImageData@@@?$shared_ptr@VRawImageData@@@std@@AAEXQAVRawImageData@@QAV_Ref_count_base@1@@Z 0040cc30 f i controller.obj
 0001:0000bc60       ??$_Traits_compare@U?$char_traits@D@std@@@std@@YAHQBDI0I@Z 0040cc60 f i controller.obj
 0001:0000bcd0       ??$_Weakly_construct_from@VRawImageData@@@?$_Ptr_base@VRawImageData@@@std@@IAEXABV01@@Z 0040ccd0 f i controller.obj
 0001:0000bd20       ??$addressof@$$CBV?$_String_val@U?$_Simple_types@D@std@@@std@@@std@@YAPBV?$_String_val@U?$_Simple_types@D@std@@@0@ABV10@@Z 0040cd20 f i controller.obj
 0001:0000bd30       ??$addressof@$$CBV?$_Tree_val@U?$_Tree_simple_types@U?$pair@$$CBV?$basic_string@DU?$char_traits@D@std@@V?$allocator@D@2@@std@@V?$shared_ptr@VRawImageData@@@2@@std@@@std@@@std@@@std@@YAPBV?$_Tree_val@U?$_Tree_simple_types@U?$pair@$$CBV?$basic_string@DU?$char_traits@D@std@@V?$allocator@D@2@@std@@V?$shared_ptr@VRawImageData@@@2@@std@@@std@@@0@ABV10@@Z 0040cd30 f i controller.obj
 0001:0000bd40       ??$addressof@$$CBV?$_Tree_val@U?$_Tree_simple_types@U?$pair@$$CBV?$basic_string@DU?$char_traits@D@std@@V?$allocator@D@2@@std@@V?$weak_ptr@VRawImageData@@@2@@std@@@std@@@std@@@std@@YAPBV?$_Tree_val@U?$_Tree_simple_types@U?$pair@$$CBV?$basic_string@DU?$char_traits@D@std@@V?$allocator@D@2@@std@@V?$weak_ptr@VRawImageData@@@2@@std@@@std@@@0@ABV10@@Z 0040cd40 f i controller.obj
 0001:0000bd50       ??$addressof@PAU?$_Tree_node@U?$pair@$$CBV?$basic_string@DU?$char_traits@D@std@@V?$allocator@D@2@@std@@V?$shared_ptr@VRawImageData@@@2@@std@@PAX@std@@@std@@YAPAPAU?$_Tree_node@U?$pair@$$CBV?$basic_string@DU?$char_traits@D@std@@V?$allocator@D@2@@std@@V?$shared_ptr@VRawImageData@@@2@@std@@PAX@0@AAPAU10@@Z 0040cd50 f i controller.obj
 0001:0000bd60       ??$addressof@PAU?$_Tree_node@U?$pair@$$CBV?$basic_string@DU?$char_traits@D@std@@V?$allocator@D@2@@std@@V?$weak_ptr@VRawImageData@@@2@@std@@PAX@std@@@std@@YAPAPAU?$_Tree_node@U?$pair@$$CBV?$basic_string@DU?$char_traits@D@std@@V?$allocator@D@2@@std@@V?$weak_ptr@VRawImageData@@@2@@std@@PAX@0@AAPAU10@@Z 0040cd60 f i controller.obj
 0001:0000bd70       ??$addressof@U?$pair@$$CBV?$basic_string@DU?$char_traits@D@std@@V?$allocator@D@2@@std@@V?$shared_ptr@VRawImageData@@@2@@std@@@std@@YAPAU?$pair@$$CBV?$basic_string@DU?$char_traits@D@std@@V?$allocator@D@2@@std@@V?$shared_ptr@VRawImageData@@@2@@0@AAU10@@Z 0040cd70 f i controller.obj
 0001:0000bd80       ??$addressof@U?$pair@$$CBV?$basic_string@DU?$char_traits@D@std@@V?$allocator@D@2@@std@@V?$weak_ptr@VRawImageData@@@2@@std@@@std@@YAPAU?$pair@$$CBV?$basic_string@DU?$char_traits@D@std@@V?$allocator@D@2@@std@@V?$weak_ptr@VRawImageData@@@2@@0@AAU10@@Z 0040cd80 f i controller.obj
 0001:0000bd90       ??$addressof@V?$_String_val@U?$_Simple_types@D@std@@@std@@@std@@YAPAV?$_String_val@U?$_Simple_types@D@std@@@0@AAV10@@Z 0040cd90 f i controller.obj
 0001:0000bda0       ??$addressof@V?$_Tree_val@U?$_Tree_simple_types@U?$pair@$$CBV?$basic_string@DU?$char_traits@D@std@@V?$allocator@D@2@@std@@V?$shared_ptr@VRawImageData@@@2@@std@@@std@@@std@@@std@@YAPAV?$_Tree_val@U?$_Tree_simple_types@U?$pair@$$CBV?$basic_string@DU?$char_traits@D@std@@V?$allocator@D@2@@std@@V?$shared_ptr@VRawImageData@@@2@@std@@@std@@@0@AAV10@@Z 0040cda0 f i controller.obj
 0001:0000bdb0       ??$addressof@V?$_Tree_val@U?$_Tree_simple_types@U?$pair@$$CBV?$basic_string@DU?$char_traits@D@std@@V?$allocator@D@2@@std@@V?$weak_ptr@VRawImageData@@@2@@std@@@std@@@std@@@std@@YAPAV?$_Tree_val@U?$_Tree_simple_types@U?$pair@$$CBV?$basic_string@DU?$char_traits@D@std@@V?$allocator@D@2@@std@@V?$weak_ptr@VRawImageData@@@2@@std@@@std@@@0@AAV10@@Z 0040cdb0 f i controller.obj
 0001:0000bdc0       ??$construct@U?$pair@$$CBV?$basic_string@DU?$char_traits@D@std@@V?$allocator@D@2@@std@@V?$shared_ptr@VRawImageData@@@2@@std@@U?$pair@V?$basic_string@DU?$char_traits@D@std@@V?$allocator@D@2@@std@@V?$shared_ptr@VRawImageData@@@2@@2@@?$_Default_allocator_traits@V?$allocator@U?$_Tree_node@U?$pair@$$CBV?$basic_string@DU?$char_traits@D@std@@V?$allocator@D@2@@std@@V?$shared_ptr@VRawImageData@@@2@@std@@PAX@std@@@std@@@std@@SAXAAV?$allocator@U?$_Tree_node@U?$pair@$$CBV?$basic_string@DU?$char_traits@D@std@@V?$allocator@D@2@@std@@V?$shared_ptr@VRawImageData@@@2@@std@@PAX@std@@@1@QAU?$pair@$$CBV?$basic_string@DU?$char_traits@D@std@@V?$allocator@D@2@@std@@V?$shared_ptr@VRawImageData@@@2@@1@$$QAU?$pair@V?$basic_string@DU?$char_traits@D@std@@V?$allocator@D@2@@std@@V?$shared_ptr@VRawImageData@@@2@@1@@Z 0040cdc0 f i controller.obj
 0001:0000be00       ??$construct@U?$pair@$$CBV?$basic_string@DU?$char_traits@D@std@@V?$allocator@D@2@@std@@V?$weak_ptr@VRawImageData@@@2@@std@@U?$pair@V?$basic_string@DU?$char_traits@D@std@@V?$allocator@D@2@@std@@V?$weak_ptr@VRawImageData@@@2@@2@@?$_Default_allocator_traits@V?$allocator@U?$_Tree_node@U?$pair@$$CBV?$basic_string@DU?$char_traits@D@std@@V?$allocator@D@2@@std@@V?$weak_ptr@VRawImageData@@@2@@std@@PAX@std@@@std@@@std@@SAXAAV?$allocator@U?$_Tree_node@U?$pair@$$CBV?$basic_string@DU?$char_traits@D@std@@V?$allocator@D@2@@std@@V?$weak_ptr@VRawImageData@@@2@@std@@PAX@std@@@1@QAU?$pair@$$CBV?$basic_string@DU?$char_traits@D@std@@V?$allocator@D@2@@std@@V?$weak_ptr@VRawImageData@@@2@@1@$$QAU?$pair@V?$basic_string@DU?$char_traits@D@std@@V?$allocator@D@2@@std@@V?$weak_ptr@VRawImageData@@@2@@1@@Z 0040ce00 f i controller.obj
 0001:0000be40       ??$destroy@U?$pair@$$CBV?$basic_string@DU?$char_traits@D@std@@V?$allocator@D@2@@std@@V?$shared_ptr@VRawImageData@@@2@@std@@@?$_Default_allocator_traits@V?$allocator@U?$_Tree_node@U?$pair@$$CBV?$basic_string@DU?$char_traits@D@std@@V?$allocator@D@2@@std@@V?$shared_ptr@VRawImageData@@@2@@std@@PAX@std@@@std@@@std@@SAXAAV?$allocator@U?$_Tree_node@U?$pair@$$CBV?$basic_string@DU?$char_traits@D@std@@V?$allocator@D@2@@std@@V?$shared_ptr@VRawImageData@@@2@@std@@PAX@std@@@1@QAU?$pair@$$CBV?$basic_string@DU?$char_traits@D@std@@V?$allocator@D@2@@std@@V?$shared_ptr@VRawImageData@@@2@@1@@Z 0040ce40 f i controller.obj
 0001:0000be60       ??$destroy@U?$pair@$$CBV?$basic_string@DU?$char_traits@D@std@@V?$allocator@D@2@@std@@V?$weak_ptr@VRawImageData@@@2@@std@@@?$_Default_allocator_traits@V?$allocator@U?$_Tree_node@U?$pair@$$CBV?$basic_string@DU?$char_traits@D@std@@V?$allocator@D@2@@std@@V?$weak_ptr@VRawImageData@@@2@@std@@PAX@std@@@std@@@std@@SAXAAV?$allocator@U?$_Tree_node@U?$pair@$$CBV?$basic_string@DU?$char_traits@D@std@@V?$allocator@D@2@@std@@V?$weak_ptr@VRawImageData@@@2@@std@@PAX@std@@@1@QAU?$pair@$$CBV?$basic_string@DU?$char_traits@D@std@@V?$allocator@D@2@@std@@V?$weak_ptr@VRawImageData@@@2@@1@@Z 0040ce60 f i controller.obj
 0001:0000be80       ??$emplace@U?$pair@V?$basic_string@DU?$char_traits@D@std@@V?$allocator@D@2@@std@@V?$shared_ptr@VRawImageData@@@2@@std@@@?$_Tree@V?$_Tmap_traits@V?$basic_string@DU?$char_traits@D@std@@V?$allocator@D@2@@std@@V?$shared_ptr@VRawImageData@@@2@U?$less@V?$basic_string@DU?$char_traits@D@std@@V?$allocator@D@2@@std@@@2@V?$allocator@U?$pair@$$CBV?$basic_string@DU?$char_traits@D@std@@V?$allocator@D@2@@std@@V?$shared_ptr@VRawImageData@@@2@@std@@@2@$0A@@std@@@std@@QAE?AU?$pair@V?$_Tree_iterator@V?$_Tree_val@U?$_Tree_simple_types@U?$pair@$$CBV?$basic_string@DU?$char_traits@D@std@@V?$allocator@D@2@@std@@V?$shared_ptr@VRawImageData@@@2@@std@@@std@@@std@@@std@@_N@1@$$QAU?$pair@V?$basic_string@DU?$char_traits@D@std@@V?$allocator@D@2@@std@@V?$shared_ptr@VRawImageData@@@2@@1@@Z 0040ce80 f i controller.obj
 0001:0000bf10       ??$emplace@U?$pair@V?$basic_string@DU?$char_traits@D@std@@V?$allocator@D@2@@std@@V?$weak_ptr@VRawImageData@@@2@@std@@@?$_Tree@V?$_Tmap_traits@V?$basic_string@DU?$char_traits@D@std@@V?$allocator@D@2@@std@@V?$weak_ptr@VRawImageData@@@2@U?$less@V?$basic_string@DU?$char_traits@D@std@@V?$allocator@D@2@@std@@@2@V?$allocator@U?$pair@$$CBV?$basic_string@DU?$char_traits@D@std@@V?$allocator@D@2@@std@@V?$weak_ptr@VRawImageData@@@2@@std@@@2@$0A@@std@@@std@@QAE?AU?$pair@V?$_Tree_iterator@V?$_Tree_val@U?$_Tree_simple_types@U?$pair@$$CBV?$basic_string@DU?$char_traits@D@std@@V?$allocator@D@2@@std@@V?$weak_ptr@VRawImageData@@@2@@std@@@std@@@std@@@std@@_N@1@$$QAU?$pair@V?$basic_string@DU?$char_traits@D@std@@V?$allocator@D@2@@std@@V?$weak_ptr@VRawImageData@@@2@@1@@Z 0040cf10 f i controller.obj
 0001:0000bfa0       ??$endl@DU?$char_traits@D@std@@@std@@YAAAV?$basic_ostream@DU?$char_traits@D@std@@@0@AAV10@@Z 0040cfa0 f i controller.obj
 0001:0000bfe0       ??$erase@V?$_Tree_iterator@V?$_Tree_val@U?$_Tree_simple_types@U?$pair@$$CBV?$basic_string@DU?$char_traits@D@std@@V?$allocator@D@2@@std@@V?$weak_ptr@VRawImageData@@@2@@std@@@std@@@std@@@std@@$0A@@?$_Tree@V?$_Tmap_traits@V?$basic_string@DU?$char_traits@D@std@@V?$allocator@D@2@@std@@V?$weak_ptr@VRawImageData@@@2@U?$less@V?$basic_string@DU?$char_traits@D@std@@V?$allocator@D@2@@std@@@2@V?$allocator@U?$pair@$$CBV?$basic_string@DU?$char_traits@D@std@@V?$allocator@D@2@@std@@V?$weak_ptr@VRawImageData@@@2@@std@@@2@$0A@@std@@@std@@QAE?AV?$_Tree_iterator@V?$_Tree_val@U?$_Tree_simple_types@U?$pair@$$CBV?$basic_string@DU?$char_traits@D@std@@V?$allocator@D@2@@std@@V?$weak_ptr@VRawImageData@@@2@@std@@@std@@@std@@@1@V21@@Z 0040cfe0 f i controller.obj
 0001:0000c160       ??$exchange@PAU?$_Tree_node@U?$pair@$$CBV?$basic_string@DU?$char_traits@D@std@@V?$allocator@D@2@@std@@V?$shared_ptr@VRawImageData@@@2@@std@@PAX@std@@$$T@std@@YAPAU?$_Tree_node@U?$pair@$$CBV?$basic_string@DU?$char_traits@D@std@@V?$allocator@D@2@@std@@V?$shared_ptr@VRawImageData@@@2@@std@@PAX@0@AAPAU10@$$QA$$T@Z 0040d160 f i controller.obj
 0001:0000c190       ??$exchange@PAU?$_Tree_node@U?$pair@$$CBV?$basic_string@DU?$char_traits@D@std@@V?$allocator@D@2@@std@@V?$shared_ptr@VRawImageData@@@2@@std@@PAX@std@@AAPAU12@@std@@YAPAU?$_Tree_node@U?$pair@$$CBV?$basic_string@DU?$char_traits@D@std@@V?$allocator@D@2@@std@@V?$shared_ptr@VRawImageData@@@2@@std@@PAX@0@AAPAU10@0@Z 0040d190 f i controller.obj
 0001:0000c1c0       ??$exchange@PAU?$_Tree_node@U?$pair@$$CBV?$basic_string@DU?$char_traits@D@std@@V?$allocator@D@2@@std@@V?$weak_ptr@VRawImageData@@@2@@std@@PAX@std@@$$T@std@@YAPAU?$_Tree_node@U?$pair@$$CBV?$basic_string@DU?$char_traits@D@std@@V?$allocator@D@2@@std@@V?$weak_ptr@VRawImageData@@@2@@std@@PAX@0@AAPAU10@$$QA$$T@Z 0040d1c0 f i controller.obj
 0001:0000c1f0       ??$exchange@PAU?$_Tree_node@U?$pair@$$CBV?$basic_string@DU?$char_traits@D@std@@V?$allocator@D@2@@std@@V?$weak_ptr@VRawImageData@@@2@@std@@PAX@std@@AAPAU12@@std@@YAPAU?$_Tree_node@U?$pair@$$CBV?$basic_string@DU?$char_traits@D@std@@V?$allocator@D@2@@std@@V?$weak_ptr@VRawImageData@@@2@@std@@PAX@0@AAPAU10@0@Z 0040d1f0 f i controller.obj
 0001:0000c220       ??$forward@AAPAU?$_Tree_node@U?$pair@$$CBV?$basic_string@DU?$char_traits@D@std@@V?$allocator@D@2@@std@@V?$shared_ptr@VRawImageData@@@2@@std@@PAX@std@@@std@@YAAAPAU?$_Tree_node@U?$pair@$$CBV?$basic_string@DU?$char_traits@D@std@@V?$allocator@D@2@@std@@V?$shared_ptr@VRawImageData@@@2@@std@@PAX@0@AAPAU10@@Z 0040d220 f i controller.obj
 0001:0000c230       ??$forward@AAPAU?$_Tree_node@U?$pair@$$CBV?$basic_string@DU?$char_traits@D@std@@V?$allocator@D@2@@std@@V?$weak_ptr@VRawImageData@@@2@@std@@PAX@std@@@std@@YAAAPAU?$_Tree_node@U?$pair@$$CBV?$basic_string@DU?$char_traits@D@std@@V?$allocator@D@2@@std@@V?$weak_ptr@VRawImageData@@@2@@std@@PAX@0@AAPAU10@@Z 0040d230 f i controller.obj
 0001:0000c240       ??$forward@AAV?$basic_string@DU?$char_traits@D@std@@V?$allocator@D@2@@std@@@std@@YAAAV?$basic_string@DU?$char_traits@D@std@@V?$allocator@D@2@@0@AAV10@@Z 0040d240 f i controller.obj
 0001:0000c250       ??$forward@AAV?$shared_ptr@VRawImageData@@@std@@@std@@YAAAV?$shared_ptr@VRawImageData@@@0@AAV10@@Z 0040d250 f i controller.obj
 0001:0000c260       ??$forward@AAV?$weak_ptr@VRawImageData@@@std@@@std@@YAAAV?$weak_ptr@VRawImageData@@@0@AAV10@@Z 0040d260 f i controller.obj
 0001:0000c270       ??$forward@ABQAU?$_Tree_node@U?$pair@$$CBV?$basic_string@DU?$char_traits@D@std@@V?$allocator@D@2@@std@@V?$shared_ptr@VRawImageData@@@2@@std@@PAX@std@@@std@@YAABQAU?$_Tree_node@U?$pair@$$CBV?$basic_string@DU?$char_traits@D@std@@V?$allocator@D@2@@std@@V?$shared_ptr@VRawImageData@@@2@@std@@PAX@0@ABQAU10@@Z 0040d270 f i controller.obj
 0001:0000c280       ??$forward@ABQAU?$_Tree_node@U?$pair@$$CBV?$basic_string@DU?$char_traits@D@std@@V?$allocator@D@2@@std@@V?$weak_ptr@VRawImageData@@@2@@std@@PAX@std@@@std@@YAABQAU?$_Tree_node@U?$pair@$$CBV?$basic_string@DU?$char_traits@D@std@@V?$allocator@D@2@@std@@V?$weak_ptr@VRawImageData@@@2@@std@@PAX@0@ABQAU10@@Z 0040d280 f i controller.obj
 0001:0000c290       ??$forward@ABU?$less@V?$basic_string@DU?$char_traits@D@std@@V?$allocator@D@2@@std@@@std@@@std@@YAABU?$less@V?$basic_string@DU?$char_traits@D@std@@V?$allocator@D@2@@std@@@0@ABU10@@Z 0040d290 f i controller.obj
 0001:0000c2a0       ??$forward@AB_N@std@@YAAB_NAB_N@Z 0040d2a0 f i controller.obj
 0001:0000c2b0       ??$forward@PAU?$_Tree_node@U?$pair@$$CBV?$basic_string@DU?$char_traits@D@std@@V?$allocator@D@2@@std@@V?$shared_ptr@VRawImageData@@@2@@std@@PAX@std@@@std@@YA$$QAPAU?$_Tree_node@U?$pair@$$CBV?$basic_string@DU?$char_traits@D@std@@V?$allocator@D@2@@std@@V?$shared_ptr@VRawImageData@@@2@@std@@PAX@0@AAPAU10@@Z 0040d2b0 f i controller.obj
 0001:0000c2c0       ??$forward@PAU?$_Tree_node@U?$pair@$$CBV?$basic_string@DU?$char_traits@D@std@@V?$allocator@D@2@@std@@V?$weak_ptr@VRawImageData@@@2@@std@@PAX@std@@@std@@YA$$QAPAU?$_Tree_node@U?$pair@$$CBV?$basic_string@DU?$char_traits@D@std@@V?$allocator@D@2@@std@@V?$weak_ptr@VRawImageData@@@2@@std@@PAX@0@AAPAU10@@Z 0040d2c0 f i controller.obj
 0001:0000c2d0       ??$forward@U?$pair@V?$basic_string@DU?$char_traits@D@std@@V?$allocator@D@2@@std@@V?$shared_ptr@VRawImageData@@@2@@std@@@std@@YA$$QAU?$pair@V?$basic_string@DU?$char_traits@D@std@@V?$allocator@D@2@@std@@V?$shared_ptr@VRawImageData@@@2@@0@AAU10@@Z 0040d2d0 f i controller.obj
 0001:0000c2e0       ??$forward@U?$pair@V?$basic_string@DU?$char_traits@D@std@@V?$allocator@D@2@@std@@V?$weak_ptr@VRawImageData@@@2@@std@@@std@@YA$$QAU?$pair@V?$basic_string@DU?$char_traits@D@std@@V?$allocator@D@2@@std@@V?$weak_ptr@VRawImageData@@@2@@0@AAU10@@Z 0040d2e0 f i controller.obj
 0001:0000c2f0       ??$forward@U_Zero_then_variadic_args_t@std@@@std@@YA$$QAU_Zero_then_variadic_args_t@0@AAU10@@Z 0040d2f0 f i controller.obj
 0001:0000c300       ??$forward@V?$_Tree_iterator@V?$_Tree_val@U?$_Tree_simple_types@U?$pair@$$CBV?$basic_string@DU?$char_traits@D@std@@V?$allocator@D@2@@std@@V?$shared_ptr@VRawImageData@@@2@@std@@@std@@@std@@@std@@@std@@YA$$QAV?$_Tree_iterator@V?$_Tree_val@U?$_Tree_simple_types@U?$pair@$$CBV?$basic_string@DU?$char_traits@D@std@@V?$allocator@D@2@@std@@V?$shared_ptr@VRawImageData@@@2@@std@@@std@@@std@@@0@AAV10@@Z 0040d300 f i controller.obj
 0001:0000c310       ??$forward@V?$_Tree_iterator@V?$_Tree_val@U?$_Tree_simple_types@U?$pair@$$CBV?$basic_string@DU?$char_traits@D@std@@V?$allocator@D@2@@std@@V?$weak_ptr@VRawImageData@@@2@@std@@@std@@@std@@@std@@@std@@YA$$QAV?$_Tree_iterator@V?$_Tree_val@U?$_Tree_simple_types@U?$pair@$$CBV?$basic_string@DU?$char_traits@D@std@@V?$allocator@D@2@@std@@V?$weak_ptr@VRawImageData@@@2@@std@@@std@@@std@@@0@AAV10@@Z 0040d310 f i controller.obj
 0001:0000c320       ??$forward@V?$allocator@D@std@@@std@@YA$$QAV?$allocator@D@0@AAV10@@Z 0040d320 f i controller.obj
 0001:0000c330       ??$forward@V?$basic_string@DU?$char_traits@D@std@@V?$allocator@D@2@@std@@@std@@YA$$QAV?$basic_string@DU?$char_traits@D@std@@V?$allocator@D@2@@0@AAV10@@Z 0040d330 f i controller.obj
 0001:0000c340       ??$forward@V?$shared_ptr@VRawImageData@@@std@@@std@@YA$$QAV?$shared_ptr@VRawImageData@@@0@AAV10@@Z 0040d340 f i controller.obj
 0001:0000c350       ??$forward@V?$weak_ptr@VRawImageData@@@std@@@std@@YA$$QAV?$weak_ptr@VRawImageData@@@0@AAV10@@Z 0040d350 f i controller.obj
 0001:0000c360       ??$forward@_N@std@@YA$$QA_NAA_N@Z 0040d360 f i controller.obj
 0001:0000c370       ??$insert@U?$pair@V?$basic_string@DU?$char_traits@D@std@@V?$allocator@D@2@@std@@V?$shared_ptr@VRawImageData@@@2@@std@@$0A@@?$map@V?$basic_string@DU?$char_traits@D@std@@V?$allocator@D@2@@std@@V?$shared_ptr@VRawImageData@@@2@U?$less@V?$basic_string@DU?$char_traits@D@std@@V?$allocator@D@2@@std@@@2@V?$allocator@U?$pair@$$CBV?$basic_string@DU?$char_traits@D@std@@V?$allocator@D@2@@std@@V?$shared_ptr@VRawImageData@@@2@@std@@@2@@std@@QAE?AU?$pair@V?$_Tree_iterator@V?$_Tree_val@U?$_Tree_simple_types@U?$pair@$$CBV?$basic_string@DU?$char_traits@D@std@@V?$allocator@D@2@@std@@V?$shared_ptr@VRawImageData@@@2@@std@@@std@@@std@@@std@@_N@1@$$QAU?$pair@V?$basic_string@DU?$char_traits@D@std@@V?$allocator@D@2@@std@@V?$shared_ptr@VRawImageData@@@2@@1@@Z 0040d370 f i controller.obj
 0001:0000c3c0       ??$insert@U?$pair@V?$basic_string@DU?$char_traits@D@std@@V?$allocator@D@2@@std@@V?$weak_ptr@VRawImageData@@@2@@std@@$0A@@?$map@V?$basic_string@DU?$char_traits@D@std@@V?$allocator@D@2@@std@@V?$weak_ptr@VRawImageData@@@2@U?$less@V?$basic_string@DU?$char_traits@D@std@@V?$allocator@D@2@@std@@@2@V?$allocator@U?$pair@$$CBV?$basic_string@DU?$char_traits@D@std@@V?$allocator@D@2@@std@@V?$weak_ptr@VRawImageData@@@2@@std@@@2@@std@@QAE?AU?$pair@V?$_Tree_iterator@V?$_Tree_val@U?$_Tree_simple_types@U?$pair@$$CBV?$basic_string@DU?$char_traits@D@std@@V?$allocator@D@2@@std@@V?$weak_ptr@VRawImageData@@@2@@std@@@std@@@std@@@std@@_N@1@$$QAU?$pair@V?$basic_string@DU?$char_traits@D@std@@V?$allocator@D@2@@std@@V?$weak_ptr@VRawImageData@@@2@@1@@Z 0040d3c0 f i controller.obj
 0001:0000c410       ??$move@AAD@std@@YA$$QADAAD@Z 0040d410 f i controller.obj
 0001:0000c420       ??$move@AAPAVRawImageData@@@std@@YA$$QAPAVRawImageData@@AAPAV1@@Z 0040d420 f i controller.obj
 0001:0000c430       ??$move@AAPAV_Ref_count_base@std@@@std@@YA$$QAPAV_Ref_count_base@0@AAPAV10@@Z 0040d430 f i controller.obj
 0001:0000c440       ??$move@AAV?$allocator@D@std@@@std@@YA$$QAV?$allocator@D@0@AAV10@@Z 0040d440 f i controller.obj
 0001:0000c450       ??$move@AAV?$basic_string@DU?$char_traits@D@std@@V?$allocator@D@2@@std@@@std@@YA$$QAV?$basic_string@DU?$char_traits@D@std@@V?$allocator@D@2@@0@AAV10@@Z 0040d450 f i controller.obj
 0001:0000c460       ??$move@AAV?$shared_ptr@VRawImageData@@@std@@@std@@YA$$QAV?$shared_ptr@VRawImageData@@@0@AAV10@@Z 0040d460 f i controller.obj
 0001:0000c470       ??$move@AAV?$weak_ptr@VRawImageData@@@std@@@std@@YA$$QAV?$weak_ptr@VRawImageData@@@0@AAV10@@Z 0040d470 f i controller.obj
 0001:0000c480       ??$swap@D$0A@@std@@YAXAAD0@Z 0040d480 f i controller.obj
 0001:0000c4d0       ??$swap@PAVRawImageData@@$0A@@std@@YAXAAPAVRawImageData@@0@Z 0040d4d0 f i controller.obj
 0001:0000c520       ??$swap@PAV_Ref_count_base@std@@$0A@@std@@YAXAAPAV_Ref_count_base@0@0@Z 0040d520 f i controller.obj
 0001:0000c570       ??0?$_Alloc_construct_ptr@V?$allocator@U?$_Tree_node@U?$pair@$$CBV?$basic_string@DU?$char_traits@D@std@@V?$allocator@D@2@@std@@V?$shared_ptr@VRawImageData@@@2@@std@@PAX@std@@@std@@@std@@QAE@AAV?$allocator@U?$_Tree_node@U?$pair@$$CBV?$basic_string@DU?$char_traits@D@std@@V?$allocator@D@2@@std@@V?$shared_ptr@VRawImageData@@@2@@std@@PAX@std@@@1@@Z 0040d570 f i controller.obj
 0001:0000c5a0       ??0?$_Alloc_construct_ptr@V?$allocator@U?$_Tree_node@U?$pair@$$CBV?$basic_string@DU?$char_traits@D@std@@V?$allocator@D@2@@std@@V?$weak_ptr@VRawImageData@@@2@@std@@PAX@std@@@std@@@std@@QAE@AAV?$allocator@U?$_Tree_node@U?$pair@$$CBV?$basic_string@DU?$char_traits@D@std@@V?$allocator@D@2@@std@@V?$weak_ptr@VRawImageData@@@2@@std@@PAX@std@@@1@@Z 0040d5a0 f i controller.obj
 0001:0000c5d0       ??0?$_Ptr_base@VRawImageData@@@std@@IAE@XZ 0040d5d0 f i controller.obj
 0001:0000c600       ??0?$_Ref_count@VRawImageData@@@std@@QAE@PAVRawImageData@@@Z 0040d600 f i controller.obj
 0001:0000c650       ??0?$_Temporary_owner@VRawImageData@@@std@@QAE@QAVRawImageData@@@Z 0040d650 f i controller.obj
 0001:0000c670       ??0?$_Tree@V?$_Tmap_traits@V?$basic_string@DU?$char_traits@D@std@@V?$allocator@D@2@@std@@V?$shared_ptr@VRawImageData@@@2@U?$less@V?$basic_string@DU?$char_traits@D@std@@V?$allocator@D@2@@std@@@2@V?$allocator@U?$pair@$$CBV?$basic_string@DU?$char_traits@D@std@@V?$allocator@D@2@@std@@V?$shared_ptr@VRawImageData@@@2@@std@@@2@$0A@@std@@@std@@QAE@ABU?$less@V?$basic_string@DU?$char_traits@D@std@@V?$allocator@D@2@@std@@@1@@Z 0040d670 f i controller.obj
 0001:0000c6b0       ??0?$_Tree@V?$_Tmap_traits@V?$basic_string@DU?$char_traits@D@std@@V?$allocator@D@2@@std@@V?$weak_ptr@VRawImageData@@@2@U?$less@V?$basic_string@DU?$char_traits@D@std@@V?$allocator@D@2@@std@@@2@V?$allocator@U?$pair@$$CBV?$basic_string@DU?$char_traits@D@std@@V?$allocator@D@2@@std@@V?$weak_ptr@VRawImageData@@@2@@std@@@2@$0A@@std@@@std@@QAE@ABU?$less@V?$basic_string@DU?$char_traits@D@std@@V?$allocator@D@2@@std@@@1@@Z 0040d6b0 f i controller.obj
 0001:0000c6f0       ??0?$_Tree_const_iterator@V?$_Tree_val@U?$_Tree_simple_types@U?$pair@$$CBV?$basic_string@DU?$char_traits@D@std@@V?$allocator@D@2@@std@@V?$shared_ptr@VRawImageData@@@2@@std@@@std@@@std@@@std@@QAE@$$QAV01@@Z 0040d6f0 f i controller.obj
 0001:0000c720       ??0?$_Tree_const_iterator@V?$_Tree_val@U?$_Tree_simple_types@U?$pair@$$CBV?$basic_string@DU?$char_traits@D@std@@V?$allocator@D@2@@std@@V?$shared_ptr@VRawImageData@@@2@@std@@@std@@@std@@@std@@QAE@PAU?$_Tree_node@U?$pair@$$CBV?$basic_string@DU?$char_traits@D@std@@V?$allocator@D@2@@std@@V?$shared_ptr@VRawImageData@@@2@@std@@PAX@1@PBV?$_Tree_val@U?$_Tree_simple_types@U?$pair@$$CBV?$basic_string@DU?$char_traits@D@std@@V?$allocator@D@2@@std@@V?$shared_ptr@VRawImageData@@@2@@std@@@std@@@1@@Z 0040d720 f i controller.obj
 0001:0000c750       ??0?$_Tree_const_iterator@V?$_Tree_val@U?$_Tree_simple_types@U?$pair@$$CBV?$basic_string@DU?$char_traits@D@std@@V?$allocator@D@2@@std@@V?$weak_ptr@VRawImageData@@@2@@std@@@std@@@std@@@std@@QAE@$$QAV01@@Z 0040d750 f i controller.obj
 0001:0000c780       ??0?$_Tree_const_iterator@V?$_Tree_val@U?$_Tree_simple_types@U?$pair@$$CBV?$basic_string@DU?$char_traits@D@std@@V?$allocator@D@2@@std@@V?$weak_ptr@VRawImageData@@@2@@std@@@std@@@std@@@std@@QAE@ABV01@@Z 0040d780 f i controller.obj
 0001:0000c7b0       ??0?$_Tree_const_iterator@V?$_Tree_val@U?$_Tree_simple_types@U?$pair@$$CBV?$basic_string@DU?$char_traits@D@std@@V?$allocator@D@2@@std@@V?$weak_ptr@VRawImageData@@@2@@std@@@std@@@std@@@std@@QAE@PAU?$_Tree_node@U?$pair@$$CBV?$basic_string@DU?$char_traits@D@std@@V?$allocator@D@2@@std@@V?$weak_ptr@VRawImageData@@@2@@std@@PAX@1@PBV?$_Tree_val@U?$_Tree_simple_types@U?$pair@$$CBV?$basic_string@DU?$char_traits@D@std@@V?$allocator@D@2@@std@@V?$weak_ptr@VRawImageData@@@2@@std@@@std@@@1@@Z 0040d7b0 f i controller.obj
 0001:0000c7e0       ??0?$_Tree_iterator@V?$_Tree_val@U?$_Tree_simple_types@U?$pair@$$CBV?$basic_string@DU?$char_traits@D@std@@V?$allocator@D@2@@std@@V?$shared_ptr@VRawImageData@@@2@@std@@@std@@@std@@@std@@QAE@$$QAV01@@Z 0040d7e0 f i controller.obj
 0001:0000c810       ??0?$_Tree_iterator@V?$_Tree_val@U?$_Tree_simple_types@U?$pair@$$CBV?$basic_string@DU?$char_traits@D@std@@V?$allocator@D@2@@std@@V?$shared_ptr@VRawImageData@@@2@@std@@@std@@@std@@@std@@QAE@PAU?$_Tree_node@U?$pair@$$CBV?$basic_string@DU?$char_traits@D@std@@V?$allocator@D@2@@std@@V?$shared_ptr@VRawImageData@@@2@@std@@PAX@1@PBV?$_Tree_val@U?$_Tree_simple_types@U?$pair@$$CBV?$basic_string@DU?$char_traits@D@std@@V?$allocator@D@2@@std@@V?$shared_ptr@VRawImageData@@@2@@std@@@std@@@1@@Z 0040d810 f i controller.obj
 0001:0000c840       ??0?$_Tree_iterator@V?$_Tree_val@U?$_Tree_simple_types@U?$pair@$$CBV?$basic_string@DU?$char_traits@D@std@@V?$allocator@D@2@@std@@V?$weak_ptr@VRawImageData@@@2@@std@@@std@@@std@@@std@@QAE@$$QAV01@@Z 0040d840 f i controller.obj
 0001:0000c870       ??0?$_Tree_iterator@V?$_Tree_val@U?$_Tree_simple_types@U?$pair@$$CBV?$basic_string@DU?$char_traits@D@std@@V?$allocator@D@2@@std@@V?$weak_ptr@VRawImageData@@@2@@std@@@std@@@std@@@std@@QAE@ABV01@@Z 0040d870 f i controller.obj
 0001:0000c8a0       ??0?$_Tree_iterator@V?$_Tree_val@U?$_Tree_simple_types@U?$pair@$$CBV?$basic_string@DU?$char_traits@D@std@@V?$allocator@D@2@@std@@V?$weak_ptr@VRawImageData@@@2@@std@@@std@@@std@@@std@@QAE@PAU?$_Tree_node@U?$pair@$$CBV?$basic_string@DU?$char_traits@D@std@@V?$allocator@D@2@@std@@V?$weak_ptr@VRawImageData@@@2@@std@@PAX@1@PBV?$_Tree_val@U?$_Tree_simple_types@U?$pair@$$CBV?$basic_string@DU?$char_traits@D@std@@V?$allocator@D@2@@std@@V?$weak_ptr@VRawImageData@@@2@@std@@@std@@@1@@Z 0040d8a0 f i controller.obj
 0001:0000c8d0       ??0?$_Tree_temp_node_alloc@V?$allocator@U?$_Tree_node@U?$pair@$$CBV?$basic_string@DU?$char_traits@D@std@@V?$allocator@D@2@@std@@V?$shared_ptr@VRawImageData@@@2@@std@@PAX@std@@@std@@@std@@QAE@AAV?$allocator@U?$_Tree_node@U?$pair@$$CBV?$basic_string@DU?$char_traits@D@std@@V?$allocator@D@2@@std@@V?$shared_ptr@VRawImageData@@@2@@std@@PAX@std@@@1@@Z 0040d8d0 f i controller.obj
 0001:0000c950       ??0?$_Tree_temp_node_alloc@V?$allocator@U?$_Tree_node@U?$pair@$$CBV?$basic_string@DU?$char_traits@D@std@@V?$allocator@D@2@@std@@V?$weak_ptr@VRawImageData@@@2@@std@@PAX@std@@@std@@@std@@QAE@AAV?$allocator@U?$_Tree_node@U?$pair@$$CBV?$basic_string@DU?$char_traits@D@std@@V?$allocator@D@2@@std@@V?$weak_ptr@VRawImageData@@@2@@std@@PAX@std@@@1@@Z 0040d950 f i controller.obj
 0001:0000c9d0       ??0?$_Tree_unchecked_const_iterator@V?$_Tree_val@U?$_Tree_simple_types@U?$pair@$$CBV?$basic_string@DU?$char_traits@D@std@@V?$allocator@D@2@@std@@V?$shared_ptr@VRawImageData@@@2@@std@@@std@@@std@@U_Iterator_base12@2@@std@@QAE@$$QAV01@@Z 0040d9d0 f i controller.obj
 0001:0000ca10       ??0?$_Tree_unchecked_const_iterator@V?$_Tree_val@U?$_Tree_simple_types@U?$pair@$$CBV?$basic_string@DU?$char_traits@D@std@@V?$allocator@D@2@@std@@V?$shared_ptr@VRawImageData@@@2@@std@@@std@@@std@@U_Iterator_base12@2@@std@@QAE@PAU?$_Tree_node@U?$pair@$$CBV?$basic_string@DU?$char_traits@D@std@@V?$allocator@D@2@@std@@V?$shared_ptr@VRawImageData@@@2@@std@@PAX@1@PBV?$_Tree_val@U?$_Tree_simple_types@U?$pair@$$CBV?$basic_string@DU?$char_traits@D@std@@V?$allocator@D@2@@std@@V?$shared_ptr@VRawImageData@@@2@@std@@@std@@@1@@Z 0040da10 f i controller.obj
 0001:0000ca50       ??0?$_Tree_unchecked_const_iterator@V?$_Tree_val@U?$_Tree_simple_types@U?$pair@$$CBV?$basic_string@DU?$char_traits@D@std@@V?$allocator@D@2@@std@@V?$weak_ptr@VRawImageData@@@2@@std@@@std@@@std@@U_Iterator_base0@2@@std@@QAE@PAU?$_Tree_node@U?$pair@$$CBV?$basic_string@DU?$char_traits@D@std@@V?$allocator@D@2@@std@@V?$weak_ptr@VRawImageData@@@2@@std@@PAX@1@PBV?$_Tree_val@U?$_Tree_simple_types@U?$pair@$$CBV?$basic_string@DU?$char_traits@D@std@@V?$allocator@D@2@@std@@V?$weak_ptr@VRawImageData@@@2@@std@@@std@@@1@@Z 0040da50 f i controller.obj
 0001:0000ca80       ??0?$_Tree_unchecked_const_iterator@V?$_Tree_val@U?$_Tree_simple_types@U?$pair@$$CBV?$basic_string@DU?$char_traits@D@std@@V?$allocator@D@2@@std@@V?$weak_ptr@VRawImageData@@@2@@std@@@std@@@std@@U_Iterator_base12@2@@std@@QAE@$$QAV01@@Z 0040da80 f i controller.obj
 0001:0000cac0       ??0?$_Tree_unchecked_const_iterator@V?$_Tree_val@U?$_Tree_simple_types@U?$pair@$$CBV?$basic_string@DU?$char_traits@D@std@@V?$allocator@D@2@@std@@V?$weak_ptr@VRawImageData@@@2@@std@@@std@@@std@@U_Iterator_base12@2@@std@@QAE@ABV01@@Z 0040dac0 f i controller.obj
 0001:0000cb00       ??0?$_Tree_unchecked_const_iterator@V?$_Tree_val@U?$_Tree_simple_types@U?$pair@$$CBV?$basic_string@DU?$char_traits@D@std@@V?$allocator@D@2@@std@@V?$weak_ptr@VRawImageData@@@2@@std@@@std@@@std@@U_Iterator_base12@2@@std@@QAE@PAU?$_Tree_node@U?$pair@$$CBV?$basic_string@DU?$char_traits@D@std@@V?$allocator@D@2@@std@@V?$weak_ptr@VRawImageData@@@2@@std@@PAX@1@PBV?$_Tree_val@U?$_Tree_simple_types@U?$pair@$$CBV?$basic_string@DU?$char_traits@D@std@@V?$allocator@D@2@@std@@V?$weak_ptr@VRawImageData@@@2@@std@@@std@@@1@@Z 0040db00 f i controller.obj
 0001:0000cb40       ??0?$_Tree_unchecked_iterator@V?$_Tree_val@U?$_Tree_simple_types@U?$pair@$$CBV?$basic_string@DU?$char_traits@D@std@@V?$allocator@D@2@@std@@V?$weak_ptr@VRawImageData@@@2@@std@@@std@@@std@@@std@@QAE@PAU?$_Tree_node@U?$pair@$$CBV?$basic_string@DU?$char_traits@D@std@@V?$allocator@D@2@@std@@V?$weak_ptr@VRawImageData@@@2@@std@@PAX@1@PBV?$_Tree_val@U?$_Tree_simple_types@U?$pair@$$CBV?$basic_string@DU?$char_traits@D@std@@V?$allocator@D@2@@std@@V?$weak_ptr@VRawImageData@@@2@@std@@@std@@@1@@Z 0040db40 f i controller.obj
 0001:0000cb70       ??0?$_Tree_val@U?$_Tree_simple_types@U?$pair@$$CBV?$basic_string@DU?$char_traits@D@std@@V?$allocator@D@2@@std@@V?$shared_ptr@VRawImageData@@@2@@std@@@std@@@std@@QAE@XZ 0040db70 f i controller.obj
 0001:0000cbb0       ??0?$_Tree_val@U?$_Tree_simple_types@U?$pair@$$CBV?$basic_string@DU?$char_traits@D@std@@V?$allocator@D@2@@std@@V?$weak_ptr@VRawImageData@@@2@@std@@@std@@@std@@QAE@XZ 0040dbb0 f i controller.obj
 0001:0000cbf0       ??0?$allocator@U?$_Tree_node@U?$pair@$$CBV?$basic_string@DU?$char_traits@D@std@@V?$allocator@D@2@@std@@V?$shared_ptr@VRawImageData@@@2@@std@@PAX@std@@@std@@QAE@XZ 0040dbf0 f i controller.obj
 0001:0000cc10       ??0?$allocator@U?$_Tree_node@U?$pair@$$CBV?$basic_string@DU?$char_traits@D@std@@V?$allocator@D@2@@std@@V?$weak_ptr@VRawImageData@@@2@@std@@PAX@std@@@std@@QAE@XZ 0040dc10 f i controller.obj
 0001:0000cc30       ??0?$basic_string@DU?$char_traits@D@std@@V?$allocator@D@2@@std@@QAE@$$QAV01@@Z 0040dc30 f i controller.obj
 0001:0000cce0       ??0?$basic_string@DU?$char_traits@D@std@@V?$allocator@D@2@@std@@QAE@ABV01@@Z 0040dce0 f i controller.obj
 0001:0000cdd0       ??0?$basic_string@DU?$char_traits@D@std@@V?$allocator@D@2@@std@@QAE@XZ 0040ddd0 f i controller.obj
 0001:0000ce60       ??0?$map@V?$basic_string@DU?$char_traits@D@std@@V?$allocator@D@2@@std@@V?$shared_ptr@VRawImageData@@@2@U?$less@V?$basic_string@DU?$char_traits@D@std@@V?$allocator@D@2@@std@@@2@V?$allocator@U?$pair@$$CBV?$basic_string@DU?$char_traits@D@std@@V?$allocator@D@2@@std@@V?$shared_ptr@VRawImageData@@@2@@std@@@2@@std@@QAE@XZ 0040de60 f i controller.obj
 0001:0000ce90       ??0?$map@V?$basic_string@DU?$char_traits@D@std@@V?$allocator@D@2@@std@@V?$weak_ptr@VRawImageData@@@2@U?$less@V?$basic_string@DU?$char_traits@D@std@@V?$allocator@D@2@@std@@@2@V?$allocator@U?$pair@$$CBV?$basic_string@DU?$char_traits@D@std@@V?$allocator@D@2@@std@@V?$weak_ptr@VRawImageData@@@2@@std@@@2@@std@@QAE@XZ 0040de90 f i controller.obj
 0001:0000cec0       ??0?$shared_ptr@VRawImageData@@@std@@QAE@$$QAV01@@Z 0040dec0 f i controller.obj
 0001:0000cf00       ??0?$shared_ptr@VRawImageData@@@std@@QAE@$$T@Z 0040df00 f i controller.obj
 0001:0000cf20       ??0?$shared_ptr@VRawImageData@@@std@@QAE@ABV01@@Z 0040df20 f i controller.obj
 0001:0000cf50       ??0?$shared_ptr@VRawImageData@@@std@@QAE@XZ 0040df50 f i controller.obj
 0001:0000cf70       ??0?$weak_ptr@VRawImageData@@@std@@QAE@$$QAV01@@Z 0040df70 f i controller.obj
 0001:0000cfb0       ??0?$weak_ptr@VRawImageData@@@std@@QAE@ABV01@@Z 0040dfb0 f i controller.obj
 0001:0000cfe0       ??0ImageManager@@QAE@XZ    0040dfe0 f i controller.obj
 0001:0000d060       ??0RawImageData@@QAE@V?$basic_string@DU?$char_traits@D@std@@V?$allocator@D@2@@std@@@Z 0040e060 f i controller.obj
 0001:0000d110       ??0_Iterator_base12@std@@QAE@ABU01@@Z 0040e110 f i controller.obj
 0001:0000d150       ??0_Iterator_base12@std@@QAE@XZ 0040e150 f i controller.obj
 0001:0000d180       ??0_Ref_count_base@std@@IAE@XZ 0040e180 f i controller.obj
 0001:0000d1b0       ??0_Sentry_base@?$basic_ostream@DU?$char_traits@D@std@@@std@@QAE@AAV12@@Z 0040e1b0 f i controller.obj
 0001:0000d210       ??0sentry@?$basic_ostream@DU?$char_traits@D@std@@@std@@QAE@AAV12@@Z 0040e210 f i controller.obj
 0001:0000d310       ??1?$_Alloc_construct_ptr@V?$allocator@U?$_Tree_node@U?$pair@$$CBV?$basic_string@DU?$char_traits@D@std@@V?$allocator@D@2@@std@@V?$shared_ptr@VRawImageData@@@2@@std@@PAX@std@@@std@@@std@@QAE@XZ 0040e310 f i controller.obj
 0001:0000d380       ??1?$_Alloc_construct_ptr@V?$allocator@U?$_Tree_node@U?$pair@$$CBV?$basic_string@DU?$char_traits@D@std@@V?$allocator@D@2@@std@@V?$weak_ptr@VRawImageData@@@2@@std@@PAX@std@@@std@@@std@@QAE@XZ 0040e380 f i controller.obj
 0001:0000d3f0       ??1?$_Ref_count@VRawImageData@@@std@@UAE@XZ 0040e3f0 f i controller.obj
 0001:0000d410       ??1?$_Temporary_owner@VRawImageData@@@std@@QAE@XZ 0040e410 f i controller.obj
 0001:0000d450       ??1?$_Tree@V?$_Tmap_traits@V?$basic_string@DU?$char_traits@D@std@@V?$allocator@D@2@@std@@V?$shared_ptr@VRawImageData@@@2@U?$less@V?$basic_string@DU?$char_traits@D@std@@V?$allocator@D@2@@std@@@2@V?$allocator@U?$pair@$$CBV?$basic_string@DU?$char_traits@D@std@@V?$allocator@D@2@@std@@V?$shared_ptr@VRawImageData@@@2@@std@@@2@$0A@@std@@@std@@QAE@XZ 0040e450 f i controller.obj
 0001:0000d4c0       ??1?$_Tree@V?$_Tmap_traits@V?$basic_string@DU?$char_traits@D@std@@V?$allocator@D@2@@std@@V?$weak_ptr@VRawImageData@@@2@U?$less@V?$basic_string@DU?$char_traits@D@std@@V?$allocator@D@2@@std@@@2@V?$allocator@U?$pair@$$CBV?$basic_string@DU?$char_traits@D@std@@V?$allocator@D@2@@std@@V?$weak_ptr@VRawImageData@@@2@@std@@@2@$0A@@std@@@std@@QAE@XZ 0040e4c0 f i controller.obj
 0001:0000d530       ??1?$_Tree_const_iterator@V?$_Tree_val@U?$_Tree_simple_types@U?$pair@$$CBV?$basic_string@DU?$char_traits@D@std@@V?$allocator@D@2@@std@@V?$shared_ptr@VRawImageData@@@2@@std@@@std@@@std@@@std@@QAE@XZ 0040e530 f i controller.obj
 0001:0000d550       ??1?$_Tree_const_iterator@V?$_Tree_val@U?$_Tree_simple_types@U?$pair@$$CBV?$basic_string@DU?$char_traits@D@std@@V?$allocator@D@2@@std@@V?$weak_ptr@VRawImageData@@@2@@std@@@std@@@std@@@std@@QAE@XZ 0040e550 f i controller.obj
 0001:0000d570       ??1?$_Tree_iterator@V?$_Tree_val@U?$_Tree_simple_types@U?$pair@$$CBV?$basic_string@DU?$char_traits@D@std@@V?$allocator@D@2@@std@@V?$shared_ptr@VRawImageData@@@2@@std@@@std@@@std@@@std@@QAE@XZ 0040e570 f i controller.obj
 0001:0000d590       ??1?$_Tree_iterator@V?$_Tree_val@U?$_Tree_simple_types@U?$pair@$$CBV?$basic_string@DU?$char_traits@D@std@@V?$allocator@D@2@@std@@V?$weak_ptr@VRawImageData@@@2@@std@@@std@@@std@@@std@@QAE@XZ 0040e590 f i controller.obj
 0001:0000d5b0       ??1?$_Tree_temp_node@V?$allocator@U?$_Tree_node@U?$pair@$$CBV?$basic_string@DU?$char_traits@D@std@@V?$allocator@D@2@@std@@V?$shared_ptr@VRawImageData@@@2@@std@@PAX@std@@@std@@@std@@QAE@XZ 0040e5b0 f i controller.obj
 0001:0000d670       ??1?$_Tree_temp_node@V?$allocator@U?$_Tree_node@U?$pair@$$CBV?$basic_string@DU?$char_traits@D@std@@V?$allocator@D@2@@std@@V?$weak_ptr@VRawImageData@@@2@@std@@PAX@std@@@std@@@std@@QAE@XZ 0040e670 f i controller.obj
 0001:0000d730       ??1?$_Tree_temp_node_alloc@V?$allocator@U?$_Tree_node@U?$pair@$$CBV?$basic_string@DU?$char_traits@D@std@@V?$allocator@D@2@@std@@V?$shared_ptr@VRawImageData@@@2@@std@@PAX@std@@@std@@@std@@QAE@XZ 0040e730 f i controller.obj
 0001:0000d750       ??1?$_Tree_temp_node_alloc@V?$allocator@U?$_Tree_node@U?$pair@$$CBV?$basic_string@DU?$char_traits@D@std@@V?$allocator@D@2@@std@@V?$weak_ptr@VRawImageData@@@2@@std@@PAX@std@@@std@@@std@@QAE@XZ 0040e750 f i controller.obj
 0001:0000d770       ??1?$_Tree_unchecked_const_iterator@V?$_Tree_val@U?$_Tree_simple_types@U?$pair@$$CBV?$basic_string@DU?$char_traits@D@std@@V?$allocator@D@2@@std@@V?$shared_ptr@VRawImageData@@@2@@std@@@std@@@std@@U_Iterator_base12@2@@std@@QAE@XZ 0040e770 f i controller.obj
 0001:0000d790       ??1?$_Tree_unchecked_const_iterator@V?$_Tree_val@U?$_Tree_simple_types@U?$pair@$$CBV?$basic_string@DU?$char_traits@D@std@@V?$allocator@D@2@@std@@V?$weak_ptr@VRawImageData@@@2@@std@@@std@@@std@@U_Iterator_base12@2@@std@@QAE@XZ 0040e790 f i controller.obj
 0001:0000d7b0       ??1?$map@V?$basic_string@DU?$char_traits@D@std@@V?$allocator@D@2@@std@@V?$shared_ptr@VRawImageData@@@2@U?$less@V?$basic_string@DU?$char_traits@D@std@@V?$allocator@D@2@@std@@@2@V?$allocator@U?$pair@$$CBV?$basic_string@DU?$char_traits@D@std@@V?$allocator@D@2@@std@@V?$shared_ptr@VRawImageData@@@2@@std@@@2@@std@@QAE@XZ 0040e7b0 f i controller.obj
 0001:0000d7d0       ??1?$map@V?$basic_string@DU?$char_traits@D@std@@V?$allocator@D@2@@std@@V?$weak_ptr@VRawImageData@@@2@U?$less@V?$basic_string@DU?$char_traits@D@std@@V?$allocator@D@2@@std@@@2@V?$allocator@U?$pair@$$CBV?$basic_string@DU?$char_traits@D@std@@V?$allocator@D@2@@std@@V?$weak_ptr@VRawImageData@@@2@@std@@@2@@std@@QAE@XZ 0040e7d0 f i controller.obj
 0001:0000d7f0       ??1?$pair@$$CBV?$basic_string@DU?$char_traits@D@std@@V?$allocator@D@2@@std@@V?$shared_ptr@VRawImageData@@@2@@std@@QAE@XZ 0040e7f0 f i controller.obj
 0001:0000d820       ??1?$pair@$$CBV?$basic_string@DU?$char_traits@D@std@@V?$allocator@D@2@@std@@V?$weak_ptr@VRawImageData@@@2@@std@@QAE@XZ 0040e820 f i controller.obj
 0001:0000d850       ??1?$pair@V?$_Tree_iterator@V?$_Tree_val@U?$_Tree_simple_types@U?$pair@$$CBV?$basic_string@DU?$char_traits@D@std@@V?$allocator@D@2@@std@@V?$shared_ptr@VRawImageData@@@2@@std@@@std@@@std@@@std@@_N@std@@QAE@XZ 0040e850 f i controller.obj
 0001:0000d870       ??1?$pair@V?$_Tree_iterator@V?$_Tree_val@U?$_Tree_simple_types@U?$pair@$$CBV?$basic_string@DU?$char_traits@D@std@@V?$allocator@D@2@@std@@V?$weak_ptr@VRawImageData@@@2@@std@@@std@@@std@@@std@@_N@std@@QAE@XZ 0040e870 f i controller.obj
 0001:0000d890       ??1?$pair@V?$basic_string@DU?$char_traits@D@std@@V?$allocator@D@2@@std@@V?$shared_ptr@VRawImageData@@@2@@std@@QAE@XZ 0040e890 f i controller.obj
 0001:0000d8c0       ??1?$pair@V?$basic_string@DU?$char_traits@D@std@@V?$allocator@D@2@@std@@V?$weak_ptr@VRawImageData@@@2@@std@@QAE@XZ 0040e8c0 f i controller.obj
 0001:0000d8f0       ??1?$shared_ptr@VRawImageData@@@std@@QAE@XZ 0040e8f0 f i controller.obj
 0001:0000d910       ??1?$weak_ptr@VRawImageData@@@std@@QAE@XZ 0040e910 f i controller.obj
 0001:0000d930       ??1RawImageData@@QAE@XZ    0040e930 f i controller.obj
 0001:0000d990       ??1SimpleImage@@QAE@XZ     0040e990 f i controller.obj
 0001:0000d9e0       ??1_Iterator_base12@std@@QAE@XZ 0040e9e0 f i controller.obj
 0001:0000da20       ??1_Ref_count_base@std@@UAE@XZ 0040ea20 f i controller.obj
 0001:0000da30       ??1_Sentry_base@?$basic_ostream@DU?$char_traits@D@std@@@std@@QAE@XZ 0040ea30 f i controller.obj
 0001:0000dab0       ??1sentry@?$basic_ostream@DU?$char_traits@D@std@@@std@@QAE@XZ 0040eab0 f i controller.obj
 0001:0000db20       ??4?$shared_ptr@VRawImageData@@@std@@QAEAAV01@ABV01@@Z 0040eb20 f i controller.obj
 0001:0000db60       ??4SimpleImage@@QAEAAV0@ABV0@@Z 0040eb60 f i controller.obj
 0001:0000dbb0       ??4_Iterator_base12@std@@QAEAAU01@ABU01@@Z 0040ebb0 f i controller.obj
 0001:0000dc20       ??8?$_Tree_const_iterator@V?$_Tree_val@U?$_Tree_simple_types@U?$pair@$$CBV?$basic_string@DU?$char_traits@D@std@@V?$allocator@D@2@@std@@V?$weak_ptr@VRawImageData@@@2@@std@@@std@@@std@@@std@@QBE_NABV01@@Z 0040ec20 f i controller.obj
 0001:0000dce0       ??9?$_Tree_const_iterator@V?$_Tree_val@U?$_Tree_simple_types@U?$pair@$$CBV?$basic_string@DU?$char_traits@D@std@@V?$allocator@D@2@@std@@V?$weak_ptr@VRawImageData@@@2@@std@@@std@@@std@@@std@@QBE_NABV01@@Z 0040ece0 f i controller.obj
 0001:0000dd30       ??Bsentry@?$basic_ostream@DU?$char_traits@D@std@@@std@@QBE_NXZ 0040ed30 f i controller.obj
 0001:0000dd50       ??C?$_Tree_iterator@V?$_Tree_val@U?$_Tree_simple_types@U?$pair@$$CBV?$basic_string@DU?$char_traits@D@std@@V?$allocator@D@2@@std@@V?$weak_ptr@VRawImageData@@@2@@std@@@std@@@std@@@std@@QBEPAU?$pair@$$CBV?$basic_string@DU?$char_traits@D@std@@V?$allocator@D@2@@std@@V?$weak_ptr@VRawImageData@@@2@@1@XZ 0040ed50 f i controller.obj
 0001:0000dd80       ??D?$_Tree_const_iterator@V?$_Tree_val@U?$_Tree_simple_types@U?$pair@$$CBV?$basic_string@DU?$char_traits@D@std@@V?$allocator@D@2@@std@@V?$weak_ptr@VRawImageData@@@2@@std@@@std@@@std@@@std@@QBEABU?$pair@$$CBV?$basic_string@DU?$char_traits@D@std@@V?$allocator@D@2@@std@@V?$weak_ptr@VRawImageData@@@2@@1@XZ 0040ed80 f i controller.obj
 0001:0000de90       ??D?$_Tree_iterator@V?$_Tree_val@U?$_Tree_simple_types@U?$pair@$$CBV?$basic_string@DU?$char_traits@D@std@@V?$allocator@D@2@@std@@V?$weak_ptr@VRawImageData@@@2@@std@@@std@@@std@@@std@@QBEAAU?$pair@$$CBV?$basic_string@DU?$char_traits@D@std@@V?$allocator@D@2@@std@@V?$weak_ptr@VRawImageData@@@2@@1@XZ 0040ee90 f i controller.obj
 0001:0000deb0       ??E?$_Tree_unchecked_const_iterator@V?$_Tree_val@U?$_Tree_simple_types@U?$pair@$$CBV?$basic_string@DU?$char_traits@D@std@@V?$allocator@D@2@@std@@V?$weak_ptr@VRawImageData@@@2@@std@@@std@@@std@@U_Iterator_base0@2@@std@@QAEAAV01@XZ 0040eeb0 f i controller.obj
 0001:0000df40       ??R<lambda_67d87d4aa1269033985980465fd1d824>@@QBE@QADQBDI@Z 0040ef40 f i controller.obj
 0001:0000df70       ??R<lambda_ab246b20b9526e2ef7792587e4298a77>@@QBE@QADQBDI1I@Z 0040ef70 f i controller.obj
 0001:0000dfe0       ??R?$less@V?$basic_string@DU?$char_traits@D@std@@V?$allocator@D@2@@std@@@std@@QBE_NABV?$basic_string@DU?$char_traits@D@std@@V?$allocator@D@2@@1@0@Z 0040efe0 f i controller.obj
 0001:0000e010       ??Y?$basic_string@DU?$char_traits@D@std@@V?$allocator@D@2@@std@@QAEAAV01@ABV01@@Z 0040f010 f i controller.obj
 0001:0000e030       ??Y?$basic_string@DU?$char_traits@D@std@@V?$allocator@D@2@@std@@QAEAAV01@QBD@Z 0040f030 f i controller.obj
 0001:0000e050       ??_G?$_Ref_count@VRawImageData@@@std@@UAEPAXI@Z 0040f050 f i controller.obj
 0001:0000e050       ??_E?$_Ref_count@VRawImageData@@@std@@UAEPAXI@Z 0040f050 f i controller.obj
 0001:0000e090       ??_G?$pair@$$CBV?$basic_string@DU?$char_traits@D@std@@V?$allocator@D@2@@std@@V?$shared_ptr@VRawImageData@@@2@@std@@QAEPAXI@Z 0040f090 f i controller.obj
 0001:0000e0d0       ??_G?$pair@$$CBV?$basic_string@DU?$char_traits@D@std@@V?$allocator@D@2@@std@@V?$weak_ptr@VRawImageData@@@2@@std@@QAEPAXI@Z 0040f0d0 f i controller.obj
 0001:0000e110       ??_GRawImageData@@QAEPAXI@Z 0040f110 f i controller.obj
 0001:0000e150       ??_Gcontroller@@UAEPAXI@Z  0040f150 f i controller.obj
 0001:0000e150       ??_Econtroller@@UAEPAXI@Z  0040f150 f i controller.obj
 0001:0000e190       ?_Adopt@_Iterator_base0@std@@QAEXPBX@Z 0040f190 f i controller.obj
 0001:0000e1a0       ?_Adopt@_Iterator_base12@std@@QAEXPBU_Container_base12@2@@Z 0040f1a0 f i controller.obj
 0001:0000e240       ?_Alloc_sentinel_and_proxy@?$_Tree@V?$_Tmap_traits@V?$basic_string@DU?$char_traits@D@std@@V?$allocator@D@2@@std@@V?$shared_ptr@VRawImageData@@@2@U?$less@V?$basic_string@DU?$char_traits@D@std@@V?$allocator@D@2@@std@@@2@V?$allocator@U?$pair@$$CBV?$basic_string@DU?$char_traits@D@std@@V?$allocator@D@2@@std@@V?$shared_ptr@VRawImageData@@@2@@std@@@2@$0A@@std@@@std@@IAEXXZ 0040f240 f i controller.obj
 0001:0000e310       ?_Alloc_sentinel_and_proxy@?$_Tree@V?$_Tmap_traits@V?$basic_string@DU?$char_traits@D@std@@V?$allocator@D@2@@std@@V?$weak_ptr@VRawImageData@@@2@U?$less@V?$basic_string@DU?$char_traits@D@std@@V?$allocator@D@2@@std@@@2@V?$allocator@U?$pair@$$CBV?$basic_string@DU?$char_traits@D@std@@V?$allocator@D@2@@std@@V?$weak_ptr@VRawImageData@@@2@@std@@@2@$0A@@std@@@std@@IAEXXZ 0040f310 f i controller.obj
 0001:0000e3e0       ?_Allocate@?$_Alloc_construct_ptr@V?$allocator@U?$_Tree_node@U?$pair@$$CBV?$basic_string@DU?$char_traits@D@std@@V?$allocator@D@2@@std@@V?$shared_ptr@VRawImageData@@@2@@std@@PAX@std@@@std@@@std@@QAEXXZ 0040f3e0 f i controller.obj
 0001:0000e410       ?_Allocate@?$_Alloc_construct_ptr@V?$allocator@U?$_Tree_node@U?$pair@$$CBV?$basic_string@DU?$char_traits@D@std@@V?$allocator@D@2@@std@@V?$weak_ptr@VRawImageData@@@2@@std@@PAX@std@@@std@@@std@@QAEXXZ 0040f410 f i controller.obj
 0001:0000e440       ?_Become_small@?$basic_string@DU?$char_traits@D@std@@V?$allocator@D@2@@std@@AAEXXZ 0040f440 f i controller.obj
 0001:0000e4e0       ?_Check_grow_by_1@?$_Tree@V?$_Tmap_traits@V?$basic_string@DU?$char_traits@D@std@@V?$allocator@D@2@@std@@V?$shared_ptr@VRawImageData@@@2@U?$less@V?$basic_string@DU?$char_traits@D@std@@V?$allocator@D@2@@std@@@2@V?$allocator@U?$pair@$$CBV?$basic_string@DU?$char_traits@D@std@@V?$allocator@D@2@@std@@V?$shared_ptr@VRawImageData@@@2@@std@@@2@$0A@@std@@@std@@IAEXXZ 0040f4e0 f i controller.obj
 0001:0000e520       ?_Check_grow_by_1@?$_Tree@V?$_Tmap_traits@V?$basic_string@DU?$char_traits@D@std@@V?$allocator@D@2@@std@@V?$weak_ptr@VRawImageData@@@2@U?$less@V?$basic_string@DU?$char_traits@D@std@@V?$allocator@D@2@@std@@@2@V?$allocator@U?$pair@$$CBV?$basic_string@DU?$char_traits@D@std@@V?$allocator@D@2@@std@@V?$weak_ptr@VRawImageData@@@2@@std@@@2@$0A@@std@@@std@@IAEXXZ 0040f520 f i controller.obj
 0001:0000e560       ?_Construct_lv_contents@?$basic_string@DU?$char_traits@D@std@@V?$allocator@D@2@@std@@AAEXABV12@@Z 0040f560 f i controller.obj
 0001:0000e690       ?_Decref@?$_Ptr_base@VRawImageData@@@std@@IAEXXZ 0040f690 f i controller.obj
 0001:0000e6c0       ?_Decref@_Ref_count_base@std@@QAEXXZ 0040f6c0 f i controller.obj
 0001:0000e700       ?_Decwref@?$_Ptr_base@VRawImageData@@@std@@IAEXXZ 0040f700 f i controller.obj
 0001:0000e730       ?_Decwref@_Ref_count_base@std@@QAEXXZ 0040f730 f i controller.obj
 0001:0000e770       ?_Delete_this@?$_Ref_count@VRawImageData@@@std@@EAEXXZ 0040f770 f i controller.obj
 0001:0000e7c0       ?_Destroy@?$_Ref_count@VRawImageData@@@std@@EAEXXZ 0040f7c0 f i controller.obj
 0001:0000e800       ?_Erase_unchecked@?$_Tree@V?$_Tmap_traits@V?$basic_string@DU?$char_traits@D@std@@V?$allocator@D@2@@std@@V?$weak_ptr@VRawImageData@@@2@U?$less@V?$basic_string@DU?$char_traits@D@std@@V?$allocator@D@2@@std@@@2@V?$allocator@U?$pair@$$CBV?$basic_string@DU?$char_traits@D@std@@V?$allocator@D@2@@std@@V?$weak_ptr@VRawImageData@@@2@@std@@@2@$0A@@std@@@std@@AAEPAU?$_Tree_node@U?$pair@$$CBV?$basic_string@DU?$char_traits@D@std@@V?$allocator@D@2@@std@@V?$weak_ptr@VRawImageData@@@2@@std@@PAX@2@V?$_Tree_unchecked_const_iterator@V?$_Tree_val@U?$_Tree_simple_types@U?$pair@$$CBV?$basic_string@DU?$char_traits@D@std@@V?$allocator@D@2@@std@@V?$weak_ptr@VRawImageData@@@2@@std@@@std@@@std@@U_Iterator_base0@2@@2@@Z 0040f800 f i controller.obj
 0001:0000e8b0       ?_Extract@?$_In_place_key_extract_map@V?$basic_string@DU?$char_traits@D@std@@V?$allocator@D@2@@std@@U?$pair@V?$basic_string@DU?$char_traits@D@std@@V?$allocator@D@2@@std@@V?$shared_ptr@VRawImageData@@@2@@2@@std@@SAABV?$basic_string@DU?$char_traits@D@std@@V?$allocator@D@2@@2@ABU?$pair@V?$basic_string@DU?$char_traits@D@std@@V?$allocator@D@2@@std@@V?$shared_ptr@VRawImageData@@@2@@2@@Z 0040f8b0 f i controller.obj
 0001:0000e8c0       ?_Extract@?$_In_place_key_extract_map@V?$basic_string@DU?$char_traits@D@std@@V?$allocator@D@2@@std@@U?$pair@V?$basic_string@DU?$char_traits@D@std@@V?$allocator@D@2@@std@@V?$weak_ptr@VRawImageData@@@2@@2@@std@@SAABV?$basic_string@DU?$char_traits@D@std@@V?$allocator@D@2@@2@ABU?$pair@V?$basic_string@DU?$char_traits@D@std@@V?$allocator@D@2@@std@@V?$weak_ptr@VRawImageData@@@2@@2@@Z 0040f8c0 f i controller.obj
 0001:0000e8d0       ?_Extract@?$_Tree_val@U?$_Tree_simple_types@U?$pair@$$CBV?$basic_string@DU?$char_traits@D@std@@V?$allocator@D@2@@std@@V?$weak_ptr@VRawImageData@@@2@@std@@@std@@@std@@QAEPAU?$_Tree_node@U?$pair@$$CBV?$basic_string@DU?$char_traits@D@std@@V?$allocator@D@2@@std@@V?$weak_ptr@VRawImageData@@@2@@std@@PAX@2@V?$_Tree_unchecked_const_iterator@V?$_Tree_val@U?$_Tree_simple_types@U?$pair@$$CBV?$basic_string@DU?$char_traits@D@std@@V?$allocator@D@2@@std@@V?$weak_ptr@VRawImageData@@@2@@std@@@std@@@std@@U_Iterator_base0@2@@2@@Z 0040f8d0 f i controller.obj
 0001:0000ee40       ?_Get_deleter@_Ref_count_base@std@@UBEPAXABVtype_info@@@Z 0040fe40 f i controller.obj
 0001:0000ee60       ?_Get_first@?$_Compressed_pair@U?$less@V?$basic_string@DU?$char_traits@D@std@@V?$allocator@D@2@@std@@@std@@V?$_Compressed_pair@V?$allocator@U?$_Tree_node@U?$pair@$$CBV?$basic_string@DU?$char_traits@D@std@@V?$allocator@D@2@@std@@V?$shared_ptr@VRawImageData@@@2@@std@@PAX@std@@@std@@V?$_Tree_val@U?$_Tree_simple_types@U?$pair@$$CBV?$basic_string@DU?$char_traits@D@std@@V?$allocator@D@2@@std@@V?$shared_ptr@VRawImageData@@@2@@std@@@std@@@2@$00@2@$00@std@@QBEABU?$less@V?$basic_string@DU?$char_traits@D@std@@V?$allocator@D@2@@std@@@2@XZ 0040fe60 f i controller.obj
 0001:0000ee80       ?_Get_first@?$_Compressed_pair@U?$less@V?$basic_string@DU?$char_traits@D@std@@V?$allocator@D@2@@std@@@std@@V?$_Compressed_pair@V?$allocator@U?$_Tree_node@U?$pair@$$CBV?$basic_string@DU?$char_traits@D@std@@V?$allocator@D@2@@std@@V?$weak_ptr@VRawImageData@@@2@@std@@PAX@std@@@std@@V?$_Tree_val@U?$_Tree_simple_types@U?$pair@$$CBV?$basic_string@DU?$char_traits@D@std@@V?$allocator@D@2@@std@@V?$weak_ptr@VRawImageData@@@2@@std@@@std@@@2@$00@2@$00@std@@QBEABU?$less@V?$basic_string@DU?$char_traits@D@std@@V?$allocator@D@2@@std@@@2@XZ 0040fe80 f i controller.obj
 0001:0000eea0       ?_Get_first@?$_Compressed_pair@V?$allocator@U?$_Tree_node@U?$pair@$$CBV?$basic_string@DU?$char_traits@D@std@@V?$allocator@D@2@@std@@V?$shared_ptr@VRawImageData@@@2@@std@@PAX@std@@@std@@V?$_Tree_val@U?$_Tree_simple_types@U?$pair@$$CBV?$basic_string@DU?$char_traits@D@std@@V?$allocator@D@2@@std@@V?$shared_ptr@VRawImageData@@@2@@std@@@std@@@2@$00@std@@QAEAAV?$allocator@U?$_Tree_node@U?$pair@$$CBV?$basic_string@DU?$char_traits@D@std@@V?$allocator@D@2@@std@@V?$shared_ptr@VRawImageData@@@2@@std@@PAX@std@@@2@XZ 0040fea0 f i controller.obj
 0001:0000eec0       ?_Get_first@?$_Compressed_pair@V?$allocator@U?$_Tree_node@U?$pair@$$CBV?$basic_string@DU?$char_traits@D@std@@V?$allocator@D@2@@std@@V?$shared_ptr@VRawImageData@@@2@@std@@PAX@std@@@std@@V?$_Tree_val@U?$_Tree_simple_types@U?$pair@$$CBV?$basic_string@DU?$char_traits@D@std@@V?$allocator@D@2@@std@@V?$shared_ptr@VRawImageData@@@2@@std@@@std@@@2@$00@std@@QBEABV?$allocator@U?$_Tree_node@U?$pair@$$CBV?$basic_string@DU?$char_traits@D@std@@V?$allocator@D@2@@std@@V?$shared_ptr@VRawImageData@@@2@@std@@PAX@std@@@2@XZ 0040fec0 f i controller.obj
 0001:0000eee0       ?_Get_first@?$_Compressed_pair@V?$allocator@U?$_Tree_node@U?$pair@$$CBV?$basic_string@DU?$char_traits@D@std@@V?$allocator@D@2@@std@@V?$weak_ptr@VRawImageData@@@2@@std@@PAX@std@@@std@@V?$_Tree_val@U?$_Tree_simple_types@U?$pair@$$CBV?$basic_string@DU?$char_traits@D@std@@V?$allocator@D@2@@std@@V?$weak_ptr@VRawImageData@@@2@@std@@@std@@@2@$00@std@@QAEAAV?$allocator@U?$_Tree_node@U?$pair@$$CBV?$basic_string@DU?$char_traits@D@std@@V?$allocator@D@2@@std@@V?$weak_ptr@VRawImageData@@@2@@std@@PAX@std@@@2@XZ 0040fee0 f i controller.obj
 0001:0000ef00       ?_Get_first@?$_Compressed_pair@V?$allocator@U?$_Tree_node@U?$pair@$$CBV?$basic_string@DU?$char_traits@D@std@@V?$allocator@D@2@@std@@V?$weak_ptr@VRawImageData@@@2@@std@@PAX@std@@@std@@V?$_Tree_val@U?$_Tree_simple_types@U?$pair@$$CBV?$basic_string@DU?$char_traits@D@std@@V?$allocator@D@2@@std@@V?$weak_ptr@VRawImageData@@@2@@std@@@std@@@2@$00@std@@QBEABV?$allocator@U?$_Tree_node@U?$pair@$$CBV?$basic_string@DU?$char_traits@D@std@@V?$allocator@D@2@@std@@V?$weak_ptr@VRawImageData@@@2@@std@@PAX@std@@@2@XZ 0040ff00 f i controller.obj
 0001:0000ef20       ?_Get_scary@?$_Tree@V?$_Tmap_traits@V?$basic_string@DU?$char_traits@D@std@@V?$allocator@D@2@@std@@V?$shared_ptr@VRawImageData@@@2@U?$less@V?$basic_string@DU?$char_traits@D@std@@V?$allocator@D@2@@std@@@2@V?$allocator@U?$pair@$$CBV?$basic_string@DU?$char_traits@D@std@@V?$allocator@D@2@@std@@V?$shared_ptr@VRawImageData@@@2@@std@@@2@$0A@@std@@@std@@IAEPAV?$_Tree_val@U?$_Tree_simple_types@U?$pair@$$CBV?$basic_string@DU?$char_traits@D@std@@V?$allocator@D@2@@std@@V?$shared_ptr@VRawImageData@@@2@@std@@@std@@@2@XZ 0040ff20 f i controller.obj
 0001:0000ef40       ?_Get_scary@?$_Tree@V?$_Tmap_traits@V?$basic_string@DU?$char_traits@D@std@@V?$allocator@D@2@@std@@V?$shared_ptr@VRawImageData@@@2@U?$less@V?$basic_string@DU?$char_traits@D@std@@V?$allocator@D@2@@std@@@2@V?$allocator@U?$pair@$$CBV?$basic_string@DU?$char_traits@D@std@@V?$allocator@D@2@@std@@V?$shared_ptr@VRawImageData@@@2@@std@@@2@$0A@@std@@@std@@IBEPBV?$_Tree_val@U?$_Tree_simple_types@U?$pair@$$CBV?$basic_string@DU?$char_traits@D@std@@V?$allocator@D@2@@std@@V?$shared_ptr@VRawImageData@@@2@@std@@@std@@@2@XZ 0040ff40 f i controller.obj
 0001:0000ef60       ?_Get_scary@?$_Tree@V?$_Tmap_traits@V?$basic_string@DU?$char_traits@D@std@@V?$allocator@D@2@@std@@V?$weak_ptr@VRawImageData@@@2@U?$less@V?$basic_string@DU?$char_traits@D@std@@V?$allocator@D@2@@std@@@2@V?$allocator@U?$pair@$$CBV?$basic_string@DU?$char_traits@D@std@@V?$allocator@D@2@@std@@V?$weak_ptr@VRawImageData@@@2@@std@@@2@$0A@@std@@@std@@IAEPAV?$_Tree_val@U?$_Tree_simple_types@U?$pair@$$CBV?$basic_string@DU?$char_traits@D@std@@V?$allocator@D@2@@std@@V?$weak_ptr@VRawImageData@@@2@@std@@@std@@@2@XZ 0040ff60 f i controller.obj
 0001:0000ef80       ?_Get_scary@?$_Tree@V?$_Tmap_traits@V?$basic_string@DU?$char_traits@D@std@@V?$allocator@D@2@@std@@V?$weak_ptr@VRawImageData@@@2@U?$less@V?$basic_string@DU?$char_traits@D@std@@V?$allocator@D@2@@std@@@2@V?$allocator@U?$pair@$$CBV?$basic_string@DU?$char_traits@D@std@@V?$allocator@D@2@@std@@V?$weak_ptr@VRawImageData@@@2@@std@@@2@$0A@@std@@@std@@IBEPBV?$_Tree_val@U?$_Tree_simple_types@U?$pair@$$CBV?$basic_string@DU?$char_traits@D@std@@V?$allocator@D@2@@std@@V?$weak_ptr@VRawImageData@@@2@@std@@@std@@@2@XZ 0040ff80 f i controller.obj
 0001:0000efa0       ?_Getal@?$_Tree@V?$_Tmap_traits@V?$basic_string@DU?$char_traits@D@std@@V?$allocator@D@2@@std@@V?$shared_ptr@VRawImageData@@@2@U?$less@V?$basic_string@DU?$char_traits@D@std@@V?$allocator@D@2@@std@@@2@V?$allocator@U?$pair@$$CBV?$basic_string@DU?$char_traits@D@std@@V?$allocator@D@2@@std@@V?$shared_ptr@VRawImageData@@@2@@std@@@2@$0A@@std@@@std@@IAEAAV?$allocator@U?$_Tree_node@U?$pair@$$CBV?$basic_string@DU?$char_traits@D@std@@V?$allocator@D@2@@std@@V?$shared_ptr@VRawImageData@@@2@@std@@PAX@std@@@2@XZ 0040ffa0 f i controller.obj
 0001:0000efc0       ?_Getal@?$_Tree@V?$_Tmap_traits@V?$basic_string@DU?$char_traits@D@std@@V?$allocator@D@2@@std@@V?$shared_ptr@VRawImageData@@@2@U?$less@V?$basic_string@DU?$char_traits@D@std@@V?$allocator@D@2@@std@@@2@V?$allocator@U?$pair@$$CBV?$basic_string@DU?$char_traits@D@std@@V?$allocator@D@2@@std@@V?$shared_ptr@VRawImageData@@@2@@std@@@2@$0A@@std@@@std@@IBEABV?$allocator@U?$_Tree_node@U?$pair@$$CBV?$basic_string@DU?$char_traits@D@std@@V?$allocator@D@2@@std@@V?$shared_ptr@VRawImageData@@@2@@std@@PAX@std@@@2@XZ 0040ffc0 f i controller.obj
 0001:0000efe0       ?_Getal@?$_Tree@V?$_Tmap_traits@V?$basic_string@DU?$char_traits@D@std@@V?$allocator@D@2@@std@@V?$weak_ptr@VRawImageData@@@2@U?$less@V?$basic_string@DU?$char_traits@D@std@@V?$allocator@D@2@@std@@@2@V?$allocator@U?$pair@$$CBV?$basic_string@DU?$char_traits@D@std@@V?$allocator@D@2@@std@@V?$weak_ptr@VRawImageData@@@2@@std@@@2@$0A@@std@@@std@@IAEAAV?$allocator@U?$_Tree_node@U?$pair@$$CBV?$basic_string@DU?$char_traits@D@std@@V?$allocator@D@2@@std@@V?$weak_ptr@VRawImageData@@@2@@std@@PAX@std@@@2@XZ 0040ffe0 f i controller.obj
 0001:0000f000       ?_Getal@?$_Tree@V?$_Tmap_traits@V?$basic_string@DU?$char_traits@D@std@@V?$allocator@D@2@@std@@V?$weak_ptr@VRawImageData@@@2@U?$less@V?$basic_string@DU?$char_traits@D@std@@V?$allocator@D@2@@std@@@2@V?$allocator@U?$pair@$$CBV?$basic_string@DU?$char_traits@D@std@@V?$allocator@D@2@@std@@V?$weak_ptr@VRawImageData@@@2@@std@@@2@$0A@@std@@@std@@IBEABV?$allocator@U?$_Tree_node@U?$pair@$$CBV?$basic_string@DU?$char_traits@D@std@@V?$allocator@D@2@@std@@V?$weak_ptr@VRawImageData@@@2@@std@@PAX@std@@@2@XZ 00410000 f i controller.obj
 0001:0000f020       ?_Getcomp@?$_Tree@V?$_Tmap_traits@V?$basic_string@DU?$char_traits@D@std@@V?$allocator@D@2@@std@@V?$shared_ptr@VRawImageData@@@2@U?$less@V?$basic_string@DU?$char_traits@D@std@@V?$allocator@D@2@@std@@@2@V?$allocator@U?$pair@$$CBV?$basic_string@DU?$char_traits@D@std@@V?$allocator@D@2@@std@@V?$shared_ptr@VRawImageData@@@2@@std@@@2@$0A@@std@@@std@@IBEABU?$less@V?$basic_string@DU?$char_traits@D@std@@V?$allocator@D@2@@std@@@2@XZ 00410020 f i controller.obj
 0001:0000f040       ?_Getcomp@?$_Tree@V?$_Tmap_traits@V?$basic_string@DU?$char_traits@D@std@@V?$allocator@D@2@@std@@V?$weak_ptr@VRawImageData@@@2@U?$less@V?$basic_string@DU?$char_traits@D@std@@V?$allocator@D@2@@std@@@2@V?$allocator@U?$pair@$$CBV?$basic_string@DU?$char_traits@D@std@@V?$allocator@D@2@@std@@V?$weak_ptr@VRawImageData@@@2@@std@@@2@$0A@@std@@@std@@IBEABU?$less@V?$basic_string@DU?$char_traits@D@std@@V?$allocator@D@2@@std@@@2@XZ 00410040 f i controller.obj
 0001:0000f060       ?_Getcont@_Iterator_base12@std@@QBEPBU_Container_base12@2@XZ 00410060 f i controller.obj
 0001:0000f0a0       ?_Incref@_Ref_count_base@std@@QAEXXZ 004100a0 f i controller.obj
 0001:0000f0c0       ?_Incref_nz@_Ref_count_base@std@@QAE_NXZ 004100c0 f i controller.obj
 0001:0000f130       ?_Incwref@_Ref_count_base@std@@QAEXXZ 00410130 f i controller.obj
 0001:0000f150       ?_Insert_node@?$_Tree_val@U?$_Tree_simple_types@U?$pair@$$CBV?$basic_string@DU?$char_traits@D@std@@V?$allocator@D@2@@std@@V?$shared_ptr@VRawImageData@@@2@@std@@@std@@@std@@QAEPAU?$_Tree_node@U?$pair@$$CBV?$basic_string@DU?$char_traits@D@std@@V?$allocator@D@2@@std@@V?$shared_ptr@VRawImageData@@@2@@std@@PAX@2@U?$_Tree_id@PAU?$_Tree_node@U?$pair@$$CBV?$basic_string@DU?$char_traits@D@std@@V?$allocator@D@2@@std@@V?$shared_ptr@VRawImageData@@@2@@std@@PAX@std@@@2@QAU32@@Z 00410150 f i controller.obj
 0001:0000f3e0       ?_Insert_node@?$_Tree_val@U?$_Tree_simple_types@U?$pair@$$CBV?$basic_string@DU?$char_traits@D@std@@V?$allocator@D@2@@std@@V?$weak_ptr@VRawImageData@@@2@@std@@@std@@@std@@QAEPAU?$_Tree_node@U?$pair@$$CBV?$basic_string@DU?$char_traits@D@std@@V?$allocator@D@2@@std@@V?$weak_ptr@VRawImageData@@@2@@std@@PAX@2@U?$_Tree_id@PAU?$_Tree_node@U?$pair@$$CBV?$basic_string@DU?$char_traits@D@std@@V?$allocator@D@2@@std@@V?$weak_ptr@VRawImageData@@@2@@std@@PAX@std@@@2@QAU32@@Z 004103e0 f i controller.obj
 0001:0000f670       ?_Lrotate@?$_Tree_val@U?$_Tree_simple_types@U?$pair@$$CBV?$basic_string@DU?$char_traits@D@std@@V?$allocator@D@2@@std@@V?$shared_ptr@VRawImageData@@@2@@std@@@std@@@std@@QAEXPAU?$_Tree_node@U?$pair@$$CBV?$basic_string@DU?$char_traits@D@std@@V?$allocator@D@2@@std@@V?$shared_ptr@VRawImageData@@@2@@std@@PAX@2@@Z 00410670 f i controller.obj
 0001:0000f730       ?_Lrotate@?$_Tree_val@U?$_Tree_simple_types@U?$pair@$$CBV?$basic_string@DU?$char_traits@D@std@@V?$allocator@D@2@@std@@V?$weak_ptr@VRawImageData@@@2@@std@@@std@@@std@@QAEXPAU?$_Tree_node@U?$pair@$$CBV?$basic_string@DU?$char_traits@D@std@@V?$allocator@D@2@@std@@V?$weak_ptr@VRawImageData@@@2@@std@@PAX@2@@Z 00410730 f i controller.obj
 0001:0000f7f0       ?_Max@?$_Tree_val@U?$_Tree_simple_types@U?$pair@$$CBV?$basic_string@DU?$char_traits@D@std@@V?$allocator@D@2@@std@@V?$weak_ptr@VRawImageData@@@2@@std@@@std@@@std@@SAPAU?$_Tree_node@U?$pair@$$CBV?$basic_string@DU?$char_traits@D@std@@V?$allocator@D@2@@std@@V?$weak_ptr@VRawImageData@@@2@@std@@PAX@2@PAU32@@Z 004107f0 f i controller.obj
 0001:0000f820       ?_Memcpy_val_from@?$basic_string@DU?$char_traits@D@std@@V?$allocator@D@2@@std@@AAEXABV12@@Z 00410820 f i controller.obj
 0001:0000f880       ?_Min@?$_Tree_val@U?$_Tree_simple_types@U?$pair@$$CBV?$basic_string@DU?$char_traits@D@std@@V?$allocator@D@2@@std@@V?$weak_ptr@VRawImageData@@@2@@std@@@std@@@std@@SAPAU?$_Tree_node@U?$pair@$$CBV?$basic_string@DU?$char_traits@D@std@@V?$allocator@D@2@@std@@V?$weak_ptr@VRawImageData@@@2@@std@@PAX@2@PAU32@@Z 00410880 f i controller.obj
 0001:0000f8b0       ?_Orphan_me@_Iterator_base12@std@@QAEXXZ 004108b0 f i controller.obj
 0001:0000f990       ?_Orphan_ptr@?$_Tree_val@U?$_Tree_simple_types@U?$pair@$$CBV?$basic_string@DU?$char_traits@D@std@@V?$allocator@D@2@@std@@V?$weak_ptr@VRawImageData@@@2@@std@@@std@@@std@@QAEXQAU?$_Tree_node@U?$pair@$$CBV?$basic_string@DU?$char_traits@D@std@@V?$allocator@D@2@@std@@V?$weak_ptr@VRawImageData@@@2@@std@@PAX@2@@Z 00410990 f i controller.obj
 0001:0000fa40       ?_Release@?$_Alloc_construct_ptr@V?$allocator@U?$_Tree_node@U?$pair@$$CBV?$basic_string@DU?$char_traits@D@std@@V?$allocator@D@2@@std@@V?$shared_ptr@VRawImageData@@@2@@std@@PAX@std@@@std@@@std@@QAEPAU?$_Tree_node@U?$pair@$$CBV?$basic_string@DU?$char_traits@D@std@@V?$allocator@D@2@@std@@V?$shared_ptr@VRawImageData@@@2@@std@@PAX@2@XZ 00410a40 f i controller.obj
 0001:0000fa70       ?_Release@?$_Alloc_construct_ptr@V?$allocator@U?$_Tree_node@U?$pair@$$CBV?$basic_string@DU?$char_traits@D@std@@V?$allocator@D@2@@std@@V?$weak_ptr@VRawImageData@@@2@@std@@PAX@std@@@std@@@std@@QAEPAU?$_Tree_node@U?$pair@$$CBV?$basic_string@DU?$char_traits@D@std@@V?$allocator@D@2@@std@@V?$weak_ptr@VRawImageData@@@2@@std@@PAX@2@XZ 00410a70 f i controller.obj
 0001:0000faa0       ?_Rrotate@?$_Tree_val@U?$_Tree_simple_types@U?$pair@$$CBV?$basic_string@DU?$char_traits@D@std@@V?$allocator@D@2@@std@@V?$shared_ptr@VRawImageData@@@2@@std@@@std@@@std@@QAEXPAU?$_Tree_node@U?$pair@$$CBV?$basic_string@DU?$char_traits@D@std@@V?$allocator@D@2@@std@@V?$shared_ptr@VRawImageData@@@2@@std@@PAX@2@@Z 00410aa0 f i controller.obj
 0001:0000fb70       ?_Rrotate@?$_Tree_val@U?$_Tree_simple_types@U?$pair@$$CBV?$basic_string@DU?$char_traits@D@std@@V?$allocator@D@2@@std@@V?$weak_ptr@VRawImageData@@@2@@std@@@std@@@std@@QAEXPAU?$_Tree_node@U?$pair@$$CBV?$basic_string@DU?$char_traits@D@std@@V?$allocator@D@2@@std@@V?$weak_ptr@VRawImageData@@@2@@std@@PAX@2@@Z 00410b70 f i controller.obj
 0001:0000fc40       ?_Swap@?$_Ptr_base@VRawImageData@@@std@@IAEXAAV12@@Z 00410c40 f i controller.obj
 0001:0000fc80       ?_Swap_proxy_and_iterators@?$basic_string@DU?$char_traits@D@std@@V?$allocator@D@2@@std@@AAEXAAV12@@Z 00410c80 f i controller.obj
 0001:0000fca0       ?_Swap_proxy_and_iterators@_Container_base12@std@@QAEXAAU12@@Z 00410ca0 f i controller.obj
 0001:0000fd20       ?_Take_contents@?$basic_string@DU?$char_traits@D@std@@V?$allocator@D@2@@std@@AAEXAAV12@U?$integral_constant@_N$00@2@@Z 00410d20 f i controller.obj
 0001:0000fdb0       ?_Throw_tree_length_error@std@@YAXXZ 00410db0 f i controller.obj
 0001:0000fdd0       ?_Unwrapped@?$_Tree_iterator@V?$_Tree_val@U?$_Tree_simple_types@U?$pair@$$CBV?$basic_string@DU?$char_traits@D@std@@V?$allocator@D@2@@std@@V?$weak_ptr@VRawImageData@@@2@@std@@@std@@@std@@@std@@QBE?AV?$_Tree_unchecked_iterator@V?$_Tree_val@U?$_Tree_simple_types@U?$pair@$$CBV?$basic_string@DU?$char_traits@D@std@@V?$allocator@D@2@@std@@V?$weak_ptr@VRawImageData@@@2@@std@@@std@@@std@@@2@XZ 00410dd0 f i controller.obj
 0001:0000fe10       ?_Use_count@_Ref_count_base@std@@QBEJXZ 00410e10 f i controller.obj
 0001:0000fe30       ?allocate@?$allocator@U?$_Tree_node@U?$pair@$$CBV?$basic_string@DU?$char_traits@D@std@@V?$allocator@D@2@@std@@V?$shared_ptr@VRawImageData@@@2@@std@@PAX@std@@@std@@QAEPAU?$_Tree_node@U?$pair@$$CBV?$basic_string@DU?$char_traits@D@std@@V?$allocator@D@2@@std@@V?$shared_ptr@VRawImageData@@@2@@std@@PAX@2@I@Z 00410e30 f i controller.obj
 0001:0000fe60       ?allocate@?$allocator@U?$_Tree_node@U?$pair@$$CBV?$basic_string@DU?$char_traits@D@std@@V?$allocator@D@2@@std@@V?$weak_ptr@VRawImageData@@@2@@std@@PAX@std@@@std@@QAEPAU?$_Tree_node@U?$pair@$$CBV?$basic_string@DU?$char_traits@D@std@@V?$allocator@D@2@@std@@V?$weak_ptr@VRawImageData@@@2@@std@@PAX@2@I@Z 00410e60 f i controller.obj
 0001:0000fe90       ?append@?$basic_string@DU?$char_traits@D@std@@V?$allocator@D@2@@std@@QAEAAV12@ABV12@@Z 00410e90 f i controller.obj
 0001:0000fec0       ?append@?$basic_string@DU?$char_traits@D@std@@V?$allocator@D@2@@std@@QAEAAV12@QBD@Z 00410ec0 f i controller.obj
 0001:0000ff00       ?append@?$basic_string@DU?$char_traits@D@std@@V?$allocator@D@2@@std@@QAEAAV12@QBDI@Z 00410f00 f i controller.obj
 0001:0000ffc0       ?compare@?$_Narrow_char_traits@DH@std@@SAHQBD0I@Z 00410fc0 f i controller.obj
 0001:0000ffe0       ?compare@?$basic_string@DU?$char_traits@D@std@@V?$allocator@D@2@@std@@QBEHABV12@@Z 00410fe0 f i controller.obj
 0001:00010060       ?data@?$basic_string@DU?$char_traits@D@std@@V?$allocator@D@2@@std@@QBEPBDXZ 00411060 f i controller.obj
 0001:000100b0       ?deallocate@?$_Default_allocator_traits@V?$allocator@U?$_Tree_node@U?$pair@$$CBV?$basic_string@DU?$char_traits@D@std@@V?$allocator@D@2@@std@@V?$shared_ptr@VRawImageData@@@2@@std@@PAX@std@@@std@@@std@@SAXAAV?$allocator@U?$_Tree_node@U?$pair@$$CBV?$basic_string@DU?$char_traits@D@std@@V?$allocator@D@2@@std@@V?$shared_ptr@VRawImageData@@@2@@std@@PAX@std@@@2@QAU?$_Tree_node@U?$pair@$$CBV?$basic_string@DU?$char_traits@D@std@@V?$allocator@D@2@@std@@V?$shared_ptr@VRawImageData@@@2@@std@@PAX@2@I@Z 004110b0 f i controller.obj
 0001:000100d0       ?deallocate@?$_Default_allocator_traits@V?$allocator@U?$_Tree_node@U?$pair@$$CBV?$basic_string@DU?$char_traits@D@std@@V?$allocator@D@2@@std@@V?$weak_ptr@VRawImageData@@@2@@std@@PAX@std@@@std@@@std@@SAXAAV?$allocator@U?$_Tree_node@U?$pair@$$CBV?$basic_string@DU?$char_traits@D@std@@V?$allocator@D@2@@std@@V?$weak_ptr@VRawImageData@@@2@@std@@PAX@std@@@2@QAU?$_Tree_node@U?$pair@$$CBV?$basic_string@DU?$char_traits@D@std@@V?$allocator@D@2@@std@@V?$weak_ptr@VRawImageData@@@2@@std@@PAX@2@I@Z 004110d0 f i controller.obj
 0001:000100f0       ?deallocate@?$allocator@U?$_Tree_node@U?$pair@$$CBV?$basic_string@DU?$char_traits@D@std@@V?$allocator@D@2@@std@@V?$shared_ptr@VRawImageData@@@2@@std@@PAX@std@@@std@@QAEXQAU?$_Tree_node@U?$pair@$$CBV?$basic_string@DU?$char_traits@D@std@@V?$allocator@D@2@@std@@V?$shared_ptr@VRawImageData@@@2@@std@@PAX@2@I@Z 004110f0 f i controller.obj
 0001:00010120       ?deallocate@?$allocator@U?$_Tree_node@U?$pair@$$CBV?$basic_string@DU?$char_traits@D@std@@V?$allocator@D@2@@std@@V?$weak_ptr@VRawImageData@@@2@@std@@PAX@std@@@std@@QAEXQAU?$_Tree_node@U?$pair@$$CBV?$basic_string@DU?$char_traits@D@std@@V?$allocator@D@2@@std@@V?$weak_ptr@VRawImageData@@@2@@std@@PAX@2@I@Z 00411120 f i controller.obj
 0001:00010150       ?deleteOnRemoval@DisplayableObject@@UBE_NXZ 00411150 f i controller.obj
 0001:00010170       ?drawForegroundTriangle@BaseEngine@@QAEXHHHHHHI@Z 00411170 f i controller.obj
 0001:00010200       ?end@?$_Tree@V?$_Tmap_traits@V?$basic_string@DU?$char_traits@D@std@@V?$allocator@D@2@@std@@V?$weak_ptr@VRawImageData@@@2@U?$less@V?$basic_string@DU?$char_traits@D@std@@V?$allocator@D@2@@std@@@2@V?$allocator@U?$pair@$$CBV?$basic_string@DU?$char_traits@D@std@@V?$allocator@D@2@@std@@V?$weak_ptr@VRawImageData@@@2@@std@@@2@$0A@@std@@@std@@QAE?AV?$_Tree_iterator@V?$_Tree_val@U?$_Tree_simple_types@U?$pair@$$CBV?$basic_string@DU?$char_traits@D@std@@V?$allocator@D@2@@std@@V?$weak_ptr@VRawImageData@@@2@@std@@@std@@@std@@@2@XZ 00411200 f i controller.obj
 0001:00010240       ?eof@?$_Narrow_char_traits@DH@std@@SAHXZ 00411240 f i controller.obj
 0001:00010250       ?eq_int_type@?$_Narrow_char_traits@DH@std@@SA_NABH0@Z 00411250 f i controller.obj
 0001:00010280       ?expired@?$weak_ptr@VRawImageData@@@std@@QBE_NXZ 00411280 f i controller.obj
 0001:000102c0       ?find@?$_Tree@V?$_Tmap_traits@V?$basic_string@DU?$char_traits@D@std@@V?$allocator@D@2@@std@@V?$weak_ptr@VRawImageData@@@2@U?$less@V?$basic_string@DU?$char_traits@D@std@@V?$allocator@D@2@@std@@@2@V?$allocator@U?$pair@$$CBV?$basic_string@DU?$char_traits@D@std@@V?$allocator@D@2@@std@@V?$weak_ptr@VRawImageData@@@2@@std@@@2@$0A@@std@@@std@@QAE?AV?$_Tree_iterator@V?$_Tree_val@U?$_Tree_simple_types@U?$pair@$$CBV?$basic_string@DU?$char_traits@D@std@@V?$allocator@D@2@@std@@V?$weak_ptr@VRawImageData@@@2@@std@@@std@@@std@@@2@ABV?$basic_string@DU?$char_traits@D@std@@V?$allocator@D@2@@2@@Z 004112c0 f i controller.obj
 0001:00010310       ?freeSurface@RawImageData@@QAEXXZ 00411310 f i controller.obj
 0001:00010350       ?get@?$_Ptr_base@VRawImageData@@@std@@IBEPAVRawImageData@@XZ 00411350 f i controller.obj
 0001:00010370       ?get@ImageManager@@SAPAV1@XZ 00411370 f i controller.obj
 0001:00010420       ?getBackgroundSurface@BaseEngine@@QAEPAVDrawingSurface@@XZ 00411420 f i controller.obj
 0001:00010440       ?getDrawHeight@DisplayableObject@@QBEHXZ 00411440 f i controller.obj
 0001:00010460       ?getDrawWidth@DisplayableObject@@QBEHXZ 00411460 f i controller.obj
 0001:00010480       ?getForegroundSurface@BaseEngine@@QAEPAVDrawingSurface@@XZ 00411480 f i controller.obj
 0001:000104a0       ?getHeight@RawImageData@@QBEHXZ 004114a0 f i controller.obj
 0001:000104c0       ?getHeight@SimpleImage@@QBEHXZ 004114c0 f i controller.obj
 0001:000104f0       ?getImagePtrbyURL@ImageManager@@QAE?AV?$shared_ptr@VRawImageData@@@std@@V?$basic_string@DU?$char_traits@D@std@@V?$allocator@D@2@@3@_N1@Z 004114f0 f i controller.obj
 0001:00010940       ?getImagebyURL@ImageManager@@QAE?AVSimpleImage@@V?$basic_string@DU?$char_traits@D@std@@V?$allocator@D@2@@std@@_N1@Z 00411940 f i controller.obj
 0001:00010a10       ?getWidth@RawImageData@@QBEHXZ 00411a10 f i controller.obj
 0001:00010a30       ?getWidth@SimpleImage@@QBEHXZ 00411a30 f i controller.obj
 0001:00010a60       ?getXForRotationAndCrop@RawImageData@@SAHHHHHHH@Z 00411a60 f i controller.obj
 0001:00010ad0       ?getYForRotationAndCrop@RawImageData@@SAHHHHHHH@Z 00411ad0 f i controller.obj
 0001:00010b40       ?loadAsNew@ImageManager@@QAE?AV?$shared_ptr@VRawImageData@@@std@@V?$basic_string@DU?$char_traits@D@std@@V?$allocator@D@2@@3@@Z 00411b40 f i controller.obj
 0001:00010d00       ?loadImage@RawImageData@@QAE_NV?$basic_string@DU?$char_traits@D@std@@V?$allocator@D@2@@std@@HHHHH_N@Z 00411d00 f i controller.obj
 0001:00011010       ?lock@?$weak_ptr@VRawImageData@@@std@@QBE?AV?$shared_ptr@VRawImageData@@@2@XZ 00412010 f i controller.obj
 0001:00011060       ?lockBackgroundForDrawing@BaseEngine@@QAEXXZ 00412060 f i controller.obj
 0001:00011080       ?max_size@?$_Default_allocator_traits@V?$allocator@U?$_Tree_node@U?$pair@$$CBV?$basic_string@DU?$char_traits@D@std@@V?$allocator@D@2@@std@@V?$shared_ptr@VRawImageData@@@2@@std@@PAX@std@@@std@@@std@@SAIABV?$allocator@U?$_Tree_node@U?$pair@$$CBV?$basic_string@DU?$char_traits@D@std@@V?$allocator@D@2@@std@@V?$shared_ptr@VRawImageData@@@2@@std@@PAX@std@@@2@@Z 00412080 f i controller.obj
 0001:00011090       ?max_size@?$_Default_allocator_traits@V?$allocator@U?$_Tree_node@U?$pair@$$CBV?$basic_string@DU?$char_traits@D@std@@V?$allocator@D@2@@std@@V?$weak_ptr@VRawImageData@@@2@@std@@PAX@std@@@std@@@std@@SAIABV?$allocator@U?$_Tree_node@U?$pair@$$CBV?$basic_string@DU?$char_traits@D@std@@V?$allocator@D@2@@std@@V?$weak_ptr@VRawImageData@@@2@@std@@PAX@std@@@2@@Z 00412090 f i controller.obj
 0001:000110a0       ?max_size@?$_Tree@V?$_Tmap_traits@V?$basic_string@DU?$char_traits@D@std@@V?$allocator@D@2@@std@@V?$shared_ptr@VRawImageData@@@2@U?$less@V?$basic_string@DU?$char_traits@D@std@@V?$allocator@D@2@@std@@@2@V?$allocator@U?$pair@$$CBV?$basic_string@DU?$char_traits@D@std@@V?$allocator@D@2@@std@@V?$shared_ptr@VRawImageData@@@2@@std@@@2@$0A@@std@@@std@@QBEIXZ 004120a0 f i controller.obj
 0001:000110f0       ?max_size@?$_Tree@V?$_Tmap_traits@V?$basic_string@DU?$char_traits@D@std@@V?$allocator@D@2@@std@@V?$weak_ptr@VRawImageData@@@2@U?$less@V?$basic_string@DU?$char_traits@D@std@@V?$allocator@D@2@@std@@@2@V?$allocator@U?$pair@$$CBV?$basic_string@DU?$char_traits@D@std@@V?$allocator@D@2@@std@@V?$weak_ptr@VRawImageData@@@2@@std@@@2@$0A@@std@@@std@@QBEIXZ 004120f0 f i controller.obj
 0001:00011140       ?mySDLLockSurface@DrawingSurface@@QAEXXZ 00412140 f i controller.obj
 0001:00011190       ?mySDLUnlockSurface@DrawingSurface@@QAEXXZ 00412190 f i controller.obj
 0001:000111e0       ?pointer_to@?$pointer_traits@PAU?$pair@$$CBV?$basic_string@DU?$char_traits@D@std@@V?$allocator@D@2@@std@@V?$weak_ptr@VRawImageData@@@2@@std@@@std@@SAPAU?$pair@$$CBV?$basic_string@DU?$char_traits@D@std@@V?$allocator@D@2@@std@@V?$weak_ptr@VRawImageData@@@2@@2@AAU32@@Z 004121e0 f i controller.obj
 0001:00011200       ?reserve@?$basic_string@DU?$char_traits@D@std@@V?$allocator@D@2@@std@@QAEXI@Z 00412200 f i controller.obj
 0001:000112a0       ?resetOptions@ImageManager@@QAEXXZ 004122a0 f i controller.obj
 0001:000112e0       ?select_on_container_copy_construction@?$_Default_allocator_traits@V?$allocator@D@std@@@std@@SA?AV?$allocator@D@2@ABV32@@Z 004122e0 f i controller.obj
 0001:000112f0       ?setPosition@DisplayableObject@@UAEXHH@Z 004122f0 f i controller.obj
 0001:00011330       ?size@?$basic_string@DU?$char_traits@D@std@@V?$allocator@D@2@@std@@QBEIXZ 00412330 f i controller.obj
 0001:00011350       ?swap@?$shared_ptr@VRawImageData@@@std@@QAEXAAV12@@Z 00412350 f i controller.obj
 0001:00011370       ?unlockBackgroundForDrawing@BaseEngine@@QAEXXZ 00412370 f i controller.obj
 0001:00011390       ?use_count@?$_Ptr_base@VRawImageData@@@std@@QBEJXZ 00412390 f i controller.obj
 0001:000113d0       ?virtIsPositionWithinObject@DisplayableObject@@UAE_NHH@Z 004123d0 f i controller.obj
 0001:00011460       ?virtKeyDown@DisplayableObject@@UAEXH@Z 00412460 f i controller.obj
 0001:00011470       ?virtKeyUp@DisplayableObject@@UAEXH@Z 00412470 f i controller.obj
 0001:00011480       ?virtMouseDown@DisplayableObject@@UAEXHHH@Z 00412480 f i controller.obj
 0001:00011490       ?virtMouseMoved@DisplayableObject@@UAEXHH@Z 00412490 f i controller.obj
 0001:000114a0       ?virtMouseUp@DisplayableObject@@UAEXHHH@Z 004124a0 f i controller.obj
 0001:000114b0       ?virtNotify@DisplayableObject@@UAEJHHH@Z 004124b0 f i controller.obj
 0001:000114d0       ?virtSingleItemMouseDown@DisplayableObject@@UAE_NHHH@Z 004124d0 f i controller.obj
 0001:000114f0       ___local_stdio_printf_options 004124f0 f i controller.obj
 0001:00011500       __vfprintf_l               00412500 f i controller.obj
 0001:00011540       _printf                    00412540 f i controller.obj
 0001:00011590       ?virtSetupBackgroundBuffer@DraggingDemo@@UAEXXZ 00412590 f   DraggingDemo.obj
 0001:000116d0       ?virtInitialiseObjects@DraggingDemo@@UAEHXZ 004126d0 f   DraggingDemo.obj
 0001:00011920       ?virtKeyDown@DraggingDemo@@UAEXH@Z 00412920 f   DraggingDemo.obj
 0001:00011a40       ??$_Copy_memmove@PAPAVDisplayableObject@@PAPAV1@@std@@YAPAPAVDisplayableObject@@PAPAV1@00@Z 00412a40 f i DraggingDemo.obj
 0001:00011a90       ??$_Destroy_range@V?$allocator@PAVDisplayableObject@@@std@@@std@@YAXPAPAVDisplayableObject@@QAPAV1@AAV?$allocator@PAVDisplayableObject@@@0@@Z 00412a90 f i DraggingDemo.obj
 0001:00011aa0       ??$_Get_size_of_n@$03@std@@YAII@Z 00412aa0 f i DraggingDemo.obj
 0001:00011ae0       ??$_Get_unwrapped@ABQAPAVDisplayableObject@@@std@@YA@ABQAPAVDisplayableObject@@@Z 00412ae0 f i DraggingDemo.obj
 0001:00011af0       ??$_Resize@U_Value_init_tag@std@@@?$vector@PAVDisplayableObject@@V?$allocator@PAVDisplayableObject@@@std@@@std@@AAEXIABU_Value_init_tag@1@@Z 00412af0 f i DraggingDemo.obj
 0001:00011c10       ??$_Resize_reallocate@U_Value_init_tag@std@@@?$vector@PAVDisplayableObject@@V?$allocator@PAVDisplayableObject@@@std@@@std@@AAEXIABU_Value_init_tag@1@@Z 00412c10 f i DraggingDemo.obj
 0001:00011dc0       ??$_Unfancy@PAVDisplayableObject@@@std@@YAPAPAVDisplayableObject@@PAPAV1@@Z 00412dc0 f i DraggingDemo.obj
 0001:00011dd0       ??$_Uninitialized_move@PAPAVDisplayableObject@@V?$allocator@PAVDisplayableObject@@@std@@@std@@YAPAPAVDisplayableObject@@QAPAV1@0PAPAV1@AAV?$allocator@PAVDisplayableObject@@@0@@Z 00412dd0 f i DraggingDemo.obj
 0001:00011e40       ??$_Uninitialized_value_construct_n@V?$allocator@PAVDisplayableObject@@@std@@@std@@YAPAPAVDisplayableObject@@PAPAV1@IAAV?$allocator@PAVDisplayableObject@@@0@@Z 00412e40 f i DraggingDemo.obj
 0001:00011e90       ??$_Zero_range@PAPAVDisplayableObject@@@std@@YAPAPAVDisplayableObject@@QAPAV1@0@Z 00412e90 f i DraggingDemo.obj
 0001:00011ed0       ??0DragableBaseClassObject@@QAE@HHPAVBaseEngine@@HH_N@Z 00412ed0 f i DraggingDemo.obj
 0001:00011f30       ??0DragableBaseClassObject@@QAE@PAVBaseEngine@@HH_N@Z 00412f30 f i DraggingDemo.obj
 0001:00011f80       ??0DragableImageObject@@QAE@HHPAVBaseEngine@@V?$basic_string@DU?$char_traits@D@std@@V?$allocator@D@2@@std@@_N2@Z 00412f80 f i DraggingDemo.obj
 0001:00012120       ??0DragableObject@@QAE@HHPAVBaseEngine@@HH_N1@Z 00413120 f i DraggingDemo.obj
 0001:000121d0       ??0DragableObject@@QAE@PAVBaseEngine@@HH_N1@Z 004131d0 f i DraggingDemo.obj
 0001:00012280       ??0ImageObject@@QAE@HHPAVBaseEngine@@V?$basic_string@DU?$char_traits@D@std@@V?$allocator@D@2@@std@@_N2@Z 00413280 f i DraggingDemo.obj
 0001:00012410       ??1DragableBaseClassObject@@UAE@XZ 00413410 f i DraggingDemo.obj
 0001:00012430       ??1DragableImageObject@@UAE@XZ 00413430 f i DraggingDemo.obj
 0001:00012460       ??1DragableObject@@UAE@XZ  00413460 f i DraggingDemo.obj
 0001:00012480       ??1ImageObject@@UAE@XZ     00413480 f i DraggingDemo.obj
 0001:000124b0       ??A?$vector@PAVDisplayableObject@@V?$allocator@PAVDisplayableObject@@@std@@@std@@QAEAAPAVDisplayableObject@@I@Z 004134b0 f i DraggingDemo.obj
 0001:00012560       ??_EDragableBaseClassObject@@UAEPAXI@Z 00413560 f i DraggingDemo.obj
 0001:00012560       ??_GDragableBaseClassObject@@UAEPAXI@Z 00413560 f i DraggingDemo.obj
 0001:000125a0       ??_EDragableImageObject@@UAEPAXI@Z 004135a0 f i DraggingDemo.obj
 0001:000125a0       ??_GDragableImageObject@@UAEPAXI@Z 004135a0 f i DraggingDemo.obj
 0001:000125e0       ??_EDragableObject@@UAEPAXI@Z 004135e0 f i DraggingDemo.obj
 0001:000125e0       ??_GDragableObject@@UAEPAXI@Z 004135e0 f i DraggingDemo.obj
 0001:00012620       ??_EImageObject@@UAEPAXI@Z 00413620 f i DraggingDemo.obj
 0001:00012620       ??_GImageObject@@UAEPAXI@Z 00413620 f i DraggingDemo.obj
 0001:00012660       ?_Calculate_growth@?$vector@PAVDisplayableObject@@V?$allocator@PAVDisplayableObject@@@std@@@std@@ABEII@Z 00413660 f i DraggingDemo.obj
 0001:000126d0       ?_Change_array@?$vector@PAVDisplayableObject@@V?$allocator@PAVDisplayableObject@@@std@@@std@@AAEXQAPAVDisplayableObject@@II@Z 004136d0 f i DraggingDemo.obj
 0001:000127a0       ?_Destroy@?$vector@PAVDisplayableObject@@V?$allocator@PAVDisplayableObject@@@std@@@std@@AAEXPAPAVDisplayableObject@@0@Z 004137a0 f i DraggingDemo.obj
 0001:000127d0       ?_Get_first@?$_Compressed_pair@V?$allocator@PAVDisplayableObject@@@std@@V?$_Vector_val@U?$_Simple_types@PAVDisplayableObject@@@std@@@2@$00@std@@QAEAAV?$allocator@PAVDisplayableObject@@@2@XZ 004137d0 f i DraggingDemo.obj
 0001:000127f0       ?_Get_first@?$_Compressed_pair@V?$allocator@PAVDisplayableObject@@@std@@V?$_Vector_val@U?$_Simple_types@PAVDisplayableObject@@@std@@@2@$00@std@@QBEABV?$allocator@PAVDisplayableObject@@@2@XZ 004137f0 f i DraggingDemo.obj
 0001:00012810       ?_Getal@?$vector@PAVDisplayableObject@@V?$allocator@PAVDisplayableObject@@@std@@@std@@AAEAAV?$allocator@PAVDisplayableObject@@@2@XZ 00413810 f i DraggingDemo.obj
 0001:00012830       ?_Getal@?$vector@PAVDisplayableObject@@V?$allocator@PAVDisplayableObject@@@std@@@std@@ABEABV?$allocator@PAVDisplayableObject@@@2@XZ 00413830 f i DraggingDemo.obj
 0001:00012850       ?_Orphan_range@?$vector@PAVDisplayableObject@@V?$allocator@PAVDisplayableObject@@@std@@@std@@ABEXPAPAVDisplayableObject@@0@Z 00413850 f i DraggingDemo.obj
 0001:000128f0       ?_Ufill@?$vector@PAVDisplayableObject@@V?$allocator@PAVDisplayableObject@@@std@@@std@@AAEPAPAVDisplayableObject@@PAPAV3@IU_Value_init_tag@2@@Z 004138f0 f i DraggingDemo.obj
 0001:00012920       ?_Umove_if_noexcept1@?$vector@PAVDisplayableObject@@V?$allocator@PAVDisplayableObject@@@std@@@std@@AAEXPAPAVDisplayableObject@@00U?$integral_constant@_N$00@2@@Z 00413920 f i DraggingDemo.obj
 0001:00012960       ?_Umove_if_noexcept@?$vector@PAVDisplayableObject@@V?$allocator@PAVDisplayableObject@@@std@@@std@@AAEXPAPAVDisplayableObject@@00@Z 00413960 f i DraggingDemo.obj
 0001:000129a0       ?_Xlength@?$vector@PAVDisplayableObject@@V?$allocator@PAVDisplayableObject@@@std@@@std@@CAXXZ 004139a0 f i DraggingDemo.obj
 0001:000129c0       ?allocate@?$allocator@PAVDisplayableObject@@@std@@QAEPAPAVDisplayableObject@@I@Z 004139c0 f i DraggingDemo.obj
 0001:000129f0       ?capacity@?$vector@PAVDisplayableObject@@V?$allocator@PAVDisplayableObject@@@std@@@std@@QBEIXZ 004139f0 f i DraggingDemo.obj
 0001:00012a20       ?checkDoDrag@DragableBaseClassObject@@UAEXHH@Z 00413a20 f i DraggingDemo.obj
 0001:00012aa0       ?checkFinishDrag@DragableBaseClassObject@@UAEXHH@Z 00413aa0 f i DraggingDemo.obj
 0001:00012ae0       ?checkStartDrag@DragableBaseClassObject@@UAEXHH@Z 00413ae0 f i DraggingDemo.obj
 0001:00012b60       ?checkWritable@DrawingSurface@@QAEXXZ 00413b60 f i DraggingDemo.obj
 0001:00012bb0       ?createObjectArray@DisplayableObjectContainer@@QAEXH@Z 00413bb0 f i DraggingDemo.obj
 0001:00012c00       ?deallocate@?$allocator@PAVDisplayableObject@@@std@@QAEXQAPAVDisplayableObject@@I@Z 00413c00 f i DraggingDemo.obj
 0001:00012c30       ?doDragRedraw@DragableBaseClassObject@@UAEXXZ 00413c30 f i DraggingDemo.obj
 0001:00012c50       ?drawableObjectsChanged@DisplayableObjectContainer@@QAEXXZ 00413c50 f i DraggingDemo.obj
 0001:00012c70       ?getIntsPerWindowRow@DrawingSurface@@QBEIXZ 00413c70 f i DraggingDemo.obj
 0001:00012c90       ?getSurfaceHeight@DrawingSurface@@QBEHXZ 00413c90 f i DraggingDemo.obj
 0001:00012cb0       ?getSurfaceWidth@DrawingSurface@@QBEHXZ 00413cb0 f i DraggingDemo.obj
 0001:00012cd0       ?getWindowHeight@BaseEngine@@QBEHXZ 00413cd0 f i DraggingDemo.obj
 0001:00012cf0       ?getWindowWidth@BaseEngine@@QBEHXZ 00413cf0 f i DraggingDemo.obj
 0001:00012d10       ?isVisible@DisplayableObject@@QBE_NXZ 00413d10 f i DraggingDemo.obj
 0001:00012d30       ?max_size@?$_Default_allocator_traits@V?$allocator@PAVDisplayableObject@@@std@@@std@@SAIABV?$allocator@PAVDisplayableObject@@@2@@Z 00413d30 f i DraggingDemo.obj
 0001:00012d40       ?max_size@?$vector@PAVDisplayableObject@@V?$allocator@PAVDisplayableObject@@@std@@@std@@QBEIXZ 00413d40 f i DraggingDemo.obj
 0001:00012d90       ?notifyObjectsAboutMouse@BaseEngine@@QAEX_N@Z 00413d90 f i DraggingDemo.obj
 0001:00012db0       ?rawSetPixel@DrawingSurface@@QAEXHHI@Z 00413db0 f i DraggingDemo.obj
 0001:00012e60       ?resize@?$vector@PAVDisplayableObject@@V?$allocator@PAVDisplayableObject@@@std@@@std@@QAEXI@Z 00413e60 f i DraggingDemo.obj
 0001:00012e90       ?setBackgroundPixel@BaseEngine@@QAEXHHI@Z 00413e90 f i DraggingDemo.obj
 0001:00012ec0       ?setPixel@DrawingSurface@@QAEXHHI@Z 00413ec0 f i DraggingDemo.obj
 0001:00012f30       ?setVisible@DisplayableObject@@QAEX_N@Z 00413f30 f i DraggingDemo.obj
 0001:00012f50       ?storeObjectInArray@DisplayableObjectContainer@@QAEXHPAVDisplayableObject@@@Z 00413f50 f i DraggingDemo.obj
 0001:00012f90       ?virtDraw@DragableImageObject@@UAEXXZ 00413f90 f i DraggingDemo.obj
 0001:00013010       ?virtDraw@ImageObject@@UAEXXZ 00414010 f i DraggingDemo.obj
 0001:00013090       ?virtMouseDown@DragableImageObject@@UAEXHHH@Z 00414090 f i DraggingDemo.obj
 0001:000130c0       ?virtMouseDown@DragableObject@@UAEXHHH@Z 004140c0 f i DraggingDemo.obj
 0001:000130f0       ?virtMouseMoved@DragableImageObject@@UAEXHH@Z 004140f0 f i DraggingDemo.obj
 0001:00013120       ?virtMouseMoved@DragableObject@@UAEXHH@Z 00414120 f i DraggingDemo.obj
 0001:00013150       ?virtMouseUp@DragableImageObject@@UAEXHHH@Z 00414150 f i DraggingDemo.obj
 0001:00013180       ?virtMouseUp@DragableObject@@UAEXHHH@Z 00414180 f i DraggingDemo.obj
 0001:000131c0       ??0DrawingSurface@@QAE@PAVBaseEngine@@@Z 004141c0 f   DrawingSurface.obj
 0001:00013260       ?drawLine@DrawingSurface@@QAEXNNNNI@Z 00414260 f   DrawingSurface.obj
 0001:00013440       ?drawThickLine@DrawingSurface@@QAEXNNNNIH@Z 00414440 f   DrawingSurface.obj
 0001:000138e0       ?drawVerticalSidedRegion@DrawingSurface@@QAEXNNNNNNI@Z 004148e0 f   DrawingSurface.obj
 0001:00013c80       ?drawRectangle@DrawingSurface@@QAEXHHHHI@Z 00414c80 f   DrawingSurface.obj
 0001:00013d90       ?drawOval@DrawingSurface@@QAEXHHHHI@Z 00414d90 f   DrawingSurface.obj
 0001:00013f60       ?rawDrawOval@DrawingSurface@@QAEXHHHHI@Z 00414f60 f   DrawingSurface.obj
 0001:000140c0       ?drawHollowOval@DrawingSurface@@QAEXHHHHHHHHI@Z 004150c0 f   DrawingSurface.obj
 0001:000143e0       ?drawPolygon@DrawingSurface@@QAEXHPAN0I@Z 004153e0 f   DrawingSurface.obj
 0001:00014b60       ?drawFastString@DrawingSurface@@QAEXHHPBDIPAVFont@@@Z 00415b60 f   DrawingSurface.obj
 0001:00014c50       ?drawScalableString@DrawingSurface@@QAEXHHPBDIPAVFont@@@Z 00415c50 f   DrawingSurface.obj
 0001:00014e20       ?drawShortenedArrow@DrawingSurface@@QAEXHHHHHHIHH@Z 00415e20 f   DrawingSurface.obj
 0001:000153a0       ?drawShortenedLine@DrawingSurface@@QAEXHHHHHHIH@Z 004163a0 f   DrawingSurface.obj
 0001:000157a0       ?drawTriangle@DrawingSurface@@QAEXNNNNNNI@Z 004167a0 f   DrawingSurface.obj
 0001:00015af0       ?copyEntireSurface@DrawingSurface@@QAEXPAV1@@Z 00416af0 f   DrawingSurface.obj
 0001:00015b40       ?copyRectangleFrom@DrawingSurface@@QAEXPAV1@HHHHHH@Z 00416b40 f   DrawingSurface.obj
 0001:00015d40       ?getAngle@DrawingSurface@@SANNNNN@Z 00416d40 f   DrawingSurface.obj
 0001:00015de0       ?getVirtualRedrawMinX@DrawingSurface@@QAEHXZ 00416de0 f   DrawingSurface.obj
 0001:00015e30       ?getVirtualRedrawMinY@DrawingSurface@@QAEHXZ 00416e30 f   DrawingSurface.obj
 0001:00015e80       ?getVirtualRedrawMaxX@DrawingSurface@@QAEHXZ 00416e80 f   DrawingSurface.obj
 0001:00015ee0       ?getVirtualRedrawMaxY@DrawingSurface@@QAEHXZ 00416ee0 f   DrawingSurface.obj
 0001:00015f40       ?getRealRedrawMinX@DrawingSurface@@QAEHXZ 00416f40 f   DrawingSurface.obj
 0001:00015f90       ?getRealRedrawMinY@DrawingSurface@@QAEHXZ 00416f90 f   DrawingSurface.obj
 0001:00015fe0       ?getRealRedrawMaxX@DrawingSurface@@QAEHXZ 00416fe0 f   DrawingSurface.obj
 0001:00016030       ?getRealRedrawMaxY@DrawingSurface@@QAEHXZ 00417030 f   DrawingSurface.obj
 0001:00016c30       ??$swapPoints@H@@YAXAAH0@Z 00417c30 f i DrawingSurface.obj
 0001:00016c60       ??$swapPoints@N@@YAXAAN0@Z 00417c60 f i DrawingSurface.obj
 0001:00016ca0       ?checkBlitable@DrawingSurface@@QAEXXZ 00417ca0 f i DrawingSurface.obj
 0001:00016cf0       ?convertRealToVirtualXPosition@DrawingSurface@@QAEHH@Z 00417cf0 f i DrawingSurface.obj
 0001:00016d30       ?convertRealToVirtualYPosition@DrawingSurface@@QAEHH@Z 00417d30 f i DrawingSurface.obj
 0001:00016d70       ?getDefaultFont@BaseEngine@@QBEPAVFont@@XZ 00417d70 f i DrawingSurface.obj
 0001:00016d90       ?getRedrawAllScreen@BaseEngine@@QAEHXZ 00417d90 f i DrawingSurface.obj
 0001:00016db0       ?getRedrawRectRealBottom@BaseEngine@@QAEHXZ 00417db0 f i DrawingSurface.obj
 0001:00016dd0       ?getRedrawRectRealLeft@BaseEngine@@QAEHXZ 00417dd0 f i DrawingSurface.obj
 0001:00016df0       ?getRedrawRectRealRight@BaseEngine@@QAEHXZ 00417df0 f i DrawingSurface.obj
 0001:00016e10       ?getRedrawRectRealTop@BaseEngine@@QAEHXZ 00417e10 f i DrawingSurface.obj
 0001:00016e30       ?getRedrawRectVirtualBottom@BaseEngine@@QAEHXZ 00417e30 f i DrawingSurface.obj
 0001:00016e50       ?getRedrawRectVirtualLeft@BaseEngine@@QAEHXZ 00417e50 f i DrawingSurface.obj
 0001:00016e70       ?getRedrawRectVirtualRight@BaseEngine@@QAEHXZ 00417e70 f i DrawingSurface.obj
 0001:00016e90       ?getRedrawRectVirtualTop@BaseEngine@@QAEHXZ 00417e90 f i DrawingSurface.obj
 0001:00016eb0       ?getTTFFont@Font@@QAEPAU_TTF_Font@@XZ 00417eb0 f i DrawingSurface.obj
 0001:00016ed0       ?mySDLTempRelockSurface@DrawingSurface@@QAEXXZ 00417ed0 f i DrawingSurface.obj
 0001:00016f20       ?mySDLTempUnlockSurface@DrawingSurface@@QAEXXZ 00417f20 f i DrawingSurface.obj
 0001:00016f70       ?setDrawPointsFilter@DrawingSurface@@QAEXPAVFilterPoints@@@Z 00417f70 f i DrawingSurface.obj
 0001:00016f90       ??0FlashingDemo@@QAE@XZ    00417f90 f   FlashingDemo.obj
 0001:00017050       ??1FlashingDemo@@UAE@XZ    00418050 f   FlashingDemo.obj
 0001:000170a0       ?virtSetupBackgroundBuffer@FlashingDemo@@UAEXXZ 004180a0 f   FlashingDemo.obj
 0001:00017520       ?virtMainLoopDoBeforeUpdate@FlashingDemo@@UAEXXZ 00418520 f   FlashingDemo.obj
 0001:000175e0       ?virtCreateSurfaces@FlashingDemo@@UAEXXZ 004185e0 f   FlashingDemo.obj
 0001:00017800       ??1DrawingSurface@@QAE@XZ  00418800 f i FlashingDemo.obj
 0001:00017810       ??_EFlashingDemo@@UAEPAXI@Z 00418810 f i FlashingDemo.obj
 0001:00017810       ??_GFlashingDemo@@UAEPAXI@Z 00418810 f i FlashingDemo.obj
 0001:00017850       ?copyAllBackgroundBuffer@BaseEngine@@UAEXXZ 00418850 f i FlashingDemo.obj
 0001:00017880       ?copyBackgroundPixels@BaseEngine@@UAEXHHHH@Z 00418880 f i FlashingDemo.obj
 0001:000178d0       ?createSurface@DrawingSurface@@QAEXHH@Z 004188d0 f i FlashingDemo.obj
 0001:00017920       ?destroyOldObjects@DisplayableObjectContainer@@UAEX_N@Z 00418920 f i FlashingDemo.obj
 0001:00017a10       ?fillBackground@BaseEngine@@UAEXI@Z 00418a10 f i FlashingDemo.obj
 0001:00017a40       ?fillSurface@DrawingSurface@@QAEXI@Z 00418a40 f i FlashingDemo.obj
 0001:00017ad0       ?filter@BaseEngine@@UAE_NPAVDrawingSurface@@AAH1AAI@Z 00418ad0 f i FlashingDemo.obj
 0001:00017b90       ?filterConvertRealToVirtualXPosition@FilterPoints@@UAEHH@Z 00418b90 f i FlashingDemo.obj
 0001:00017bb0       ?filterConvertRealToVirtualYPosition@FilterPoints@@UAEHH@Z 00418bb0 f i FlashingDemo.obj
 0001:00017bd0       ?filterConvertVirtualToRealXPosition@FilterPoints@@UAEHH@Z 00418bd0 f i FlashingDemo.obj
 0001:00017bf0       ?filterConvertVirtualToRealYPosition@FilterPoints@@UAEHH@Z 00418bf0 f i FlashingDemo.obj
 0001:00017c10       ?getModifiedTime@BaseEngine@@UBEHXZ 00418c10 f i FlashingDemo.obj
 0001:00017c50       ?redrawDisplay@BaseEngine@@QAEXXZ 00418c50 f i FlashingDemo.obj
 0001:00017c70       ?size@?$vector@PAVDisplayableObject@@V?$allocator@PAVDisplayableObject@@@std@@@std@@QBEIXZ 00418c70 f i FlashingDemo.obj
 0001:00017ca0       ?virtBackgroundMouseDown@BaseEngine@@UAEXHHHHH@Z 00418ca0 f i FlashingDemo.obj
 0001:00017cb0       ?virtMainLoopDoAfterUpdate@BaseEngine@@UAEXXZ 00418cb0 f i FlashingDemo.obj
 0001:00017cc0       ?virtMainLoopPostUpdate@BaseEngine@@UAEXXZ 00418cc0 f i FlashingDemo.obj
 0001:00017cd0       ?virtMainLoopPreUpdate@BaseEngine@@UAEXXZ 00418cd0 f i FlashingDemo.obj
 0001:00017ce0       ?virtMainLoopStartIteration@BaseEngine@@UAEXXZ 00418ce0 f i FlashingDemo.obj
 0001:00017cf0       ?virtMouseWheel@BaseEngine@@UAEXHHHH@Z 00418cf0 f i FlashingDemo.obj
 0001:00017d00       ?virtPostDraw@BaseEngine@@UAEXXZ 00418d00 f i FlashingDemo.obj
 0001:00017d10       ?virtPreDraw@BaseEngine@@UAEXXZ 00418d10 f i FlashingDemo.obj
 0001:00017d20       ?virtRealMouseDown@BaseEngine@@UAEXHHH@Z 00418d20 f i FlashingDemo.obj
 0001:00017d30       ?virtRealMouseUp@BaseEngine@@UAEXHHH@Z 00418d30 f i FlashingDemo.obj
 0001:00017d40       ?virtTouchEvent@BaseEngine@@UAEXHH_J0MMMMM@Z 00418d40 f i FlashingDemo.obj
 0001:00017d50       ?virtSetupBackgroundBuffer@ImageObjectDemo@@UAEXXZ 00418d50 f   ImageObjectDemo.obj
 0001:00017f20       ?virtInitialiseObjects@ImageObjectDemo@@UAEHXZ 00418f20 f   ImageObjectDemo.obj
 0001:00017fe0       ?virtDrawStringsUnderneath@ImageObjectDemo@@UAEXXZ 00418fe0 f   ImageObjectDemo.obj
 0001:00018090       ?virtDrawStringsOnTop@ImageObjectDemo@@UAEXXZ 00419090 f   ImageObjectDemo.obj
 0001:00018110       ?virtMouseDown@ImageObjectDemo@@UAEXHHH@Z 00419110 f   ImageObjectDemo.obj
 0001:00018130       ?virtKeyDown@ImageObjectDemo@@UAEXH@Z 00419130 f   ImageObjectDemo.obj
 0001:00018290       ??0BouncingImageObject@@QAE@PAVBaseEngine@@V?$basic_string@DU?$char_traits@D@std@@V?$allocator@D@2@@std@@@Z 00419290 f i ImageObjectDemo.obj
 0001:00018380       ??0BouncingObject@@QAE@PAVBaseEngine@@@Z 00419380 f i ImageObjectDemo.obj
 0001:00018480       ??1BouncingImageObject@@UAE@XZ 00419480 f i ImageObjectDemo.obj
 0001:000184b0       ??1BouncingObject@@UAE@XZ  004194b0 f i ImageObjectDemo.obj
 0001:000184d0       ??_EBouncingImageObject@@UAEPAXI@Z 004194d0 f i ImageObjectDemo.obj
 0001:000184d0       ??_GBouncingImageObject@@UAEPAXI@Z 004194d0 f i ImageObjectDemo.obj
 0001:00018510       ??_GBouncingObject@@UAEPAXI@Z 00419510 f i ImageObjectDemo.obj
 0001:00018510       ??_EBouncingObject@@UAEPAXI@Z 00419510 f i ImageObjectDemo.obj
 0001:00018550       ?isPaused@BaseEngine@@QAE_NXZ 00419550 f i ImageObjectDemo.obj
 0001:00018590       ?loadImage@BaseEngine@@QAE?AVSimpleImage@@V?$basic_string@DU?$char_traits@D@std@@V?$allocator@D@2@@std@@_N@Z 00419590 f i ImageObjectDemo.obj
 0001:00018650       ?lockAndSetupBackground@BaseEngine@@QAEXXZ 00419650 f i ImageObjectDemo.obj
 0001:00018690       ?pause@BaseEngine@@QAEXXZ  00419690 f i ImageObjectDemo.obj
 0001:000186c0       ?shrinkBy@SimpleImage@@QAE?AV1@H@Z 004196c0 f i ImageObjectDemo.obj
 0001:000187d0       ?unpause@BaseEngine@@QAEXXZ 004197d0 f i ImageObjectDemo.obj
 0001:00018820       ?virtDoUpdate@BouncingObject@@UAEXH@Z 00419820 f i ImageObjectDemo.obj
 0001:00018c20       ?virtDraw@BouncingImageObject@@UAEXXZ 00419c20 f i ImageObjectDemo.obj
 0001:00018ca0       ?virtDraw@BouncingObject@@UAEXXZ 00419ca0 f i ImageObjectDemo.obj
 0001:00018d40       __vsnprintf_l              00419d40 f i ImageObjectDemo.obj
 0001:00018db0       __vsprintf_l               00419db0 f i ImageObjectDemo.obj
 0001:00018de0       _sprintf                   00419de0 f i ImageObjectDemo.obj
 0001:00018e20       ?savePositions@JigsawDemo@@QAEXXZ 00419e20 f   JigsawDemo.obj
 0001:00018e90       ?virtSetupBackgroundBuffer@JigsawDemo@@UAEXXZ 00419e90 f   JigsawDemo.obj
 0001:00018eb0       ?virtInitialise@JigsawDemo@@UAEHXZ 00419eb0 f   JigsawDemo.obj
 0001:00018f00       ?virtInitialiseObjects@JigsawDemo@@UAEHXZ 00419f00 f   JigsawDemo.obj
 0001:000193a0       ?virtKeyDown@JigsawDemo@@UAEXH@Z 0041a3a0 f   JigsawDemo.obj
 0001:000194a0       ?virtMainLoopDoBeforeUpdate@JigsawDemo@@UAEXXZ 0041a4a0 f   JigsawDemo.obj
 0001:000194d0       ?virtKeyUp@JigsawDemo@@UAEXH@Z 0041a4d0 f   JigsawDemo.obj
 0001:000194f0       ?virtRealMouseDown@JigsawDemo@@UAEXHHH@Z 0041a4f0 f   JigsawDemo.obj
 0001:000196f0       ?virtBackgroundMouseDown@JigsawDemo@@UAEXHHHHH@Z 0041a6f0 f   JigsawDemo.obj
 0001:00019720       ?virtMouseMoved@JigsawDemo@@UAEXHH@Z 0041a720 f   JigsawDemo.obj
 0001:00019770       ?virtMouseUp@JigsawDemo@@UAEXHHH@Z 0041a770 f   JigsawDemo.obj
 0001:000197d0       ?virtMouseWheel@JigsawDemo@@UAEXHHHH@Z 0041a7d0 f   JigsawDemo.obj
 0001:00019890       ?virtPreDraw@JigsawDemo@@UAEXXZ 0041a890 f   JigsawDemo.obj
 0001:000198a0       ?virtPostDraw@JigsawDemo@@UAEXXZ 0041a8a0 f   JigsawDemo.obj
 0001:00019e20       ??$?0ABV<lambda_2870de01b601283699da779de20905fc>@@$0A@@?$_Func_impl_no_alloc@V<lambda_2870de01b601283699da779de20905fc>@@XPAVDisplayableObject@@@std@@QAE@ABV<lambda_2870de01b601283699da779de20905fc>@@@Z 0041ae20 f i JigsawDemo.obj
 0001:00019e60       ??$?0ABV<lambda_341a6657abb2758c42a6873833e6116f>@@$0A@@?$_Func_impl_no_alloc@V<lambda_341a6657abb2758c42a6873833e6116f>@@XPAVDisplayableObject@@@std@@QAE@ABV<lambda_341a6657abb2758c42a6873833e6116f>@@@Z 0041ae60 f i JigsawDemo.obj
 0001:00019eb0       ??$?0ABV<lambda_369f3aee610e50bbd15c3a78d9c8686f>@@$0A@@?$_Func_impl_no_alloc@V<lambda_369f3aee610e50bbd15c3a78d9c8686f>@@XPAVDisplayableObject@@@std@@QAE@ABV<lambda_369f3aee610e50bbd15c3a78d9c8686f>@@@Z 0041aeb0 f i JigsawDemo.obj
 0001:00019f40       ??$?0ABV<lambda_4d3c514b9e5ad6cc29096aa3b57f98f2>@@$0A@@?$_Func_impl_no_alloc@V<lambda_4d3c514b9e5ad6cc29096aa3b57f98f2>@@XPAVDisplayableObject@@@std@@QAE@ABV<lambda_4d3c514b9e5ad6cc29096aa3b57f98f2>@@@Z 0041af40 f i JigsawDemo.obj
 0001:00019fd0       ??$?0ABV<lambda_817584b2460f1bcab806f46a25c321a8>@@$0A@@?$_Func_impl_no_alloc@V<lambda_817584b2460f1bcab806f46a25c321a8>@@XPAVDisplayableObject@@@std@@QAE@ABV<lambda_817584b2460f1bcab806f46a25c321a8>@@@Z 0041afd0 f i JigsawDemo.obj
 0001:0001a070       ??$?0V<lambda_2870de01b601283699da779de20905fc>@@$0A@@?$_Func_impl_no_alloc@V<lambda_2870de01b601283699da779de20905fc>@@XPAVDisplayableObject@@@std@@QAE@$$QAV<lambda_2870de01b601283699da779de20905fc>@@@Z 0041b070 f i JigsawDemo.obj
 0001:0001a0b0       ??$?0V<lambda_2870de01b601283699da779de20905fc>@@$0A@@?$function@$$A6AXPAVDisplayableObject@@@Z@std@@QAE@V<lambda_2870de01b601283699da779de20905fc>@@@Z 0041b0b0 f i JigsawDemo.obj
 0001:0001a130       ??$?0V<lambda_341a6657abb2758c42a6873833e6116f>@@$0A@@?$_Func_impl_no_alloc@V<lambda_341a6657abb2758c42a6873833e6116f>@@XPAVDisplayableObject@@@std@@QAE@$$QAV<lambda_341a6657abb2758c42a6873833e6116f>@@@Z 0041b130 f i JigsawDemo.obj
 0001:0001a180       ??$?0V<lambda_341a6657abb2758c42a6873833e6116f>@@$0A@@?$function@$$A6AXPAVDisplayableObject@@@Z@std@@QAE@V<lambda_341a6657abb2758c42a6873833e6116f>@@@Z 0041b180 f i JigsawDemo.obj
 0001:0001a200       ??$?0V<lambda_369f3aee610e50bbd15c3a78d9c8686f>@@$0A@@?$_Func_impl_no_alloc@V<lambda_369f3aee610e50bbd15c3a78d9c8686f>@@XPAVDisplayableObject@@@std@@QAE@$$QAV<lambda_369f3aee610e50bbd15c3a78d9c8686f>@@@Z 0041b200 f i JigsawDemo.obj
 0001:0001a250       ??$?0V<lambda_369f3aee610e50bbd15c3a78d9c8686f>@@$0A@@?$function@$$A6AXPAVDisplayableObject@@@Z@std@@QAE@V<lambda_369f3aee610e50bbd15c3a78d9c8686f>@@@Z 0041b250 f i JigsawDemo.obj
 0001:0001a390       ??$?0V<lambda_4d3c514b9e5ad6cc29096aa3b57f98f2>@@$0A@@?$_Func_impl_no_alloc@V<lambda_4d3c514b9e5ad6cc29096aa3b57f98f2>@@XPAVDisplayableObject@@@std@@QAE@$$QAV<lambda_4d3c514b9e5ad6cc29096aa3b57f98f2>@@@Z 0041b390 f i JigsawDemo.obj
 0001:0001a3e0       ??$?0V<lambda_4d3c514b9e5ad6cc29096aa3b57f98f2>@@$0A@@?$function@$$A6AXPAVDisplayableObject@@@Z@std@@QAE@V<lambda_4d3c514b9e5ad6cc29096aa3b57f98f2>@@@Z 0041b3e0 f i JigsawDemo.obj
 0001:0001a520       ??$?0V<lambda_817584b2460f1bcab806f46a25c321a8>@@$0A@@?$_Func_impl_no_alloc@V<lambda_817584b2460f1bcab806f46a25c321a8>@@XPAVDisplayableObject@@@std@@QAE@$$QAV<lambda_817584b2460f1bcab806f46a25c321a8>@@@Z 0041b520 f i JigsawDemo.obj
 0001:0001a570       ??$?0V<lambda_817584b2460f1bcab806f46a25c321a8>@@$0A@@?$function@$$A6AXPAVDisplayableObject@@@Z@std@@QAE@V<lambda_817584b2460f1bcab806f46a25c321a8>@@@Z 0041b570 f i JigsawDemo.obj
 0001:0001a6c0       ??$_Adl_verify_range@V?$_Vector_const_iterator@V?$_Vector_val@U?$_Simple_types@PAVDisplayableObject@@@std@@@std@@@std@@V12@@std@@YAXABV?$_Vector_const_iterator@V?$_Vector_val@U?$_Simple_types@PAVDisplayableObject@@@std@@@std@@@0@0@Z 0041b6c0 f i JigsawDemo.obj
 0001:0001a6e0       ??$_Adl_verify_range@V?$_Vector_iterator@V?$_Vector_val@U?$_Simple_types@PAVDisplayableObject@@@std@@@std@@@std@@V12@@std@@YAXABV?$_Vector_iterator@V?$_Vector_val@U?$_Simple_types@PAVDisplayableObject@@@std@@@std@@@0@0@Z 0041b6e0 f i JigsawDemo.obj
 0001:0001a700       ??$_Call@AAV<lambda_2870de01b601283699da779de20905fc>@@PAVDisplayableObject@@@?$_Invoker_ret@X$00@std@@SAXAAV<lambda_2870de01b601283699da779de20905fc>@@$$QAPAVDisplayableObject@@@Z 0041b700 f i JigsawDemo.obj
 0001:0001a730       ??$_Call@AAV<lambda_2870de01b601283699da779de20905fc>@@PAVDisplayableObject@@@_Invoker_functor@std@@SAXAAV<lambda_2870de01b601283699da779de20905fc>@@$$QAPAVDisplayableObject@@@Z 0041b730 f i JigsawDemo.obj
 0001:0001a760       ??$_Call@AAV<lambda_341a6657abb2758c42a6873833e6116f>@@PAVDisplayableObject@@@?$_Invoker_ret@X$00@std@@SAXAAV<lambda_341a6657abb2758c42a6873833e6116f>@@$$QAPAVDisplayableObject@@@Z 0041b760 f i JigsawDemo.obj
 0001:0001a790       ??$_Call@AAV<lambda_341a6657abb2758c42a6873833e6116f>@@PAVDisplayableObject@@@_Invoker_functor@std@@SAXAAV<lambda_341a6657abb2758c42a6873833e6116f>@@$$QAPAVDisplayableObject@@@Z 0041b790 f i JigsawDemo.obj
 0001:0001a7c0       ??$_Call@AAV<lambda_369f3aee610e50bbd15c3a78d9c8686f>@@PAVDisplayableObject@@@?$_Invoker_ret@X$00@std@@SAXAAV<lambda_369f3aee610e50bbd15c3a78d9c8686f>@@$$QAPAVDisplayableObject@@@Z 0041b7c0 f i JigsawDemo.obj
 0001:0001a7f0       ??$_Call@AAV<lambda_369f3aee610e50bbd15c3a78d9c8686f>@@PAVDisplayableObject@@@_Invoker_functor@std@@SAXAAV<lambda_369f3aee610e50bbd15c3a78d9c8686f>@@$$QAPAVDisplayableObject@@@Z 0041b7f0 f i JigsawDemo.obj
 0001:0001a880       ??$_Call@AAV<lambda_4d3c514b9e5ad6cc29096aa3b57f98f2>@@PAVDisplayableObject@@@?$_Invoker_ret@X$00@std@@SAXAAV<lambda_4d3c514b9e5ad6cc29096aa3b57f98f2>@@$$QAPAVDisplayableObject@@@Z 0041b880 f i JigsawDemo.obj
 0001:0001a8b0       ??$_Call@AAV<lambda_4d3c514b9e5ad6cc29096aa3b57f98f2>@@PAVDisplayableObject@@@_Invoker_functor@std@@SAXAAV<lambda_4d3c514b9e5ad6cc29096aa3b57f98f2>@@$$QAPAVDisplayableObject@@@Z 0041b8b0 f i JigsawDemo.obj
 0001:0001a940       ??$_Call@AAV<lambda_817584b2460f1bcab806f46a25c321a8>@@PAVDisplayableObject@@@?$_Invoker_ret@X$00@std@@SAXAAV<lambda_817584b2460f1bcab806f46a25c321a8>@@$$QAPAVDisplayableObject@@@Z 0041b940 f i JigsawDemo.obj
 0001:0001a970       ??$_Call@AAV<lambda_817584b2460f1bcab806f46a25c321a8>@@PAVDisplayableObject@@@_Invoker_functor@std@@SAXAAV<lambda_817584b2460f1bcab806f46a25c321a8>@@$$QAPAVDisplayableObject@@@Z 0041b970 f i JigsawDemo.obj
 0001:0001aa00       ??$_Deallocate@$03$0A@@std@@YAXPAXI@Z 0041ba00 f i JigsawDemo.obj
 0001:0001aa70       ??$_Emplace_back_with_unused_capacity@ABQAVDisplayableObject@@@?$vector@PAVDisplayableObject@@V?$allocator@PAVDisplayableObject@@@std@@@std@@AAE@ABQAVDisplayableObject@@@Z 0041ba70 f i JigsawDemo.obj
 0001:0001ab10       ??$_Emplace_reallocate@ABQAVDisplayableObject@@@?$vector@PAVDisplayableObject@@V?$allocator@PAVDisplayableObject@@@std@@@std@@QAEPAPAVDisplayableObject@@QAPAV2@ABQAV2@@Z 0041bb10 f i JigsawDemo.obj
 0001:0001ad50       ??$_Find_unchecked1@PAPAVDisplayableObject@@PAV1@@std@@YAPAPAVDisplayableObject@@PAPAV1@QAPAV1@ABQAV1@U?$integral_constant@_N$0A@@0@@Z 0041bd50 f i JigsawDemo.obj
 0001:0001ad90       ??$_Find_unchecked@PAPAVDisplayableObject@@PAV1@@std@@YAPAPAVDisplayableObject@@QAPAV1@0ABQAV1@@Z 0041bd90 f i JigsawDemo.obj
 0001:0001adc0       ??$_Get_unwrapped@AAV?$_Vector_const_iterator@V?$_Vector_val@U?$_Simple_types@PAVDisplayableObject@@@std@@@std@@@std@@@std@@YA@AAV?$_Vector_const_iterator@V?$_Vector_val@U?$_Simple_types@PAVDisplayableObject@@@std@@@std@@@0@@Z 0041bdc0 f i JigsawDemo.obj
 0001:0001add0       ??$_Get_unwrapped@AAV?$_Vector_iterator@V?$_Vector_val@U?$_Simple_types@PAVDisplayableObject@@@std@@@std@@@std@@@std@@YA@AAV?$_Vector_iterator@V?$_Vector_val@U?$_Simple_types@PAVDisplayableObject@@@std@@@std@@@0@@Z 0041bdd0 f i JigsawDemo.obj
 0001:0001ade0       ??$_Get_unwrapped@ABV?$_Vector_iterator@V?$_Vector_val@U?$_Simple_types@PAVDisplayableObject@@@std@@@std@@@std@@@std@@YA@ABV?$_Vector_iterator@V?$_Vector_val@U?$_Simple_types@PAVDisplayableObject@@@std@@@std@@@0@@Z 0041bde0 f i JigsawDemo.obj
 0001:0001adf0       ??$_Move_unchecked@PAPAVDisplayableObject@@PAPAV1@@std@@YAPAPAVDisplayableObject@@PAPAV1@00@Z 0041bdf0 f i JigsawDemo.obj
 0001:0001ae10       ??$_Refancy@PAPAVDisplayableObject@@$0A@@std@@YAPAPAVDisplayableObject@@PAPAV1@@Z 0041be10 f i JigsawDemo.obj
 0001:0001ae20       ??$_Reset@V<lambda_2870de01b601283699da779de20905fc>@@@?$_Func_class@XPAVDisplayableObject@@@std@@IAEX$$QAV<lambda_2870de01b601283699da779de20905fc>@@@Z 0041be20 f i JigsawDemo.obj
 0001:0001ae90       ??$_Reset@V<lambda_341a6657abb2758c42a6873833e6116f>@@@?$_Func_class@XPAVDisplayableObject@@@std@@IAEX$$QAV<lambda_341a6657abb2758c42a6873833e6116f>@@@Z 0041be90 f i JigsawDemo.obj
 0001:0001af00       ??$_Reset@V<lambda_369f3aee610e50bbd15c3a78d9c8686f>@@@?$_Func_class@XPAVDisplayableObject@@@std@@IAEX$$QAV<lambda_369f3aee610e50bbd15c3a78d9c8686f>@@@Z 0041bf00 f i JigsawDemo.obj
 0001:0001afe0       ??$_Reset@V<lambda_4d3c514b9e5ad6cc29096aa3b57f98f2>@@@?$_Func_class@XPAVDisplayableObject@@@std@@IAEX$$QAV<lambda_4d3c514b9e5ad6cc29096aa3b57f98f2>@@@Z 0041bfe0 f i JigsawDemo.obj
 0001:0001b0c0       ??$_Reset@V<lambda_817584b2460f1bcab806f46a25c321a8>@@@?$_Func_class@XPAVDisplayableObject@@@std@@IAEX$$QAV<lambda_817584b2460f1bcab806f46a25c321a8>@@@Z 0041c0c0 f i JigsawDemo.obj
 0001:0001b1a0       ??$_Seek_wrapped@V?$_Vector_iterator@V?$_Vector_val@U?$_Simple_types@PAVDisplayableObject@@@std@@@std@@@std@@PAPAVDisplayableObject@@@std@@YAXAAV?$_Vector_iterator@V?$_Vector_val@U?$_Simple_types@PAVDisplayableObject@@@std@@@std@@@0@$$QAPAPAVDisplayableObject@@@Z 0041c1a0 f i JigsawDemo.obj
 0001:0001b1c0       ??$_Test_callable@V<lambda_2870de01b601283699da779de20905fc>@@@std@@YA_NABV<lambda_2870de01b601283699da779de20905fc>@@@Z 0041c1c0 f i JigsawDemo.obj
 0001:0001b1d0       ??$_Test_callable@V<lambda_341a6657abb2758c42a6873833e6116f>@@@std@@YA_NABV<lambda_341a6657abb2758c42a6873833e6116f>@@@Z 0041c1d0 f i JigsawDemo.obj
 0001:0001b1e0       ??$_Test_callable@V<lambda_369f3aee610e50bbd15c3a78d9c8686f>@@@std@@YA_NABV<lambda_369f3aee610e50bbd15c3a78d9c8686f>@@@Z 0041c1e0 f i JigsawDemo.obj
 0001:0001b200       ??$_Test_callable@V<lambda_4d3c514b9e5ad6cc29096aa3b57f98f2>@@@std@@YA_NABV<lambda_4d3c514b9e5ad6cc29096aa3b57f98f2>@@@Z 0041c200 f i JigsawDemo.obj
 0001:0001b220       ??$_Test_callable@V<lambda_817584b2460f1bcab806f46a25c321a8>@@@std@@YA_NABV<lambda_817584b2460f1bcab806f46a25c321a8>@@@Z 0041c220 f i JigsawDemo.obj
 0001:0001b240       ??$addressof@$$CBV<lambda_2870de01b601283699da779de20905fc>@@@std@@YAPBV<lambda_2870de01b601283699da779de20905fc>@@ABV1@@Z 0041c240 f i JigsawDemo.obj
 0001:0001b250       ??$addressof@$$CBV<lambda_341a6657abb2758c42a6873833e6116f>@@@std@@YAPBV<lambda_341a6657abb2758c42a6873833e6116f>@@ABV1@@Z 0041c250 f i JigsawDemo.obj
 0001:0001b260       ??$addressof@$$CBV<lambda_369f3aee610e50bbd15c3a78d9c8686f>@@@std@@YAPBV<lambda_369f3aee610e50bbd15c3a78d9c8686f>@@ABV1@@Z 0041c260 f i JigsawDemo.obj
 0001:0001b280       ??$addressof@$$CBV<lambda_4d3c514b9e5ad6cc29096aa3b57f98f2>@@@std@@YAPBV<lambda_4d3c514b9e5ad6cc29096aa3b57f98f2>@@ABV1@@Z 0041c280 f i JigsawDemo.obj
 0001:0001b2a0       ??$addressof@$$CBV<lambda_817584b2460f1bcab806f46a25c321a8>@@@std@@YAPBV<lambda_817584b2460f1bcab806f46a25c321a8>@@ABV1@@Z 0041c2a0 f i JigsawDemo.obj
 0001:0001b2c0       ??$addressof@$$CBV?$_Vector_val@U?$_Simple_types@PAVDisplayableObject@@@std@@@std@@@std@@YAPBV?$_Vector_val@U?$_Simple_types@PAVDisplayableObject@@@std@@@0@ABV10@@Z 0041c2c0 f i JigsawDemo.obj
 0001:0001b2d0       ??$addressof@V?$_Vector_val@U?$_Simple_types@PAVDisplayableObject@@@std@@@std@@@std@@YAPAV?$_Vector_val@U?$_Simple_types@PAVDisplayableObject@@@std@@@0@AAV10@@Z 0041c2d0 f i JigsawDemo.obj
 0001:0001b2e0       ??$construct@PAVDisplayableObject@@ABQAV1@@?$_Default_allocator_traits@V?$allocator@PAVDisplayableObject@@@std@@@std@@SAXAAV?$allocator@PAVDisplayableObject@@@1@QAPAVDisplayableObject@@ABQAV3@@Z 0041c2e0 f i JigsawDemo.obj
 0001:0001b320       ??$destroy@PAVDisplayableObject@@@?$_Default_allocator_traits@V?$allocator@PAVDisplayableObject@@@std@@@std@@SAXAAV?$allocator@PAVDisplayableObject@@@1@QAPAVDisplayableObject@@@Z 0041c320 f i JigsawDemo.obj
 0001:0001b330       ??$emplace_back@ABQAVDisplayableObject@@@?$vector@PAVDisplayableObject@@V?$allocator@PAVDisplayableObject@@@std@@@std@@QAE@ABQAVDisplayableObject@@@Z 0041c330 f i JigsawDemo.obj
 0001:0001b3b0       ??$find@V?$_Vector_iterator@V?$_Vector_val@U?$_Simple_types@PAVDisplayableObject@@@std@@@std@@@std@@PAVDisplayableObject@@@std@@YA?AV?$_Vector_iterator@V?$_Vector_val@U?$_Simple_types@PAVDisplayableObject@@@std@@@std@@@0@V10@V10@ABQAVDisplayableObject@@@Z 0041c3b0 f i JigsawDemo.obj
 0001:0001b4a0       ??$for_each@V?$_Vector_const_iterator@V?$_Vector_val@U?$_Simple_types@PAVDisplayableObject@@@std@@@std@@@std@@V?$function@$$A6AXPAVDisplayableObject@@@Z@2@@std@@YA?AV?$function@$$A6AXPAVDisplayableObject@@@Z@0@V?$_Vector_const_iterator@V?$_Vector_val@U?$_Simple_types@PAVDisplayableObject@@@std@@@std@@@0@0V10@@Z 0041c4a0 f i JigsawDemo.obj
 0001:0001b5b0       ??$forward@AAV<lambda_2870de01b601283699da779de20905fc>@@@std@@YAAAV<lambda_2870de01b601283699da779de20905fc>@@AAV1@@Z 0041c5b0 f i JigsawDemo.obj
 0001:0001b5c0       ??$forward@AAV<lambda_341a6657abb2758c42a6873833e6116f>@@@std@@YAAAV<lambda_341a6657abb2758c42a6873833e6116f>@@AAV1@@Z 0041c5c0 f i JigsawDemo.obj
 0001:0001b5d0       ??$forward@AAV<lambda_369f3aee610e50bbd15c3a78d9c8686f>@@@std@@YAAAV<lambda_369f3aee610e50bbd15c3a78d9c8686f>@@AAV1@@Z 0041c5d0 f i JigsawDemo.obj
 0001:0001b5f0       ??$forward@AAV<lambda_4d3c514b9e5ad6cc29096aa3b57f98f2>@@@std@@YAAAV<lambda_4d3c514b9e5ad6cc29096aa3b57f98f2>@@AAV1@@Z 0041c5f0 f i JigsawDemo.obj
 0001:0001b610       ??$forward@AAV<lambda_817584b2460f1bcab806f46a25c321a8>@@@std@@YAAAV<lambda_817584b2460f1bcab806f46a25c321a8>@@AAV1@@Z 0041c610 f i JigsawDemo.obj
 0001:0001b630       ??$forward@ABQAVDisplayableObject@@@std@@YAABQAVDisplayableObject@@ABQAV1@@Z 0041c630 f i JigsawDemo.obj
 0001:0001b640       ??$forward@ABV<lambda_2870de01b601283699da779de20905fc>@@@std@@YAABV<lambda_2870de01b601283699da779de20905fc>@@ABV1@@Z 0041c640 f i JigsawDemo.obj
 0001:0001b650       ??$forward@ABV<lambda_341a6657abb2758c42a6873833e6116f>@@@std@@YAABV<lambda_341a6657abb2758c42a6873833e6116f>@@ABV1@@Z 0041c650 f i JigsawDemo.obj
 0001:0001b660       ??$forward@ABV<lambda_369f3aee610e50bbd15c3a78d9c8686f>@@@std@@YAABV<lambda_369f3aee610e50bbd15c3a78d9c8686f>@@ABV1@@Z 0041c660 f i JigsawDemo.obj
 0001:0001b680       ??$forward@ABV<lambda_4d3c514b9e5ad6cc29096aa3b57f98f2>@@@std@@YAABV<lambda_4d3c514b9e5ad6cc29096aa3b57f98f2>@@ABV1@@Z 0041c680 f i JigsawDemo.obj
 0001:0001b6a0       ??$forward@ABV<lambda_817584b2460f1bcab806f46a25c321a8>@@@std@@YAABV<lambda_817584b2460f1bcab806f46a25c321a8>@@ABV1@@Z 0041c6a0 f i JigsawDemo.obj
 0001:0001b6c0       ??$forward@PAVDisplayableObject@@@std@@YA$$QAPAVDisplayableObject@@AAPAV1@@Z 0041c6c0 f i JigsawDemo.obj
 0001:0001b6d0       ??$forward@V<lambda_2870de01b601283699da779de20905fc>@@@std@@YA$$QAV<lambda_2870de01b601283699da779de20905fc>@@AAV1@@Z 0041c6d0 f i JigsawDemo.obj
 0001:0001b6e0       ??$forward@V<lambda_341a6657abb2758c42a6873833e6116f>@@@std@@YA$$QAV<lambda_341a6657abb2758c42a6873833e6116f>@@AAV1@@Z 0041c6e0 f i JigsawDemo.obj
 0001:0001b6f0       ??$forward@V<lambda_369f3aee610e50bbd15c3a78d9c8686f>@@@std@@YA$$QAV<lambda_369f3aee610e50bbd15c3a78d9c8686f>@@AAV1@@Z 0041c6f0 f i JigsawDemo.obj
 0001:0001b710       ??$forward@V<lambda_4d3c514b9e5ad6cc29096aa3b57f98f2>@@@std@@YA$$QAV<lambda_4d3c514b9e5ad6cc29096aa3b57f98f2>@@AAV1@@Z 0041c710 f i JigsawDemo.obj
 0001:0001b730       ??$forward@V<lambda_817584b2460f1bcab806f46a25c321a8>@@@std@@YA$$QAV<lambda_817584b2460f1bcab806f46a25c321a8>@@AAV1@@Z 0041c730 f i JigsawDemo.obj
 0001:0001b750       ??$invoke@AAV<lambda_2870de01b601283699da779de20905fc>@@PAVDisplayableObject@@@std@@YAXAAV<lambda_2870de01b601283699da779de20905fc>@@$$QAPAVDisplayableObject@@@Z 0041c750 f i JigsawDemo.obj
 0001:0001b780       ??$invoke@AAV<lambda_341a6657abb2758c42a6873833e6116f>@@PAVDisplayableObject@@@std@@YAXAAV<lambda_341a6657abb2758c42a6873833e6116f>@@$$QAPAVDisplayableObject@@@Z 0041c780 f i JigsawDemo.obj
 0001:0001b7b0       ??$invoke@AAV<lambda_369f3aee610e50bbd15c3a78d9c8686f>@@PAVDisplayableObject@@@std@@YAXAAV<lambda_369f3aee610e50bbd15c3a78d9c8686f>@@$$QAPAVDisplayableObject@@@Z 0041c7b0 f i JigsawDemo.obj
 0001:0001b810       ??$invoke@AAV<lambda_4d3c514b9e5ad6cc29096aa3b57f98f2>@@PAVDisplayableObject@@@std@@YAXAAV<lambda_4d3c514b9e5ad6cc29096aa3b57f98f2>@@$$QAPAVDisplayableObject@@@Z 0041c810 f i JigsawDemo.obj
 0001:0001b870       ??$invoke@AAV<lambda_817584b2460f1bcab806f46a25c321a8>@@PAVDisplayableObject@@@std@@YAXAAV<lambda_817584b2460f1bcab806f46a25c321a8>@@$$QAPAVDisplayableObject@@@Z 0041c870 f i JigsawDemo.obj
 0001:0001b8d0       ??$move@AAH@std@@YA$$QAHAAH@Z 0041c8d0 f i JigsawDemo.obj
 0001:0001b8e0       ??$move@AAV<lambda_2870de01b601283699da779de20905fc>@@@std@@YA$$QAV<lambda_2870de01b601283699da779de20905fc>@@AAV1@@Z 0041c8e0 f i JigsawDemo.obj
 0001:0001b8f0       ??$move@AAV<lambda_341a6657abb2758c42a6873833e6116f>@@@std@@YA$$QAV<lambda_341a6657abb2758c42a6873833e6116f>@@AAV1@@Z 0041c8f0 f i JigsawDemo.obj
 0001:0001b900       ??$move@AAV<lambda_369f3aee610e50bbd15c3a78d9c8686f>@@@std@@YA$$QAV<lambda_369f3aee610e50bbd15c3a78d9c8686f>@@AAV1@@Z 0041c900 f i JigsawDemo.obj
 0001:0001b920       ??$move@AAV<lambda_4d3c514b9e5ad6cc29096aa3b57f98f2>@@@std@@YA$$QAV<lambda_4d3c514b9e5ad6cc29096aa3b57f98f2>@@AAV1@@Z 0041c920 f i JigsawDemo.obj
 0001:0001b940       ??$move@AAV<lambda_817584b2460f1bcab806f46a25c321a8>@@@std@@YA$$QAV<lambda_817584b2460f1bcab806f46a25c321a8>@@AAV1@@Z 0041c940 f i JigsawDemo.obj
 0001:0001b960       ??$move@AAV?$function@$$A6AXPAVDisplayableObject@@@Z@std@@@std@@YA$$QAV?$function@$$A6AXPAVDisplayableObject@@@Z@0@AAV10@@Z 0041c960 f i JigsawDemo.obj
 0001:0001b970       ??$swap@H$0A@@std@@YAXAAH0@Z 0041c970 f i JigsawDemo.obj
 0001:0001b9c0       ??0<lambda_341a6657abb2758c42a6873833e6116f>@@QAE@QAVJigsawPiece@@@Z 0041c9c0 f i JigsawDemo.obj
 0001:0001b9e0       ??0<lambda_369f3aee610e50bbd15c3a78d9c8686f>@@QAE@QAVJigsawPiece@@@Z 0041c9e0 f i JigsawDemo.obj
 0001:0001ba00       ??0<lambda_4d3c514b9e5ad6cc29096aa3b57f98f2>@@QAE@QAVJigsawPiece@@@Z 0041ca00 f i JigsawDemo.obj
 0001:0001ba20       ??0<lambda_817584b2460f1bcab806f46a25c321a8>@@QAE@QAVJigsawPiece@@@Z 0041ca20 f i JigsawDemo.obj
 0001:0001ba70       ??0?$_Func_base@XPAVDisplayableObject@@@std@@QAE@XZ 0041ca70 f i JigsawDemo.obj
 0001:0001ba90       ??0?$_Func_class@XPAVDisplayableObject@@@std@@QAE@XZ 0041ca90 f i JigsawDemo.obj
 0001:0001bab0       ??0?$_Vector_const_iterator@V?$_Vector_val@U?$_Simple_types@PAVDisplayableObject@@@std@@@std@@@std@@QAE@$$QAV01@@Z 0041cab0 f i JigsawDemo.obj
 0001:0001baf0       ??0?$_Vector_const_iterator@V?$_Vector_val@U?$_Simple_types@PAVDisplayableObject@@@std@@@std@@@std@@QAE@ABV01@@Z 0041caf0 f i JigsawDemo.obj
 0001:0001bb30       ??0?$_Vector_const_iterator@V?$_Vector_val@U?$_Simple_types@PAVDisplayableObject@@@std@@@std@@@std@@QAE@PAPAVDisplayableObject@@PBU_Container_base12@1@@Z 0041cb30 f i JigsawDemo.obj
 0001:0001bb70       ??0?$_Vector_iterator@V?$_Vector_val@U?$_Simple_types@PAVDisplayableObject@@@std@@@std@@@std@@QAE@$$QAV01@@Z 0041cb70 f i JigsawDemo.obj
 0001:0001bba0       ??0?$_Vector_iterator@V?$_Vector_val@U?$_Simple_types@PAVDisplayableObject@@@std@@@std@@@std@@QAE@PAPAVDisplayableObject@@PBU_Container_base12@1@@Z 0041cba0 f i JigsawDemo.obj
 0001:0001bbd0       ??0?$function@$$A6AXPAVDisplayableObject@@@Z@std@@QAE@$$QAV01@@Z 0041cbd0 f i JigsawDemo.obj
 0001:0001bc10       ??0?$function@$$A6AXPAVDisplayableObject@@@Z@std@@QAE@ABV01@@Z 0041cc10 f i JigsawDemo.obj
 0001:0001bc90       ??0CoordinateMapping@@QAE@XZ 0041cc90 f i JigsawDemo.obj
 0001:0001bcb0       ??0JigsawPiece@@QAE@PAU_iobuf@@HHPAVJigsawDemo@@V?$basic_string@DU?$char_traits@D@std@@V?$allocator@D@2@@std@@HH@Z 0041ccb0 f i JigsawDemo.obj
 0001:0001c0a0       ??1?$_Func_class@XPAVDisplayableObject@@@std@@QAE@XZ 0041d0a0 f i JigsawDemo.obj
 0001:0001c0c0       ??1?$_Vector_const_iterator@V?$_Vector_val@U?$_Simple_types@PAVDisplayableObject@@@std@@@std@@@std@@QAE@XZ 0041d0c0 f i JigsawDemo.obj
 0001:0001c0e0       ??1?$_Vector_iterator@V?$_Vector_val@U?$_Simple_types@PAVDisplayableObject@@@std@@@std@@@std@@QAE@XZ 0041d0e0 f i JigsawDemo.obj
 0001:0001c100       ??1?$function@$$A6AXPAVDisplayableObject@@@Z@std@@QAE@XZ 0041d100 f i JigsawDemo.obj
 0001:0001c120       ??1JigsawPiece@@UAE@XZ     0041d120 f i JigsawDemo.obj
 0001:0001c140       ??8?$_Vector_const_iterator@V?$_Vector_val@U?$_Simple_types@PAVDisplayableObject@@@std@@@std@@@std@@QBE_NABV01@@Z 0041d140 f i JigsawDemo.obj
 0001:0001c190       ??9?$_Vector_const_iterator@V?$_Vector_val@U?$_Simple_types@PAVDisplayableObject@@@std@@@std@@@std@@QBE_NABV01@@Z 0041d190 f i JigsawDemo.obj
 0001:0001c1e0       ??R<lambda_2870de01b601283699da779de20905fc>@@QBE@PAVDisplayableObject@@@Z 0041d1e0 f i JigsawDemo.obj
 0001:0001c210       ??R<lambda_341a6657abb2758c42a6873833e6116f>@@QBE@PAVDisplayableObject@@@Z 0041d210 f i JigsawDemo.obj
 0001:0001c240       ??R<lambda_369f3aee610e50bbd15c3a78d9c8686f>@@QBE@PAVDisplayableObject@@@Z 0041d240 f i JigsawDemo.obj
 0001:0001c2a0       ??R<lambda_4d3c514b9e5ad6cc29096aa3b57f98f2>@@QBE@PAVDisplayableObject@@@Z 0041d2a0 f i JigsawDemo.obj
 0001:0001c300       ??R<lambda_817584b2460f1bcab806f46a25c321a8>@@QBE@PAVDisplayableObject@@@Z 0041d300 f i JigsawDemo.obj
 0001:0001c390       ??R?$_Func_class@XPAVDisplayableObject@@@std@@QBEXPAVDisplayableObject@@@Z 0041d390 f i JigsawDemo.obj
 0001:0001c3f0       ??_GJigsawPiece@@UAEPAXI@Z 0041d3f0 f i JigsawDemo.obj
 0001:0001c3f0       ??_EJigsawPiece@@UAEPAXI@Z 0041d3f0 f i JigsawDemo.obj
 0001:0001c430       ?_Compat@?$_Vector_const_iterator@V?$_Vector_val@U?$_Simple_types@PAVDisplayableObject@@@std@@@std@@@std@@QBEXABV12@@Z 0041d430 f i JigsawDemo.obj
 0001:0001c4d0       ?_Copy@?$_Func_impl_no_alloc@V<lambda_2870de01b601283699da779de20905fc>@@XPAVDisplayableObject@@@std@@EBEPAV?$_Func_base@XPAVDisplayableObject@@@2@PAX@Z 0041d4d0 f i JigsawDemo.obj
 0001:0001c510       ?_Copy@?$_Func_impl_no_alloc@V<lambda_341a6657abb2758c42a6873833e6116f>@@XPAVDisplayableObject@@@std@@EBEPAV?$_Func_base@XPAVDisplayableObject@@@2@PAX@Z 0041d510 f i JigsawDemo.obj
 0001:0001c550       ?_Copy@?$_Func_impl_no_alloc@V<lambda_369f3aee610e50bbd15c3a78d9c8686f>@@XPAVDisplayableObject@@@std@@EBEPAV?$_Func_base@XPAVDisplayableObject@@@2@PAX@Z 0041d550 f i JigsawDemo.obj
 0001:0001c5d0       ?_Copy@?$_Func_impl_no_alloc@V<lambda_4d3c514b9e5ad6cc29096aa3b57f98f2>@@XPAVDisplayableObject@@@std@@EBEPAV?$_Func_base@XPAVDisplayableObject@@@2@PAX@Z 0041d5d0 f i JigsawDemo.obj
 0001:0001c650       ?_Copy@?$_Func_impl_no_alloc@V<lambda_817584b2460f1bcab806f46a25c321a8>@@XPAVDisplayableObject@@@std@@EBEPAV?$_Func_base@XPAVDisplayableObject@@@2@PAX@Z 0041d650 f i JigsawDemo.obj
 0001:0001c6d0       ?_Delete_this@?$_Func_impl_no_alloc@V<lambda_2870de01b601283699da779de20905fc>@@XPAVDisplayableObject@@@std@@EAEX_N@Z 0041d6d0 f i JigsawDemo.obj
 0001:0001c700       ?_Delete_this@?$_Func_impl_no_alloc@V<lambda_341a6657abb2758c42a6873833e6116f>@@XPAVDisplayableObject@@@std@@EAEX_N@Z 0041d700 f i JigsawDemo.obj
 0001:0001c730       ?_Delete_this@?$_Func_impl_no_alloc@V<lambda_369f3aee610e50bbd15c3a78d9c8686f>@@XPAVDisplayableObject@@@std@@EAEX_N@Z 0041d730 f i JigsawDemo.obj
 0001:0001c790       ?_Delete_this@?$_Func_impl_no_alloc@V<lambda_4d3c514b9e5ad6cc29096aa3b57f98f2>@@XPAVDisplayableObject@@@std@@EAEX_N@Z 0041d790 f i JigsawDemo.obj
 0001:0001c7f0       ?_Delete_this@?$_Func_impl_no_alloc@V<lambda_817584b2460f1bcab806f46a25c321a8>@@XPAVDisplayableObject@@@std@@EAEX_N@Z 0041d7f0 f i JigsawDemo.obj
 0001:0001c850       ?_Do_call@?$_Func_impl_no_alloc@V<lambda_2870de01b601283699da779de20905fc>@@XPAVDisplayableObject@@@std@@EAEX$$QAPAVDisplayableObject@@@Z 0041d850 f i JigsawDemo.obj
 0001:0001c890       ?_Do_call@?$_Func_impl_no_alloc@V<lambda_341a6657abb2758c42a6873833e6116f>@@XPAVDisplayableObject@@@std@@EAEX$$QAPAVDisplayableObject@@@Z 0041d890 f i JigsawDemo.obj
 0001:0001c8d0       ?_Do_call@?$_Func_impl_no_alloc@V<lambda_369f3aee610e50bbd15c3a78d9c8686f>@@XPAVDisplayableObject@@@std@@EAEX$$QAPAVDisplayableObject@@@Z 0041d8d0 f i JigsawDemo.obj
 0001:0001c950       ?_Do_call@?$_Func_impl_no_alloc@V<lambda_4d3c514b9e5ad6cc29096aa3b57f98f2>@@XPAVDisplayableObject@@@std@@EAEX$$QAPAVDisplayableObject@@@Z 0041d950 f i JigsawDemo.obj
 0001:0001c9d0       ?_Do_call@?$_Func_impl_no_alloc@V<lambda_817584b2460f1bcab806f46a25c321a8>@@XPAVDisplayableObject@@@std@@EAEX$$QAPAVDisplayableObject@@@Z 0041d9d0 f i JigsawDemo.obj
 0001:0001ca50       ?_Empty@?$_Func_class@XPAVDisplayableObject@@@std@@IBE_NXZ 0041da50 f i JigsawDemo.obj
 0001:0001ca90       ?_Get@?$_Func_impl_no_alloc@V<lambda_2870de01b601283699da779de20905fc>@@XPAVDisplayableObject@@@std@@EBEPBXXZ 0041da90 f i JigsawDemo.obj
 0001:0001cab0       ?_Get@?$_Func_impl_no_alloc@V<lambda_341a6657abb2758c42a6873833e6116f>@@XPAVDisplayableObject@@@std@@EBEPBXXZ 0041dab0 f i JigsawDemo.obj
 0001:0001cad0       ?_Get@?$_Func_impl_no_alloc@V<lambda_369f3aee610e50bbd15c3a78d9c8686f>@@XPAVDisplayableObject@@@std@@EBEPBXXZ 0041dad0 f i JigsawDemo.obj
 0001:0001cb10       ?_Get@?$_Func_impl_no_alloc@V<lambda_4d3c514b9e5ad6cc29096aa3b57f98f2>@@XPAVDisplayableObject@@@std@@EBEPBXXZ 0041db10 f i JigsawDemo.obj
 0001:0001cb50       ?_Get@?$_Func_impl_no_alloc@V<lambda_817584b2460f1bcab806f46a25c321a8>@@XPAVDisplayableObject@@@std@@EBEPBXXZ 0041db50 f i JigsawDemo.obj
 0001:0001cb90       ?_Getimpl@?$_Func_class@XPAVDisplayableObject@@@std@@ABEPAV?$_Func_base@XPAVDisplayableObject@@@2@XZ 0041db90 f i JigsawDemo.obj
 0001:0001cbb0       ?_Local@?$_Func_class@XPAVDisplayableObject@@@std@@ABE_NXZ 0041dbb0 f i JigsawDemo.obj
 0001:0001cbf0       ?_Move@?$_Func_impl_no_alloc@V<lambda_2870de01b601283699da779de20905fc>@@XPAVDisplayableObject@@@std@@EAEPAV?$_Func_base@XPAVDisplayableObject@@@2@PAX@Z 0041dbf0 f i JigsawDemo.obj
 0001:0001cc70       ?_Move@?$_Func_impl_no_alloc@V<lambda_341a6657abb2758c42a6873833e6116f>@@XPAVDisplayableObject@@@std@@EAEPAV?$_Func_base@XPAVDisplayableObject@@@2@PAX@Z 0041dc70 f i JigsawDemo.obj
 0001:0001ccf0       ?_Move@?$_Func_impl_no_alloc@V<lambda_369f3aee610e50bbd15c3a78d9c8686f>@@XPAVDisplayableObject@@@std@@EAEPAV?$_Func_base@XPAVDisplayableObject@@@2@PAX@Z 0041dcf0 f i JigsawDemo.obj
 0001:0001cdf0       ?_Move@?$_Func_impl_no_alloc@V<lambda_4d3c514b9e5ad6cc29096aa3b57f98f2>@@XPAVDisplayableObject@@@std@@EAEPAV?$_Func_base@XPAVDisplayableObject@@@2@PAX@Z 0041ddf0 f i JigsawDemo.obj
 0001:0001cef0       ?_Move@?$_Func_impl_no_alloc@V<lambda_817584b2460f1bcab806f46a25c321a8>@@XPAVDisplayableObject@@@std@@EAEPAV?$_Func_base@XPAVDisplayableObject@@@2@PAX@Z 0041def0 f i JigsawDemo.obj
 0001:0001cff0       ?_Reset_copy@?$_Func_class@XPAVDisplayableObject@@@std@@IAEXABV12@@Z 0041dff0 f i JigsawDemo.obj
 0001:0001d050       ?_Reset_move@?$_Func_class@XPAVDisplayableObject@@@std@@IAEX$$QAV12@@Z 0041e050 f i JigsawDemo.obj
 0001:0001d0f0       ?_Seek_to@?$_Vector_const_iterator@V?$_Vector_val@U?$_Simple_types@PAVDisplayableObject@@@std@@@std@@@std@@QAEXPBQAVDisplayableObject@@@Z 0041e0f0 f i JigsawDemo.obj
 0001:0001d120       ?_Set@?$_Func_class@XPAVDisplayableObject@@@std@@AAEXPAV?$_Func_base@XPAVDisplayableObject@@@2@@Z 0041e120 f i JigsawDemo.obj
 0001:0001d150       ?_Target_type@?$_Func_impl_no_alloc@V<lambda_2870de01b601283699da779de20905fc>@@XPAVDisplayableObject@@@std@@EBEABVtype_info@@XZ 0041e150 f i JigsawDemo.obj
 0001:0001d170       ?_Target_type@?$_Func_impl_no_alloc@V<lambda_341a6657abb2758c42a6873833e6116f>@@XPAVDisplayableObject@@@std@@EBEABVtype_info@@XZ 0041e170 f i JigsawDemo.obj
 0001:0001d190       ?_Target_type@?$_Func_impl_no_alloc@V<lambda_369f3aee610e50bbd15c3a78d9c8686f>@@XPAVDisplayableObject@@@std@@EBEABVtype_info@@XZ 0041e190 f i JigsawDemo.obj
 0001:0001d1d0       ?_Target_type@?$_Func_impl_no_alloc@V<lambda_4d3c514b9e5ad6cc29096aa3b57f98f2>@@XPAVDisplayableObject@@@std@@EBEABVtype_info@@XZ 0041e1d0 f i JigsawDemo.obj
 0001:0001d210       ?_Target_type@?$_Func_impl_no_alloc@V<lambda_817584b2460f1bcab806f46a25c321a8>@@XPAVDisplayableObject@@@std@@EBEABVtype_info@@XZ 0041e210 f i JigsawDemo.obj
 0001:0001d250       ?_Tidy@?$_Func_class@XPAVDisplayableObject@@@std@@IAEXXZ 0041e250 f i JigsawDemo.obj
 0001:0001d2d0       ?_Umove@?$vector@PAVDisplayableObject@@V?$allocator@PAVDisplayableObject@@@std@@@std@@AAEPAPAVDisplayableObject@@PAPAV3@00@Z 0041e2d0 f i JigsawDemo.obj
 0001:0001d310       ?_Unwrapped@?$_Vector_const_iterator@V?$_Vector_val@U?$_Simple_types@PAVDisplayableObject@@@std@@@std@@@std@@QBEPBQAVDisplayableObject@@XZ 0041e310 f i JigsawDemo.obj
 0001:0001d330       ?_Unwrapped@?$_Vector_iterator@V?$_Vector_val@U?$_Simple_types@PAVDisplayableObject@@@std@@@std@@@std@@QBEPAPAVDisplayableObject@@XZ 0041e330 f i JigsawDemo.obj
 0001:0001d350       ?_Verify_range@std@@YAXABV?$_Vector_const_iterator@V?$_Vector_val@U?$_Simple_types@PAVDisplayableObject@@@std@@@std@@@1@0@Z 0041e350 f i JigsawDemo.obj
 0001:0001d450       ?applyToAll@DisplayableObjectContainer@@QBEXV?$function@$$A6AXPAVDisplayableObject@@@Z@std@@@Z 0041e450 f i JigsawDemo.obj
 0001:0001d530       ?begin@?$vector@PAVDisplayableObject@@V?$allocator@PAVDisplayableObject@@@std@@@std@@QAE?AV?$_Vector_iterator@V?$_Vector_val@U?$_Simple_types@PAVDisplayableObject@@@std@@@std@@@2@XZ 0041e530 f i JigsawDemo.obj
 0001:0001d580       ?begin@?$vector@PAVDisplayableObject@@V?$allocator@PAVDisplayableObject@@@std@@@std@@QBE?AV?$_Vector_const_iterator@V?$_Vector_val@U?$_Simple_types@PAVDisplayableObject@@@std@@@std@@@2@XZ 0041e580 f i JigsawDemo.obj
 0001:0001d5d0       ?changeOffset@FilterPointsTranslation@@QAEXHH@Z 0041e5d0 f i JigsawDemo.obj
 0001:0001d610       ?changePixelColour@CoordinateMapping@@UAE_NHHAAHPAVDrawingSurface@@@Z 0041e610 f i JigsawDemo.obj
 0001:0001d630       ?checkForLinksWithOthers@JigsawPiece@@QAEXXZ 0041e630 f i JigsawDemo.obj
 0001:0001d750       ?checkJoinBottom@JigsawPiece@@QAEXPAV1@@Z 0041e750 f i JigsawDemo.obj
 0001:0001d820       ?checkJoinLeft@JigsawPiece@@QAEXPAV1@@Z 0041e820 f i JigsawDemo.obj
 0001:0001d8f0       ?checkJoinRight@JigsawPiece@@QAEXPAV1@@Z 0041e8f0 f i JigsawDemo.obj
 0001:0001d9c0       ?checkJoinTop@JigsawPiece@@QAEXPAV1@@Z 0041e9c0 f i JigsawDemo.obj
 0001:0001da90       ?compress@FilterPointsScaling@@QAEXXZ 0041ea90 f i JigsawDemo.obj
 0001:0001dac0       ?compressX@FilterPointsScaling@@QAEXXZ 0041eac0 f i JigsawDemo.obj
 0001:0001db10       ?compressY@FilterPointsScaling@@QAEXXZ 0041eb10 f i JigsawDemo.obj
 0001:0001db60       ?convertClickedToVirtualPixelXPosition@BaseEngine@@QAEHH@Z 0041eb60 f i JigsawDemo.obj
 0001:0001db90       ?convertClickedToVirtualPixelYPosition@BaseEngine@@QAEHH@Z 0041eb90 f i JigsawDemo.obj
 0001:0001dbc0       ?doDragRedraw@JigsawPiece@@UAEXXZ 0041ebc0 f i JigsawDemo.obj
 0001:0001dbe0       ?end@?$vector@PAVDisplayableObject@@V?$allocator@PAVDisplayableObject@@@std@@@std@@QAE?AV?$_Vector_iterator@V?$_Vector_val@U?$_Simple_types@PAVDisplayableObject@@@std@@@std@@@2@XZ 0041ebe0 f i JigsawDemo.obj
 0001:0001dc30       ?end@?$vector@PAVDisplayableObject@@V?$allocator@PAVDisplayableObject@@@std@@@std@@QBE?AV?$_Vector_const_iterator@V?$_Vector_val@U?$_Simple_types@PAVDisplayableObject@@@std@@@std@@@2@XZ 0041ec30 f i JigsawDemo.obj
 0001:0001dc80       ?erase@?$vector@PAVDisplayableObject@@V?$allocator@PAVDisplayableObject@@@std@@@std@@QAE?AV?$_Vector_iterator@V?$_Vector_val@U?$_Simple_types@PAVDisplayableObject@@@std@@@std@@@2@V?$_Vector_const_iterator@V?$_Vector_val@U?$_Simple_types@PAVDisplayableObject@@@std@@@std@@@2@@Z 0041ec80 f i JigsawDemo.obj
 0001:0001de30       ?getMode@JigsawDemo@@QAE?AW4mode@1@XZ 0041ee30 f i JigsawDemo.obj
 0001:0001de50       ?getXInImage@JigsawPiece@@QAEHXZ 0041ee50 f i JigsawDemo.obj
 0001:0001de70       ?getYInImage@JigsawPiece@@QAEHXZ 0041ee70 f i JigsawDemo.obj
 0001:0001de90       ?joinBottom@JigsawPiece@@QAEXPAV1@@Z 0041ee90 f i JigsawDemo.obj
 0001:0001dec0       ?joinLeft@JigsawPiece@@QAEXPAV1@@Z 0041eec0 f i JigsawDemo.obj
 0001:0001def0       ?joinRight@JigsawPiece@@QAEXPAV1@@Z 0041eef0 f i JigsawDemo.obj
 0001:0001df20       ?joinTop@JigsawPiece@@QAEXPAV1@@Z 0041ef20 f i JigsawDemo.obj
 0001:0001df50       ?loadImage@ImageManager@@SA?AVSimpleImage@@V?$basic_string@DU?$char_traits@D@std@@V?$allocator@D@2@@std@@_N@Z 0041ef50 f i JigsawDemo.obj
 0001:0001e010       ?mapCoordinates@JigsawPiece@@UAE_NAAN0ABVSimpleImage@@@Z 0041f010 f i JigsawDemo.obj
 0001:0001e1e0       ?moveToLast@DisplayableObjectContainer@@QAE_NPAVDisplayableObject@@@Z 0041f1e0 f i JigsawDemo.obj
 0001:0001e370       ?push_back@?$vector@PAVDisplayableObject@@V?$allocator@PAVDisplayableObject@@@std@@@std@@QAEXABQAVDisplayableObject@@@Z 0041f370 f i JigsawDemo.obj
 0001:0001e390       ?recursiveDrag@JigsawPiece@@UAEXHH@Z 0041f390 f i JigsawDemo.obj
 0001:0001e4f0       ?setFilter@JigsawPiece@@QAEXPAVPieceFilter@@@Z 0041f4f0 f i JigsawDemo.obj
 0001:0001e510       ?setOffset@FilterPointsTranslation@@QAEXHH@Z 0041f510 f i JigsawDemo.obj
 0001:0001e540       ?shouldDraw@PieceFilter@@QAE_NHH@Z 0041f540 f i JigsawDemo.obj
 0001:0001e5c0       ?stretch@FilterPointsScaling@@QAEXXZ 0041f5c0 f i JigsawDemo.obj
 0001:0001e5f0       ?stretchX@FilterPointsScaling@@QAEXXZ 0041f5f0 f i JigsawDemo.obj
 0001:0001e640       ?stretchY@FilterPointsScaling@@QAEXXZ 0041f640 f i JigsawDemo.obj
 0001:0001e690       ?virtDraw@JigsawPiece@@UAEXXZ 0041f690 f i JigsawDemo.obj
 0001:0001e740       ?virtMouseDown@JigsawPiece@@UAEXHHH@Z 0041f740 f i JigsawDemo.obj
 0001:0001e770       ?virtMouseMoved@JigsawPiece@@UAEXHH@Z 0041f770 f i JigsawDemo.obj
 0001:0001e850       ?virtMouseUp@JigsawPiece@@UAEXHHH@Z 0041f850 f i JigsawDemo.obj
 0001:0001e910       ?virtSingleItemMouseDown@JigsawPiece@@UAE_NHHH@Z 0041f910 f i JigsawDemo.obj
 0001:0001ea80       ?write@JigsawPiece@@QAEXPAU_iobuf@@H@Z 0041fa80 f i JigsawDemo.obj
 0001:0001eaf0       ?zoomIn@JigsawDemo@@QAEXXZ 0041faf0 f i JigsawDemo.obj
 0001:0001ebc0       ?zoomOut@JigsawDemo@@QAEXXZ 0041fbc0 f i JigsawDemo.obj
 0001:0001ec90       _fprintf                   0041fc90 f i JigsawDemo.obj
 0001:0001ecd0       ?virtDrawTileAt@luckyDraw@@UBEXPAVBaseEngine@@PAVDrawingSurface@@HHHH@Z 0041fcd0 f   luckyDraw.obj
 0001:0001ede0       ??A?$vector@VSimpleImage@@V?$allocator@VSimpleImage@@@std@@@std@@QBEABVSimpleImage@@I@Z 0041fde0 f i luckyDraw.obj
 0001:0001ee90       ?getMapValue@TileManager@@QBEHHH@Z 0041fe90 f i luckyDraw.obj
 0001:0001eec0       ?getTileHeight@TileManager@@QBEHXZ 0041fec0 f i luckyDraw.obj
 0001:0001eee0       ?getTileWidth@TileManager@@QBEHXZ 0041fee0 f i luckyDraw.obj
 0001:0001ef00       _SDL_main                  0041ff00 f   mainfunction.obj
 0001:0001ef60       ?doProgram@@YAHHQAPAD@Z    0041ff60 f   mainfunction.obj
 0001:0001f0a0       ??$?0$$V@?$_Compressed_pair@V?$allocator@H@std@@V?$_Vector_val@U?$_Simple_types@H@std@@@2@$00@std@@QAE@U_Zero_then_variadic_args_t@1@@Z 004200a0 f i mainfunction.obj
 0001:0001f0d0       ??$?0$$V@?$_Compressed_pair@V?$allocator@PAUMix_Chunk@@@std@@V?$_Vector_val@U?$_Simple_types@PAUMix_Chunk@@@std@@@2@$00@std@@QAE@U_Zero_then_variadic_args_t@1@@Z 004200d0 f i mainfunction.obj
 0001:0001f100       ??$?0$$V@?$_Compressed_pair@V?$allocator@PAVButton@@@std@@V?$_Vector_val@U?$_Simple_types@PAVButton@@@std@@@2@$00@std@@QAE@U_Zero_then_variadic_args_t@1@@Z 00420100 f i mainfunction.obj
 0001:0001f130       ??$?0$$V@?$_Compressed_pair@V?$allocator@PAVState@@@std@@V?$_Vector_val@U?$_Simple_types@PAVState@@@std@@@2@$00@std@@QAE@U_Zero_then_variadic_args_t@1@@Z 00420130 f i mainfunction.obj
 0001:0001f160       ??$?0$$V@?$_Compressed_pair@V?$allocator@PAVcontroller@@@std@@V?$_Vector_val@U?$_Simple_types@PAVcontroller@@@std@@@2@$00@std@@QAE@U_Zero_then_variadic_args_t@1@@Z 00420160 f i mainfunction.obj
 0001:0001f190       ??$?0$$V@?$_Compressed_pair@V?$allocator@PAVnote@@@std@@V?$_Deque_val@U?$_Deque_simple_types@PAVnote@@@std@@@2@$00@std@@QAE@U_Zero_then_variadic_args_t@1@@Z 00420190 f i mainfunction.obj
 0001:0001f1c0       ??$?0$$V@?$_Compressed_pair@V?$allocator@PAVnote@@@std@@V?$_Vector_val@U?$_Simple_types@PAVnote@@@std@@@2@$00@std@@QAE@U_Zero_then_variadic_args_t@1@@Z 004201c0 f i mainfunction.obj
 0001:0001f1f0       ??$?0$$V@?$_Compressed_pair@V?$allocator@V?$basic_string@DU?$char_traits@D@std@@V?$allocator@D@2@@std@@@std@@V?$_Vector_val@U?$_Simple_types@V?$basic_string@DU?$char_traits@D@std@@V?$allocator@D@2@@std@@@std@@@2@$00@std@@QAE@U_Zero_then_variadic_args_t@1@@Z 004201f0 f i mainfunction.obj
 0001:0001f220       ??$?0$$V@?$_Compressed_pair@V?$allocator@V?$queue@PAVnote@@V?$deque@PAVnote@@V?$allocator@PAVnote@@@std@@@std@@@std@@@std@@V?$_Vector_val@U?$_Simple_types@V?$queue@PAVnote@@V?$deque@PAVnote@@V?$allocator@PAVnote@@@std@@@std@@@std@@@std@@@2@$00@std@@QAE@U_Zero_then_variadic_args_t@1@@Z 00420220 f i mainfunction.obj
 0001:0001f250       ??$?0$$V@?$_Compressed_pair@V?$allocator@VSimpleImage@@@std@@V?$_Vector_val@U?$_Simple_types@VSimpleImage@@@std@@@2@$00@std@@QAE@U_Zero_then_variadic_args_t@1@@Z 00420250 f i mainfunction.obj
 0001:0001f280       ??$?0H@?$allocator@U_Container_proxy@std@@@std@@QAE@ABV?$allocator@H@1@@Z 00420280 f i mainfunction.obj
 0001:0001f2a0       ??$?0PAUMix_Chunk@@@?$allocator@U_Container_proxy@std@@@std@@QAE@ABV?$allocator@PAUMix_Chunk@@@1@@Z 004202a0 f i mainfunction.obj
 0001:0001f2c0       ??$?0PAVButton@@@?$allocator@U_Container_proxy@std@@@std@@QAE@ABV?$allocator@PAVButton@@@1@@Z 004202c0 f i mainfunction.obj
 0001:0001f2e0       ??$?0PAVState@@@?$allocator@U_Container_proxy@std@@@std@@QAE@ABV?$allocator@PAVState@@@1@@Z 004202e0 f i mainfunction.obj
 0001:0001f300       ??$?0PAVcontroller@@@?$allocator@U_Container_proxy@std@@@std@@QAE@ABV?$allocator@PAVcontroller@@@1@@Z 00420300 f i mainfunction.obj
 0001:0001f320       ??$?0PAVnote@@@?$allocator@PAPAVnote@@@std@@QAE@ABV?$allocator@PAVnote@@@1@@Z 00420320 f i mainfunction.obj
 0001:0001f340       ??$?0PAVnote@@@?$allocator@U_Container_proxy@std@@@std@@QAE@ABV?$allocator@PAVnote@@@1@@Z 00420340 f i mainfunction.obj
 0001:0001f360       ??$?0V?$allocator@PAVnote@@@std@@$$V@?$_Compressed_pair@V?$allocator@PAVnote@@@std@@V?$_Deque_val@U?$_Deque_simple_types@PAVnote@@@std@@@2@$00@std@@QAE@U_One_then_variadic_args_t@1@$$QAV?$allocator@PAVnote@@@1@@Z 00420360 f i mainfunction.obj
 0001:0001f390       ??$?0V?$allocator@V?$queue@PAVnote@@V?$deque@PAVnote@@V?$allocator@PAVnote@@@std@@@std@@@std@@@std@@$$V@?$_Compressed_pair@V?$allocator@V?$queue@PAVnote@@V?$deque@PAVnote@@V?$allocator@PAVnote@@@std@@@std@@@std@@@std@@V?$_Vector_val@U?$_Simple_types@V?$queue@PAVnote@@V?$deque@PAVnote@@V?$allocator@PAVnote@@@std@@@std@@@std@@@std@@@2@$00@std@@QAE@U_One_then_variadic_args_t@1@$$QAV?$allocator@V?$queue@PAVnote@@V?$deque@PAVnote@@V?$allocator@PAVnote@@@std@@@std@@@std@@@1@@Z 00420390 f i mainfunction.obj
 0001:0001f3c0       ??$?0V?$basic_string@DU?$char_traits@D@std@@V?$allocator@D@2@@std@@@?$allocator@U_Container_proxy@std@@@std@@QAE@ABV?$allocator@V?$basic_string@DU?$char_traits@D@std@@V?$allocator@D@2@@std@@@1@@Z 004203c0 f i mainfunction.obj
 0001:0001f3e0       ??$?0V?$queue@PAVnote@@V?$deque@PAVnote@@V?$allocator@PAVnote@@@std@@@std@@@std@@@?$allocator@U_Container_proxy@std@@@std@@QAE@ABV?$allocator@V?$queue@PAVnote@@V?$deque@PAVnote@@V?$allocator@PAVnote@@@std@@@std@@@std@@@1@@Z 004203e0 f i mainfunction.obj
 0001:0001f400       ??$?0VSimpleImage@@@?$allocator@U_Container_proxy@std@@@std@@QAE@ABV?$allocator@VSimpleImage@@@1@@Z 00420400 f i mainfunction.obj
 0001:0001f420       ??$_Adl_verify_range@PAPAPAVnote@@PAPAPAV1@@std@@YAXABQAPAPAVnote@@0@Z 00420420 f i mainfunction.obj
 0001:0001f440       ??$_Adl_verify_range@PAV?$queue@PAVnote@@V?$deque@PAVnote@@V?$allocator@PAVnote@@@std@@@std@@@std@@PAV12@@std@@YAXABQAV?$queue@PAVnote@@V?$deque@PAVnote@@V?$allocator@PAVnote@@@std@@@std@@@0@0@Z 00420440 f i mainfunction.obj
 0001:0001f460       ??$_Adl_verify_range@V?$_Deque_unchecked_const_iterator@V?$_Deque_val@U?$_Deque_simple_types@PAVnote@@@std@@@std@@@std@@V12@@std@@YAXABV?$_Deque_unchecked_const_iterator@V?$_Deque_val@U?$_Deque_simple_types@PAVnote@@@std@@@std@@@0@0@Z 00420460 f i mainfunction.obj
 0001:0001f470       ??$_Assign_range@PAV?$queue@PAVnote@@V?$deque@PAVnote@@V?$allocator@PAVnote@@@std@@@std@@@std@@@?$vector@V?$queue@PAVnote@@V?$deque@PAVnote@@V?$allocator@PAVnote@@@std@@@std@@@std@@V?$allocator@V?$queue@PAVnote@@V?$deque@PAVnote@@V?$allocator@PAVnote@@@std@@@std@@@std@@@2@@std@@AAEXPAV?$queue@PAVnote@@V?$deque@PAVnote@@V?$allocator@PAVnote@@@std@@@std@@@1@0Uforward_iterator_tag@1@@Z 00420470 f i mainfunction.obj
 0001:0001f5e0       ??$_Construct@V?$_Deque_unchecked_const_iterator@V?$_Deque_val@U?$_Deque_simple_types@PAVnote@@@std@@@std@@@std@@@?$deque@PAVnote@@V?$allocator@PAVnote@@@std@@@std@@AAEXV?$_Deque_unchecked_const_iterator@V?$_Deque_val@U?$_Deque_simple_types@PAVnote@@@std@@@std@@@1@0@Z 004205e0 f i mainfunction.obj
 0001:0001f690       ??$_Copy_memmove@PAHPAH@std@@YAPAHPAH00@Z 00420690 f i mainfunction.obj
 0001:0001f6e0       ??$_Copy_memmove@PAPAPAVnote@@PAPAPAV1@@std@@YAPAPAPAVnote@@PAPAPAV1@00@Z 004206e0 f i mainfunction.obj
 0001:0001f730       ??$_Copy_memmove@PAPAUMix_Chunk@@PAPAU1@@std@@YAPAPAUMix_Chunk@@PAPAU1@00@Z 00420730 f i mainfunction.obj
 0001:0001f780       ??$_Copy_memmove@PAPAVState@@PAPAV1@@std@@YAPAPAVState@@PAPAV1@00@Z 00420780 f i mainfunction.obj
 0001:0001f7d0       ??$_Copy_unchecked@PAV?$queue@PAVnote@@V?$deque@PAVnote@@V?$allocator@PAVnote@@@std@@@std@@@std@@PAV12@@std@@YAPAV?$queue@PAVnote@@V?$deque@PAVnote@@V?$allocator@PAVnote@@@std@@@std@@@0@PAV10@00@Z 004207d0 f i mainfunction.obj
 0001:0001f810       ??$_Destroy_in_place@PAPAVnote@@@std@@YAXAAPAPAVnote@@@Z 00420810 f i mainfunction.obj
 0001:0001f820       ??$_Destroy_range@PAPAPAVnote@@@std@@YAXPAPAPAVnote@@QAPAPAV1@@Z 00420820 f i mainfunction.obj
 0001:0001f830       ??$_Destroy_range@V?$allocator@H@std@@@std@@YAXPAHQAHAAV?$allocator@H@0@@Z 00420830 f i mainfunction.obj
 0001:0001f840       ??$_Destroy_range@V?$allocator@PAUMix_Chunk@@@std@@@std@@YAXPAPAUMix_Chunk@@QAPAU1@AAV?$allocator@PAUMix_Chunk@@@0@@Z 00420840 f i mainfunction.obj
 0001:0001f850       ??$_Destroy_range@V?$allocator@PAVButton@@@std@@@std@@YAXPAPAVButton@@QAPAV1@AAV?$allocator@PAVButton@@@0@@Z 00420850 f i mainfunction.obj
 0001:0001f860       ??$_Destroy_range@V?$allocator@PAVState@@@std@@@std@@YAXPAPAVState@@QAPAV1@AAV?$allocator@PAVState@@@0@@Z 00420860 f i mainfunction.obj
 0001:0001f870       ??$_Destroy_range@V?$allocator@PAVcontroller@@@std@@@std@@YAXPAPAVcontroller@@QAPAV1@AAV?$allocator@PAVcontroller@@@0@@Z 00420870 f i mainfunction.obj
 0001:0001f880       ??$_Destroy_range@V?$allocator@PAVnote@@@std@@@std@@YAXPAPAVnote@@QAPAV1@AAV?$allocator@PAVnote@@@0@@Z 00420880 f i mainfunction.obj
 0001:0001f890       ??$_Destroy_range@V?$allocator@V?$basic_string@DU?$char_traits@D@std@@V?$allocator@D@2@@std@@@std@@@std@@YAXPAV?$basic_string@DU?$char_traits@D@std@@V?$allocator@D@2@@0@QAV10@AAV?$allocator@V?$basic_string@DU?$char_traits@D@std@@V?$allocator@D@2@@std@@@0@@Z 00420890 f i mainfunction.obj
 0001:0001f910       ??$_Destroy_range@V?$allocator@V?$queue@PAVnote@@V?$deque@PAVnote@@V?$allocator@PAVnote@@@std@@@std@@@std@@@std@@@std@@YAXPAV?$queue@PAVnote@@V?$deque@PAVnote@@V?$allocator@PAVnote@@@std@@@std@@@0@QAV10@AAV?$allocator@V?$queue@PAVnote@@V?$deque@PAVnote@@V?$allocator@PAVnote@@@std@@@std@@@std@@@0@@Z 00420910 f i mainfunction.obj
 0001:0001f990       ??$_Destroy_range@V?$allocator@VSimpleImage@@@std@@@std@@YAXPAVSimpleImage@@QAV1@AAV?$allocator@VSimpleImage@@@0@@Z 00420990 f i mainfunction.obj
 0001:0001fa10       ??$_Emplace_back@AAV?$queue@PAVnote@@V?$deque@PAVnote@@V?$allocator@PAVnote@@@std@@@std@@@std@@@?$_Uninitialized_backout_al@V?$allocator@V?$queue@PAVnote@@V?$deque@PAVnote@@V?$allocator@PAVnote@@@std@@@std@@@std@@@std@@@std@@QAEXAAV?$queue@PAVnote@@V?$deque@PAVnote@@V?$allocator@PAVnote@@@std@@@std@@@1@@Z 00420a10 f i mainfunction.obj
 0001:0001fa70       ??$_Emplace_back@V?$queue@PAVnote@@V?$deque@PAVnote@@V?$allocator@PAVnote@@@std@@@std@@@std@@@?$_Uninitialized_backout_al@V?$allocator@V?$queue@PAVnote@@V?$deque@PAVnote@@V?$allocator@PAVnote@@@std@@@std@@@std@@@std@@@std@@QAEX$$QAV?$queue@PAVnote@@V?$deque@PAVnote@@V?$allocator@PAVnote@@@std@@@std@@@1@@Z 00420a70 f i mainfunction.obj
 0001:0001fad0       ??$_Emplace_back@VSimpleImage@@@?$_Uninitialized_backout_al@V?$allocator@VSimpleImage@@@std@@@std@@QAEX$$QAVSimpleImage@@@Z 00420ad0 f i mainfunction.obj
 0001:0001fb30       ??$_Emplace_back_with_unused_capacity@ABQAVState@@@?$vector@PAVState@@V?$allocator@PAVState@@@std@@@std@@AAE@ABQAVState@@@Z 00420b30 f i mainfunction.obj
 0001:0001fbd0       ??$_Emplace_back_with_unused_capacity@ABV?$queue@PAVnote@@V?$deque@PAVnote@@V?$allocator@PAVnote@@@std@@@std@@@std@@@?$vector@V?$queue@PAVnote@@V?$deque@PAVnote@@V?$allocator@PAVnote@@@std@@@std@@@std@@V?$allocator@V?$queue@PAVnote@@V?$deque@PAVnote@@V?$allocator@PAVnote@@@std@@@std@@@std@@@2@@std@@AAE@ABV?$queue@PAVnote@@V?$deque@PAVnote@@V?$allocator@PAVnote@@@std@@@std@@@1@@Z 00420bd0 f i mainfunction.obj
 0001:0001fc70       ??$_Emplace_back_with_unused_capacity@ABVSimpleImage@@@?$vector@VSimpleImage@@V?$allocator@VSimpleImage@@@std@@@std@@AAE@ABVSimpleImage@@@Z 00420c70 f i mainfunction.obj
 0001:0001fd10       ??$_Emplace_back_with_unused_capacity@H@?$vector@HV?$allocator@H@std@@@std@@AAE@$$QAH@Z 00420d10 f i mainfunction.obj
 0001:0001fdb0       ??$_Emplace_back_with_unused_capacity@PAUMix_Chunk@@@?$vector@PAUMix_Chunk@@V?$allocator@PAUMix_Chunk@@@std@@@std@@AAE@$$QAPAUMix_Chunk@@@Z 00420db0 f i mainfunction.obj
 0001:0001fe50       ??$_Emplace_reallocate@ABQAVState@@@?$vector@PAVState@@V?$allocator@PAVState@@@std@@@std@@QAEPAPAVState@@QAPAV2@ABQAV2@@Z 00420e50 f i mainfunction.obj
 0001:00020090       ??$_Emplace_reallocate@ABV?$queue@PAVnote@@V?$deque@PAVnote@@V?$allocator@PAVnote@@@std@@@std@@@std@@@?$vector@V?$queue@PAVnote@@V?$deque@PAVnote@@V?$allocator@PAVnote@@@std@@@std@@@std@@V?$allocator@V?$queue@PAVnote@@V?$deque@PAVnote@@V?$allocator@PAVnote@@@std@@@std@@@std@@@2@@std@@QAEPAV?$queue@PAVnote@@V?$deque@PAVnote@@V?$allocator@PAVnote@@@std@@@std@@@1@QAV21@ABV21@@Z 00421090 f i mainfunction.obj
 0001:000202e0       ??$_Emplace_reallocate@ABVSimpleImage@@@?$vector@VSimpleImage@@V?$allocator@VSimpleImage@@@std@@@std@@QAEPAVSimpleImage@@QAV2@ABV2@@Z 004212e0 f i mainfunction.obj
 0001:00020530       ??$_Emplace_reallocate@H@?$vector@HV?$allocator@H@std@@@std@@QAEPAHQAH$$QAH@Z 00421530 f i mainfunction.obj
 0001:00020770       ??$_Emplace_reallocate@PAUMix_Chunk@@@?$vector@PAUMix_Chunk@@V?$allocator@PAUMix_Chunk@@@std@@@std@@QAEPAPAUMix_Chunk@@QAPAU2@$$QAPAU2@@Z 00421770 f i mainfunction.obj
 0001:000209b0       ??$_Get_size_of_n@$0BA@@std@@YAII@Z 004219b0 f i mainfunction.obj
 0001:000209f0       ??$_Get_size_of_n@$0BE@@std@@YAII@Z 004219f0 f i mainfunction.obj
 0001:00020a20       ??$_Get_unwrapped@AAPAV?$queue@PAVnote@@V?$deque@PAVnote@@V?$allocator@PAVnote@@@std@@@std@@@std@@@std@@YA@AAPAV?$queue@PAVnote@@V?$deque@PAVnote@@V?$allocator@PAVnote@@@std@@@std@@@0@@Z 00421a20 f i mainfunction.obj
 0001:00020a30       ??$_Get_unwrapped@AAV?$_Deque_unchecked_const_iterator@V?$_Deque_val@U?$_Deque_simple_types@PAVnote@@@std@@@std@@@std@@@std@@YA@AAV?$_Deque_unchecked_const_iterator@V?$_Deque_val@U?$_Deque_simple_types@PAVnote@@@std@@@std@@@0@@Z 00421a30 f i mainfunction.obj
 0001:00020a40       ??$_Get_unwrapped@ABQAH@std@@YA@ABQAH@Z 00421a40 f i mainfunction.obj
 0001:00020a50       ??$_Get_unwrapped@ABQAPAPAVnote@@@std@@YA@ABQAPAPAVnote@@@Z 00421a50 f i mainfunction.obj
 0001:00020a60       ??$_Get_unwrapped@ABQAPAUMix_Chunk@@@std@@YA@ABQAPAUMix_Chunk@@@Z 00421a60 f i mainfunction.obj
 0001:00020a70       ??$_Get_unwrapped@ABQAPAVState@@@std@@YA@ABQAPAVState@@@Z 00421a70 f i mainfunction.obj
 0001:00020a80       ??$_Get_unwrapped@ABQAV?$queue@PAVnote@@V?$deque@PAVnote@@V?$allocator@PAVnote@@@std@@@std@@@std@@@std@@YA@ABQAV?$queue@PAVnote@@V?$deque@PAVnote@@V?$allocator@PAVnote@@@std@@@std@@@0@@Z 00421a80 f i mainfunction.obj
 0001:00020a90       ??$_Get_unwrapped@ABQAVSimpleImage@@@std@@YA@ABQAVSimpleImage@@@Z 00421a90 f i mainfunction.obj
 0001:00020aa0       ??$_Get_unwrapped_n@AAPAPAPAVnote@@H@std@@YA@AAPAPAPAVnote@@H@Z 00421aa0 f i mainfunction.obj
 0001:00020ab0       ??$_Idl_distance@PAPAPAVnote@@PAPAPAV1@@std@@YA@ABQAPAPAVnote@@0@Z 00421ab0 f i mainfunction.obj
 0001:00020ad0       ??$_Pocca@V?$allocator@D@std@@@std@@YAXAAV?$allocator@D@0@ABV10@@Z 00421ad0 f i mainfunction.obj
 0001:00020ae0       ??$_Pocca@V?$allocator@PAVnote@@@std@@@std@@YAXAAV?$allocator@PAVnote@@@0@ABV10@@Z 00421ae0 f i mainfunction.obj
 0001:00020af0       ??$_Pocca@V?$allocator@V?$queue@PAVnote@@V?$deque@PAVnote@@V?$allocator@PAVnote@@@std@@@std@@@std@@@std@@@std@@YAXAAV?$allocator@V?$queue@PAVnote@@V?$deque@PAVnote@@V?$allocator@PAVnote@@@std@@@std@@@std@@@0@ABV10@@Z 00421af0 f i mainfunction.obj
 0001:00020b00       ??$_Seek_wrapped@PAPAPAVnote@@AAPAPAPAV1@@std@@YAXAAPAPAPAVnote@@0@Z 00421b00 f i mainfunction.obj
 0001:00020b20       ??$_Traits_equal@U?$char_traits@D@std@@@std@@YA_NQBDI0I@Z 00421b20 f i mainfunction.obj
 0001:00020b70       ??$_Ucopy@PAV?$queue@PAVnote@@V?$deque@PAVnote@@V?$allocator@PAVnote@@@std@@@std@@@std@@@?$vector@V?$queue@PAVnote@@V?$deque@PAVnote@@V?$allocator@PAVnote@@@std@@@std@@@std@@V?$allocator@V?$queue@PAVnote@@V?$deque@PAVnote@@V?$allocator@PAVnote@@@std@@@std@@@std@@@2@@std@@AAEPAV?$queue@PAVnote@@V?$deque@PAVnote@@V?$allocator@PAVnote@@@std@@@std@@@1@PAV21@00@Z 00421b70 f i mainfunction.obj
 0001:00020bb0       ??$_Unfancy@H@std@@YAPAHPAH@Z 00421bb0 f i mainfunction.obj
 0001:00020bc0       ??$_Unfancy@PAUMix_Chunk@@@std@@YAPAPAUMix_Chunk@@PAPAU1@@Z 00421bc0 f i mainfunction.obj
 0001:00020bd0       ??$_Unfancy@PAVState@@@std@@YAPAPAVState@@PAPAV1@@Z 00421bd0 f i mainfunction.obj
 0001:00020be0       ??$_Unfancy@PAVnote@@@std@@YAPAPAVnote@@PAPAV1@@Z 00421be0 f i mainfunction.obj
 0001:00020bf0       ??$_Unfancy@V?$basic_string@DU?$char_traits@D@std@@V?$allocator@D@2@@std@@@std@@YAPAV?$basic_string@DU?$char_traits@D@std@@V?$allocator@D@2@@0@PAV10@@Z 00421bf0 f i mainfunction.obj
 0001:00020c00       ??$_Unfancy@V?$queue@PAVnote@@V?$deque@PAVnote@@V?$allocator@PAVnote@@@std@@@std@@@std@@@std@@YAPAV?$queue@PAVnote@@V?$deque@PAVnote@@V?$allocator@PAVnote@@@std@@@std@@@0@PAV10@@Z 00421c00 f i mainfunction.obj
 0001:00020c10       ??$_Unfancy@VSimpleImage@@@std@@YAPAVSimpleImage@@PAV1@@Z 00421c10 f i mainfunction.obj
 0001:00020c20       ??$_Uninitialized_copy@PAV?$queue@PAVnote@@V?$deque@PAVnote@@V?$allocator@PAVnote@@@std@@@std@@@std@@V?$allocator@V?$queue@PAVnote@@V?$deque@PAVnote@@V?$allocator@PAVnote@@@std@@@std@@@std@@@2@@std@@YAPAV?$queue@PAVnote@@V?$deque@PAVnote@@V?$allocator@PAVnote@@@std@@@std@@@0@QAV10@0PAV10@AAV?$allocator@V?$queue@PAVnote@@V?$deque@PAVnote@@V?$allocator@PAVnote@@@std@@@std@@@std@@@0@@Z 00421c20 f i mainfunction.obj
 0001:00020cf0       ??$_Uninitialized_move@PAHV?$allocator@H@std@@@std@@YAPAHQAH0PAHAAV?$allocator@H@0@@Z 00421cf0 f i mainfunction.obj
 0001:00020d60       ??$_Uninitialized_move@PAPAUMix_Chunk@@V?$allocator@PAUMix_Chunk@@@std@@@std@@YAPAPAUMix_Chunk@@QAPAU1@0PAPAU1@AAV?$allocator@PAUMix_Chunk@@@0@@Z 00421d60 f i mainfunction.obj
 0001:00020dd0       ??$_Uninitialized_move@PAPAVState@@V?$allocator@PAVState@@@std@@@std@@YAPAPAVState@@QAPAV1@0PAPAV1@AAV?$allocator@PAVState@@@0@@Z 00421dd0 f i mainfunction.obj
 0001:00020e40       ??$_Uninitialized_move@PAV?$queue@PAVnote@@V?$deque@PAVnote@@V?$allocator@PAVnote@@@std@@@std@@@std@@V?$allocator@V?$queue@PAVnote@@V?$deque@PAVnote@@V?$allocator@PAVnote@@@std@@@std@@@std@@@2@@std@@YAPAV?$queue@PAVnote@@V?$deque@PAVnote@@V?$allocator@PAVnote@@@std@@@std@@@0@QAV10@0PAV10@AAV?$allocator@V?$queue@PAVnote@@V?$deque@PAVnote@@V?$allocator@PAVnote@@@std@@@std@@@std@@@0@@Z 00421e40 f i mainfunction.obj
 0001:00020f20       ??$_Uninitialized_move@PAVSimpleImage@@V?$allocator@VSimpleImage@@@std@@@std@@YAPAVSimpleImage@@QAV1@0PAV1@AAV?$allocator@VSimpleImage@@@0@@Z 00421f20 f i mainfunction.obj
 0001:00021000       ??$_Uninitialized_value_construct_n_unchecked1@PAPAPAVnote@@I@std@@YAPAPAPAVnote@@PAPAPAV1@I@Z 00422000 f i mainfunction.obj
 0001:00021030       ??$_Verify_range@PAPAVnote@@@std@@YAXQBQAPAVnote@@0@Z 00422030 f i mainfunction.obj
 0001:000210b0       ??$_Verify_range@V?$queue@PAVnote@@V?$deque@PAVnote@@V?$allocator@PAVnote@@@std@@@std@@@std@@@std@@YAXQBV?$queue@PAVnote@@V?$deque@PAVnote@@V?$allocator@PAVnote@@@std@@@std@@@0@0@Z 004220b0 f i mainfunction.obj
 0001:00021130       ??$_Zero_range@PAPAPAVnote@@@std@@YAPAPAPAVnote@@QAPAPAV1@0@Z 00422130 f i mainfunction.obj
 0001:00021170       ??$addressof@$$CBV?$_Deque_val@U?$_Deque_simple_types@PAVnote@@@std@@@std@@@std@@YAPBV?$_Deque_val@U?$_Deque_simple_types@PAVnote@@@std@@@0@ABV10@@Z 00422170 f i mainfunction.obj
 0001:00021180       ??$addressof@$$CBV?$basic_string@DU?$char_traits@D@std@@V?$allocator@D@2@@std@@@std@@YAPBV?$basic_string@DU?$char_traits@D@std@@V?$allocator@D@2@@0@ABV10@@Z 00422180 f i mainfunction.obj
 0001:00021190       ??$addressof@$$CBV?$deque@PAVnote@@V?$allocator@PAVnote@@@std@@@std@@@std@@YAPBV?$deque@PAVnote@@V?$allocator@PAVnote@@@std@@@0@ABV10@@Z 00422190 f i mainfunction.obj
 0001:000211a0       ??$addressof@$$CBV?$vector@V?$queue@PAVnote@@V?$deque@PAVnote@@V?$allocator@PAVnote@@@std@@@std@@@std@@V?$allocator@V?$queue@PAVnote@@V?$deque@PAVnote@@V?$allocator@PAVnote@@@std@@@std@@@std@@@2@@std@@@std@@YAPBV?$vector@V?$queue@PAVnote@@V?$deque@PAVnote@@V?$allocator@PAVnote@@@std@@@std@@@std@@V?$allocator@V?$queue@PAVnote@@V?$deque@PAVnote@@V?$allocator@PAVnote@@@std@@@std@@@std@@@2@@0@ABV10@@Z 004221a0 f i mainfunction.obj
 0001:000211b0       ??$addressof@V?$_Deque_val@U?$_Deque_simple_types@PAVnote@@@std@@@std@@@std@@YAPAV?$_Deque_val@U?$_Deque_simple_types@PAVnote@@@std@@@0@AAV10@@Z 004221b0 f i mainfunction.obj
 0001:000211c0       ??$advance@PAV?$queue@PAVnote@@V?$deque@PAVnote@@V?$allocator@PAVnote@@@std@@@std@@@std@@H@std@@YAXAAPAV?$queue@PAVnote@@V?$deque@PAVnote@@V?$allocator@PAVnote@@@std@@@std@@@0@H@Z 004221c0 f i mainfunction.obj
 0001:000211e0       ??$assign@PAV?$queue@PAVnote@@V?$deque@PAVnote@@V?$allocator@PAVnote@@@std@@@std@@@std@@$0A@@?$vector@V?$queue@PAVnote@@V?$deque@PAVnote@@V?$allocator@PAVnote@@@std@@@std@@@std@@V?$allocator@V?$queue@PAVnote@@V?$deque@PAVnote@@V?$allocator@PAVnote@@@std@@@std@@@std@@@2@@std@@QAEXPAV?$queue@PAVnote@@V?$deque@PAVnote@@V?$allocator@PAVnote@@@std@@@std@@@1@0@Z 004221e0 f i mainfunction.obj
 0001:00021240       ??$assign@V?$_Deque_unchecked_const_iterator@V?$_Deque_val@U?$_Deque_simple_types@PAVnote@@@std@@@std@@@std@@$0A@@?$deque@PAVnote@@V?$allocator@PAVnote@@@std@@@std@@QAEXV?$_Deque_unchecked_const_iterator@V?$_Deque_val@U?$_Deque_simple_types@PAVnote@@@std@@@std@@@1@0@Z 00422240 f i mainfunction.obj
 0001:00021390       ??$construct@HH@?$_Default_allocator_traits@V?$allocator@H@std@@@std@@SAXAAV?$allocator@H@1@QAH$$QAH@Z 00422390 f i mainfunction.obj
 0001:000213d0       ??$construct@PAUMix_Chunk@@PAU1@@?$_Default_allocator_traits@V?$allocator@PAUMix_Chunk@@@std@@@std@@SAXAAV?$allocator@PAUMix_Chunk@@@1@QAPAUMix_Chunk@@$$QAPAU3@@Z 004223d0 f i mainfunction.obj
 0001:00021410       ??$construct@PAVState@@ABQAV1@@?$_Default_allocator_traits@V?$allocator@PAVState@@@std@@@std@@SAXAAV?$allocator@PAVState@@@1@QAPAVState@@ABQAV3@@Z 00422410 f i mainfunction.obj
 0001:00021450       ??$construct@PAVnote@@ABQAV1@@?$_Default_allocator_traits@V?$allocator@PAVnote@@@std@@@std@@SAXAAV?$allocator@PAVnote@@@1@QAPAVnote@@ABQAV3@@Z 00422450 f i mainfunction.obj
 0001:00021490       ??$construct@V?$queue@PAVnote@@V?$deque@PAVnote@@V?$allocator@PAVnote@@@std@@@std@@@std@@AAV12@@?$_Default_allocator_traits@V?$allocator@V?$queue@PAVnote@@V?$deque@PAVnote@@V?$allocator@PAVnote@@@std@@@std@@@std@@@std@@@std@@SAXAAV?$allocator@V?$queue@PAVnote@@V?$deque@PAVnote@@V?$allocator@PAVnote@@@std@@@std@@@std@@@1@QAV?$queue@PAVnote@@V?$deque@PAVnote@@V?$allocator@PAVnote@@@std@@@std@@@1@AAV31@@Z 00422490 f i mainfunction.obj
 0001:000214d0       ??$construct@V?$queue@PAVnote@@V?$deque@PAVnote@@V?$allocator@PAVnote@@@std@@@std@@@std@@ABV12@@?$_Default_allocator_traits@V?$allocator@V?$queue@PAVnote@@V?$deque@PAVnote@@V?$allocator@PAVnote@@@std@@@std@@@std@@@std@@@std@@SAXAAV?$allocator@V?$queue@PAVnote@@V?$deque@PAVnote@@V?$allocator@PAVnote@@@std@@@std@@@std@@@1@QAV?$queue@PAVnote@@V?$deque@PAVnote@@V?$allocator@PAVnote@@@std@@@std@@@1@ABV31@@Z 004224d0 f i mainfunction.obj
 0001:00021510       ??$construct@V?$queue@PAVnote@@V?$deque@PAVnote@@V?$allocator@PAVnote@@@std@@@std@@@std@@V12@@?$_Default_allocator_traits@V?$allocator@V?$queue@PAVnote@@V?$deque@PAVnote@@V?$allocator@PAVnote@@@std@@@std@@@std@@@std@@@std@@SAXAAV?$allocator@V?$queue@PAVnote@@V?$deque@PAVnote@@V?$allocator@PAVnote@@@std@@@std@@@std@@@1@QAV?$queue@PAVnote@@V?$deque@PAVnote@@V?$allocator@PAVnote@@@std@@@std@@@1@$$QAV31@@Z 00422510 f i mainfunction.obj
 0001:00021550       ??$construct@VSimpleImage@@ABV1@@?$_Default_allocator_traits@V?$allocator@VSimpleImage@@@std@@@std@@SAXAAV?$allocator@VSimpleImage@@@1@QAVSimpleImage@@ABV3@@Z 00422550 f i mainfunction.obj
 0001:00021590       ??$construct@VSimpleImage@@V1@@?$_Default_allocator_traits@V?$allocator@VSimpleImage@@@std@@@std@@SAXAAV?$allocator@VSimpleImage@@@1@QAVSimpleImage@@$$QAV3@@Z 00422590 f i mainfunction.obj
 0001:000215d0       ??$destroy@PAVnote@@@?$_Default_allocator_traits@V?$allocator@PAVnote@@@std@@@std@@SAXAAV?$allocator@PAVnote@@@1@QAPAVnote@@@Z 004225d0 f i mainfunction.obj
 0001:000215e0       ??$destroy@V?$basic_string@DU?$char_traits@D@std@@V?$allocator@D@2@@std@@@?$_Default_allocator_traits@V?$allocator@V?$basic_string@DU?$char_traits@D@std@@V?$allocator@D@2@@std@@@std@@@std@@SAXAAV?$allocator@V?$basic_string@DU?$char_traits@D@std@@V?$allocator@D@2@@std@@@1@QAV?$basic_string@DU?$char_traits@D@std@@V?$allocator@D@2@@1@@Z 004225e0 f i mainfunction.obj
 0001:00021600       ??$destroy@V?$queue@PAVnote@@V?$deque@PAVnote@@V?$allocator@PAVnote@@@std@@@std@@@std@@@?$_Default_allocator_traits@V?$allocator@V?$queue@PAVnote@@V?$deque@PAVnote@@V?$allocator@PAVnote@@@std@@@std@@@std@@@std@@@std@@SAXAAV?$allocator@V?$queue@PAVnote@@V?$deque@PAVnote@@V?$allocator@PAVnote@@@std@@@std@@@std@@@1@QAV?$queue@PAVnote@@V?$deque@PAVnote@@V?$allocator@PAVnote@@@std@@@std@@@1@@Z 00422600 f i mainfunction.obj
 0001:00021620       ??$destroy@VSimpleImage@@@?$_Default_allocator_traits@V?$allocator@VSimpleImage@@@std@@@std@@SAXAAV?$allocator@VSimpleImage@@@1@QAVSimpleImage@@@Z 00422620 f i mainfunction.obj
 0001:00021640       ??$distance@PAV?$queue@PAVnote@@V?$deque@PAVnote@@V?$allocator@PAVnote@@@std@@@std@@@std@@@std@@YAHPAV?$queue@PAVnote@@V?$deque@PAVnote@@V?$allocator@PAVnote@@@std@@@std@@@0@0@Z 00422640 f i mainfunction.obj
 0001:00021660       ??$emplace_back@ABQAVState@@@?$vector@PAVState@@V?$allocator@PAVState@@@std@@@std@@QAE@ABQAVState@@@Z 00422660 f i mainfunction.obj
 0001:000216e0       ??$emplace_back@ABQAVnote@@@?$deque@PAVnote@@V?$allocator@PAVnote@@@std@@@std@@QAE@ABQAVnote@@@Z 004226e0 f i mainfunction.obj
 0001:00021880       ??$emplace_back@ABV?$queue@PAVnote@@V?$deque@PAVnote@@V?$allocator@PAVnote@@@std@@@std@@@std@@@?$vector@V?$queue@PAVnote@@V?$deque@PAVnote@@V?$allocator@PAVnote@@@std@@@std@@@std@@V?$allocator@V?$queue@PAVnote@@V?$deque@PAVnote@@V?$allocator@PAVnote@@@std@@@std@@@std@@@2@@std@@QAE@ABV?$queue@PAVnote@@V?$deque@PAVnote@@V?$allocator@PAVnote@@@std@@@std@@@1@@Z 00422880 f i mainfunction.obj
 0001:00021900       ??$emplace_back@ABVSimpleImage@@@?$vector@VSimpleImage@@V?$allocator@VSimpleImage@@@std@@@std@@QAE@ABVSimpleImage@@@Z 00422900 f i mainfunction.obj
 0001:00021980       ??$emplace_back@H@?$vector@HV?$allocator@H@std@@@std@@QAE@$$QAH@Z 00422980 f i mainfunction.obj
 0001:00021a00       ??$emplace_back@PAUMix_Chunk@@@?$vector@PAUMix_Chunk@@V?$allocator@PAUMix_Chunk@@@std@@@std@@QAE@$$QAPAUMix_Chunk@@@Z 00422a00 f i mainfunction.obj
 0001:00021a80       ??$exchange@PAU_Container_proxy@std@@$$T@std@@YAPAU_Container_proxy@0@AAPAU10@$$QA$$T@Z 00422a80 f i mainfunction.obj
 0001:00021ab0       ??$forward@AAV?$queue@PAVnote@@V?$deque@PAVnote@@V?$allocator@PAVnote@@@std@@@std@@@std@@@std@@YAAAV?$queue@PAVnote@@V?$deque@PAVnote@@V?$allocator@PAVnote@@@std@@@std@@@0@AAV10@@Z 00422ab0 f i mainfunction.obj
 0001:00021ac0       ??$forward@ABQAVState@@@std@@YAABQAVState@@ABQAV1@@Z 00422ac0 f i mainfunction.obj
 0001:00021ad0       ??$forward@ABQAVnote@@@std@@YAABQAVnote@@ABQAV1@@Z 00422ad0 f i mainfunction.obj
 0001:00021ae0       ??$forward@ABV?$queue@PAVnote@@V?$deque@PAVnote@@V?$allocator@PAVnote@@@std@@@std@@@std@@@std@@YAABV?$queue@PAVnote@@V?$deque@PAVnote@@V?$allocator@PAVnote@@@std@@@std@@@0@ABV10@@Z 00422ae0 f i mainfunction.obj
 0001:00021af0       ??$forward@ABVSimpleImage@@@std@@YAABVSimpleImage@@ABV1@@Z 00422af0 f i mainfunction.obj
 0001:00021b00       ??$forward@H@std@@YA$$QAHAAH@Z 00422b00 f i mainfunction.obj
 0001:00021b10       ??$forward@PAUMix_Chunk@@@std@@YA$$QAPAUMix_Chunk@@AAPAU1@@Z 00422b10 f i mainfunction.obj
 0001:00021b20       ??$forward@V?$allocator@PAVnote@@@std@@@std@@YA$$QAV?$allocator@PAVnote@@@0@AAV10@@Z 00422b20 f i mainfunction.obj
 0001:00021b30       ??$forward@V?$allocator@V?$queue@PAVnote@@V?$deque@PAVnote@@V?$allocator@PAVnote@@@std@@@std@@@std@@@std@@@std@@YA$$QAV?$allocator@V?$queue@PAVnote@@V?$deque@PAVnote@@V?$allocator@PAVnote@@@std@@@std@@@std@@@0@AAV10@@Z 00422b30 f i mainfunction.obj
 0001:00021b40       ??$forward@V?$queue@PAVnote@@V?$deque@PAVnote@@V?$allocator@PAVnote@@@std@@@std@@@std@@@std@@YA$$QAV?$queue@PAVnote@@V?$deque@PAVnote@@V?$allocator@PAVnote@@@std@@@std@@@0@AAV10@@Z 00422b40 f i mainfunction.obj
 0001:00021b50       ??$forward@VSimpleImage@@@std@@YA$$QAVSimpleImage@@AAV1@@Z 00422b50 f i mainfunction.obj
 0001:00021b60       ??$move@AAPAUMix_Chunk@@@std@@YA$$QAPAUMix_Chunk@@AAPAU1@@Z 00422b60 f i mainfunction.obj
 0001:00021b70       ??$move@AAV?$allocator@PAVnote@@@std@@@std@@YA$$QAV?$allocator@PAVnote@@@0@AAV10@@Z 00422b70 f i mainfunction.obj
 0001:00021b80       ??$move@AAV?$queue@PAVnote@@V?$deque@PAVnote@@V?$allocator@PAVnote@@@std@@@std@@@std@@@std@@YA$$QAV?$queue@PAVnote@@V?$deque@PAVnote@@V?$allocator@PAVnote@@@std@@@std@@@0@AAV10@@Z 00422b80 f i mainfunction.obj
 0001:00021b90       ??$move@AAVSimpleImage@@@std@@YA$$QAVSimpleImage@@AAV1@@Z 00422b90 f i mainfunction.obj
 0001:00021ba0       ??$next@PAV?$queue@PAVnote@@V?$deque@PAVnote@@V?$allocator@PAVnote@@@std@@@std@@@std@@@std@@YAPAV?$queue@PAVnote@@V?$deque@PAVnote@@V?$allocator@PAVnote@@@std@@@std@@@0@PAV10@H@Z 00422ba0 f i mainfunction.obj
 0001:00021bc0       ??$uninitialized_copy@PAPAPAVnote@@PAPAPAV1@@std@@YAPAPAPAVnote@@QAPAPAV1@0PAPAPAV1@@Z 00422bc0 f i mainfunction.obj
 0001:00021c70       ??0?$_Deque_unchecked_const_iterator@V?$_Deque_val@U?$_Deque_simple_types@PAVnote@@@std@@@std@@@std@@QAE@IPBU_Container_base12@1@@Z 00422c70 f i mainfunction.obj
 0001:00021ca0       ??0?$_Deque_unchecked_iterator@V?$_Deque_val@U?$_Deque_simple_types@PAVnote@@@std@@@std@@@std@@QAE@IPBU_Container_base12@1@@Z 00422ca0 f i mainfunction.obj
 0001:00021cd0       ??0?$_Deque_val@U?$_Deque_simple_types@PAVnote@@@std@@@std@@QAE@XZ 00422cd0 f i mainfunction.obj
 0001:00021d20       ??0?$_Uninitialized_backout_al@V?$allocator@V?$queue@PAVnote@@V?$deque@PAVnote@@V?$allocator@PAVnote@@@std@@@std@@@std@@@std@@@std@@QAE@PAV?$queue@PAVnote@@V?$deque@PAVnote@@V?$allocator@PAVnote@@@std@@@std@@@1@AAV?$allocator@V?$queue@PAVnote@@V?$deque@PAVnote@@V?$allocator@PAVnote@@@std@@@std@@@std@@@1@@Z 00422d20 f i mainfunction.obj
 0001:00021d60       ??0?$_Uninitialized_backout_al@V?$allocator@VSimpleImage@@@std@@@std@@QAE@PAVSimpleImage@@AAV?$allocator@VSimpleImage@@@1@@Z 00422d60 f i mainfunction.obj
 0001:00021da0       ??0?$_Vector_val@U?$_Simple_types@H@std@@@std@@QAE@XZ 00422da0 f i mainfunction.obj
 0001:00021df0       ??0?$_Vector_val@U?$_Simple_types@PAUMix_Chunk@@@std@@@std@@QAE@XZ 00422df0 f i mainfunction.obj
 0001:00021e40       ??0?$_Vector_val@U?$_Simple_types@PAVButton@@@std@@@std@@QAE@XZ 00422e40 f i mainfunction.obj
 0001:00021e90       ??0?$_Vector_val@U?$_Simple_types@PAVState@@@std@@@std@@QAE@XZ 00422e90 f i mainfunction.obj
 0001:00021ee0       ??0?$_Vector_val@U?$_Simple_types@PAVcontroller@@@std@@@std@@QAE@XZ 00422ee0 f i mainfunction.obj
 0001:00021f30       ??0?$_Vector_val@U?$_Simple_types@PAVnote@@@std@@@std@@QAE@XZ 00422f30 f i mainfunction.obj
 0001:00021f80       ??0?$_Vector_val@U?$_Simple_types@V?$basic_string@DU?$char_traits@D@std@@V?$allocator@D@2@@std@@@std@@@std@@QAE@XZ 00422f80 f i mainfunction.obj
 0001:00021fd0       ??0?$_Vector_val@U?$_Simple_types@V?$queue@PAVnote@@V?$deque@PAVnote@@V?$allocator@PAVnote@@@std@@@std@@@std@@@std@@@std@@QAE@XZ 00422fd0 f i mainfunction.obj
 0001:00022020       ??0?$_Vector_val@U?$_Simple_types@VSimpleImage@@@std@@@std@@QAE@XZ 00423020 f i mainfunction.obj
 0001:00022070       ??0?$allocator@H@std@@QAE@XZ 00423070 f i mainfunction.obj
 0001:00022090       ??0?$allocator@PAUMix_Chunk@@@std@@QAE@XZ 00423090 f i mainfunction.obj
 0001:000220b0       ??0?$allocator@PAVButton@@@std@@QAE@XZ 004230b0 f i mainfunction.obj
 0001:000220d0       ??0?$allocator@PAVState@@@std@@QAE@XZ 004230d0 f i mainfunction.obj
 0001:000220f0       ??0?$allocator@PAVcontroller@@@std@@QAE@XZ 004230f0 f i mainfunction.obj
 0001:00022110       ??0?$allocator@PAVnote@@@std@@QAE@XZ 00423110 f i mainfunction.obj
 0001:00022130       ??0?$allocator@V?$basic_string@DU?$char_traits@D@std@@V?$allocator@D@2@@std@@@std@@QAE@XZ 00423130 f i mainfunction.obj
 0001:00022150       ??0?$allocator@V?$queue@PAVnote@@V?$deque@PAVnote@@V?$allocator@PAVnote@@@std@@@std@@@std@@@std@@QAE@XZ 00423150 f i mainfunction.obj
 0001:00022170       ??0?$allocator@VSimpleImage@@@std@@QAE@XZ 00423170 f i mainfunction.obj
 0001:00022190       ??0?$deque@PAVnote@@V?$allocator@PAVnote@@@std@@@std@@QAE@$$QAV01@@Z 00423190 f i mainfunction.obj
 0001:00022210       ??0?$deque@PAVnote@@V?$allocator@PAVnote@@@std@@@std@@QAE@ABV01@@Z 00423210 f i mainfunction.obj
 0001:00022320       ??0?$deque@PAVnote@@V?$allocator@PAVnote@@@std@@@std@@QAE@XZ 00423320 f i mainfunction.obj
 0001:00022370       ??0?$queue@PAVnote@@V?$deque@PAVnote@@V?$allocator@PAVnote@@@std@@@std@@@std@@QAE@$$QAV01@@Z 00423370 f i mainfunction.obj
 0001:000223a0       ??0?$queue@PAVnote@@V?$deque@PAVnote@@V?$allocator@PAVnote@@@std@@@std@@@std@@QAE@ABV01@@Z 004233a0 f i mainfunction.obj
 0001:000223d0       ??0?$queue@PAVnote@@V?$deque@PAVnote@@V?$allocator@PAVnote@@@std@@@std@@@std@@QAE@XZ 004233d0 f i mainfunction.obj
 0001:00022420       ??0?$vector@HV?$allocator@H@std@@@std@@QAE@XZ 00423420 f i mainfunction.obj
 0001:000224a0       ??0?$vector@PAUMix_Chunk@@V?$allocator@PAUMix_Chunk@@@std@@@std@@QAE@XZ 004234a0 f i mainfunction.obj
 0001:00022520       ??0?$vector@PAVButton@@V?$allocator@PAVButton@@@std@@@std@@QAE@XZ 00423520 f i mainfunction.obj
 0001:000225a0       ??0?$vector@PAVState@@V?$allocator@PAVState@@@std@@@std@@QAE@XZ 004235a0 f i mainfunction.obj
 0001:00022620       ??0?$vector@PAVcontroller@@V?$allocator@PAVcontroller@@@std@@@std@@QAE@XZ 00423620 f i mainfunction.obj
 0001:000226a0       ??0?$vector@PAVnote@@V?$allocator@PAVnote@@@std@@@std@@QAE@XZ 004236a0 f i mainfunction.obj
 0001:00022720       ??0?$vector@V?$basic_string@DU?$char_traits@D@std@@V?$allocator@D@2@@std@@V?$allocator@V?$basic_string@DU?$char_traits@D@std@@V?$allocator@D@2@@std@@@2@@std@@QAE@XZ 00423720 f i mainfunction.obj
 0001:000227a0       ??0?$vector@V?$queue@PAVnote@@V?$deque@PAVnote@@V?$allocator@PAVnote@@@std@@@std@@@std@@V?$allocator@V?$queue@PAVnote@@V?$deque@PAVnote@@V?$allocator@PAVnote@@@std@@@std@@@std@@@2@@std@@QAE@ABV01@@Z 004237a0 f i mainfunction.obj
 0001:00022910       ??0?$vector@V?$queue@PAVnote@@V?$deque@PAVnote@@V?$allocator@PAVnote@@@std@@@std@@@std@@V?$allocator@V?$queue@PAVnote@@V?$deque@PAVnote@@V?$allocator@PAVnote@@@std@@@std@@@std@@@2@@std@@QAE@XZ 00423910 f i mainfunction.obj
 0001:00022990       ??0?$vector@VSimpleImage@@V?$allocator@VSimpleImage@@@std@@@std@@QAE@XZ 00423990 f i mainfunction.obj
 0001:00022a10       ??0CoordinateMappingRotate@@QAE@N@Z 00423a10 f i mainfunction.obj
 0001:00022a50       ??0CoordinateMappingShiftXY@@QAE@NN@Z 00423a50 f i mainfunction.obj
 0001:00022aa0       ??0FilterPoints@@QAE@XZ    00423aa0 f i mainfunction.obj
 0001:00022ac0       ??0FilterPointsScaling@@QAE@HHPAVFilterPoints@@@Z 00423ac0 f i mainfunction.obj
 0001:00022b40       ??0FilterPointsTranslation@@QAE@HHPAVFilterPoints@@@Z 00423b40 f i mainfunction.obj
 0001:00022b90       ??0Ranking@@QAE@XZ         00423b90 f i mainfunction.obj
 0001:00022c20       ??0Script@@QAE@V?$basic_string@DU?$char_traits@D@std@@V?$allocator@D@2@@std@@V?$vector@V?$queue@PAVnote@@V?$deque@PAVnote@@V?$allocator@PAVnote@@@std@@@std@@@std@@V?$allocator@V?$queue@PAVnote@@V?$deque@PAVnote@@V?$allocator@PAVnote@@@std@@@std@@@std@@@2@@2@@Z 00423c20 f i mainfunction.obj
 0001:00022d50       ??0Scyyc1Engine@@QAE@XZ    00423d50 f i mainfunction.obj
 0001:000234c0       ??0SimpleImage@@QAE@ABV0@@Z 004244c0 f i mainfunction.obj
 0001:00023510       ??0State@@QAE@V?$basic_string@DU?$char_traits@D@std@@V?$allocator@D@2@@std@@PAVBaseEngine@@AAH@Z 00424510 f i mainfunction.obj
 0001:000235c0       ??0State_animation@@QAE@V?$basic_string@DU?$char_traits@D@std@@V?$allocator@D@2@@std@@PAVBaseEngine@@AAH@Z 004245c0 f i mainfunction.obj
 0001:00023680       ??0State_end@@QAE@V?$basic_string@DU?$char_traits@D@std@@V?$allocator@D@2@@std@@PAVBaseEngine@@AAHPAVCoordinateMappingShiftXY@@PAVCoordinateMappingRotate@@@Z 00424680 f i mainfunction.obj
 0001:000237e0       ??0State_function@@QAE@V?$basic_string@DU?$char_traits@D@std@@V?$allocator@D@2@@std@@PAVBaseEngine@@AAH@Z 004247e0 f i mainfunction.obj
 0001:00023890       ??0State_gaming@@QAE@V?$basic_string@DU?$char_traits@D@std@@V?$allocator@D@2@@std@@PAVBaseEngine@@AAH@Z 00424890 f i mainfunction.obj
 0001:00023cd0       ??0State_name@@QAE@V?$basic_string@DU?$char_traits@D@std@@V?$allocator@D@2@@std@@PAVBaseEngine@@AAH@Z 00424cd0 f i mainfunction.obj
 0001:00023d80       ??0State_pause@@QAE@V?$basic_string@DU?$char_traits@D@std@@V?$allocator@D@2@@std@@PAVBaseEngine@@AAH@Z 00424d80 f i mainfunction.obj
 0001:00023e20       ??0State_rank@@QAE@V?$basic_string@DU?$char_traits@D@std@@V?$allocator@D@2@@std@@PAVBaseEngine@@AAH@Z 00424e20 f i mainfunction.obj
 0001:00023f20       ??0State_start@@QAE@V?$basic_string@DU?$char_traits@D@std@@V?$allocator@D@2@@std@@PAVBaseEngine@@AAH@Z 00424f20 f i mainfunction.obj
 0001:00024060       ??0TileManager@@QAE@HHHH@Z 00425060 f i mainfunction.obj
 0001:000240f0       ??0luckyDraw@@QAE@XZ       004250f0 f i mainfunction.obj
 0001:000245a0       ??1?$_Tidy_guard@V?$deque@PAVnote@@V?$allocator@PAVnote@@@std@@@std@@@std@@QAE@XZ 004255a0 f i mainfunction.obj
 0001:000245d0       ??1?$_Tidy_guard@V?$vector@V?$queue@PAVnote@@V?$deque@PAVnote@@V?$allocator@PAVnote@@@std@@@std@@@std@@V?$allocator@V?$queue@PAVnote@@V?$deque@PAVnote@@V?$allocator@PAVnote@@@std@@@std@@@std@@@2@@std@@@std@@QAE@XZ 004255d0 f i mainfunction.obj
 0001:00024600       ??1?$_Uninitialized_backout_al@V?$allocator@V?$queue@PAVnote@@V?$deque@PAVnote@@V?$allocator@PAVnote@@@std@@@std@@@std@@@std@@@std@@QAE@XZ 00425600 f i mainfunction.obj
 0001:00024630       ??1?$_Uninitialized_backout_al@V?$allocator@VSimpleImage@@@std@@@std@@QAE@XZ 00425630 f i mainfunction.obj
 0001:00024660       ??1?$deque@PAVnote@@V?$allocator@PAVnote@@@std@@@std@@QAE@XZ 00425660 f i mainfunction.obj
 0001:000246d0       ??1?$queue@PAVnote@@V?$deque@PAVnote@@V?$allocator@PAVnote@@@std@@@std@@@std@@QAE@XZ 004256d0 f i mainfunction.obj
 0001:000246f0       ??1?$vector@HV?$allocator@H@std@@@std@@QAE@XZ 004256f0 f i mainfunction.obj
 0001:00024760       ??1?$vector@PAUMix_Chunk@@V?$allocator@PAUMix_Chunk@@@std@@@std@@QAE@XZ 00425760 f i mainfunction.obj
 0001:000247d0       ??1?$vector@PAVButton@@V?$allocator@PAVButton@@@std@@@std@@QAE@XZ 004257d0 f i mainfunction.obj
 0001:00024840       ??1?$vector@PAVState@@V?$allocator@PAVState@@@std@@@std@@QAE@XZ 00425840 f i mainfunction.obj
 0001:000248b0       ??1?$vector@PAVcontroller@@V?$allocator@PAVcontroller@@@std@@@std@@QAE@XZ 004258b0 f i mainfunction.obj
 0001:00024920       ??1?$vector@PAVnote@@V?$allocator@PAVnote@@@std@@@std@@QAE@XZ 00425920 f i mainfunction.obj
 0001:00024990       ??1?$vector@V?$basic_string@DU?$char_traits@D@std@@V?$allocator@D@2@@std@@V?$allocator@V?$basic_string@DU?$char_traits@D@std@@V?$allocator@D@2@@std@@@2@@std@@QAE@XZ 00425990 f i mainfunction.obj
 0001:00024a00       ??1?$vector@V?$queue@PAVnote@@V?$deque@PAVnote@@V?$allocator@PAVnote@@@std@@@std@@@std@@V?$allocator@V?$queue@PAVnote@@V?$deque@PAVnote@@V?$allocator@PAVnote@@@std@@@std@@@std@@@2@@std@@QAE@XZ 00425a00 f i mainfunction.obj
 0001:00024a70       ??1?$vector@VSimpleImage@@V?$allocator@VSimpleImage@@@std@@@std@@QAE@XZ 00425a70 f i mainfunction.obj
 0001:00024ae0       ??1ImageManager@@QAE@XZ    00425ae0 f i mainfunction.obj
 0001:00024b10       ??1Scyyc1Engine@@UAE@XZ    00425b10 f i mainfunction.obj
 0001:00024b70       ??1State@@QAE@XZ           00425b70 f i mainfunction.obj
 0001:00024ba0       ??1State_function@@QAE@XZ  00425ba0 f i mainfunction.obj
 0001:00024bd0       ??1TileManager@@UAE@XZ     00425bd0 f i mainfunction.obj
 0001:00024c20       ??1luckyDraw@@UAE@XZ       00425c20 f i mainfunction.obj
 0001:00024c50       ??4?$basic_string@DU?$char_traits@D@std@@V?$allocator@D@2@@std@@QAEAAV01@ABV01@@Z 00425c50 f i mainfunction.obj
 0001:00024ca0       ??4?$deque@PAVnote@@V?$allocator@PAVnote@@@std@@@std@@QAEAAV01@ABV01@@Z 00425ca0 f i mainfunction.obj
 0001:00024cf0       ??4?$queue@PAVnote@@V?$deque@PAVnote@@V?$allocator@PAVnote@@@std@@@std@@@std@@QAEAAV01@ABV01@@Z 00425cf0 f i mainfunction.obj
 0001:00024d20       ??4?$vector@V?$queue@PAVnote@@V?$deque@PAVnote@@V?$allocator@PAVnote@@@std@@@std@@@std@@V?$allocator@V?$queue@PAVnote@@V?$deque@PAVnote@@V?$allocator@PAVnote@@@std@@@std@@@std@@@2@@std@@QAEAAV01@ABV01@@Z 00425d20 f i mainfunction.obj
 0001:00024d70       ??8?$_Deque_unchecked_const_iterator@V?$_Deque_val@U?$_Deque_simple_types@PAVnote@@@std@@@std@@@std@@QBE_NABV01@@Z 00425d70 f i mainfunction.obj
 0001:00024db0       ??9?$_Deque_unchecked_const_iterator@V?$_Deque_val@U?$_Deque_simple_types@PAVnote@@@std@@@std@@@std@@QBE_NABV01@@Z 00425db0 f i mainfunction.obj
 0001:00024e00       ??A?$vector@PAVButton@@V?$allocator@PAVButton@@@std@@@std@@QAEAAPAVButton@@I@Z 00425e00 f i mainfunction.obj
 0001:00024eb0       ??A?$vector@PAVState@@V?$allocator@PAVState@@@std@@@std@@QAEAAPAVState@@I@Z 00425eb0 f i mainfunction.obj
 0001:00024f60       ??A?$vector@V?$queue@PAVnote@@V?$deque@PAVnote@@V?$allocator@PAVnote@@@std@@@std@@@std@@V?$allocator@V?$queue@PAVnote@@V?$deque@PAVnote@@V?$allocator@PAVnote@@@std@@@std@@@std@@@2@@std@@QAEAAV?$queue@PAVnote@@V?$deque@PAVnote@@V?$allocator@PAVnote@@@std@@@std@@@1@I@Z 00425f60 f i mainfunction.obj
 0001:00025010       ??D?$_Deque_unchecked_const_iterator@V?$_Deque_val@U?$_Deque_simple_types@PAVnote@@@std@@@std@@@std@@QBEABQAVnote@@XZ 00426010 f i mainfunction.obj
 0001:00025070       ??D?$_Deque_unchecked_iterator@V?$_Deque_val@U?$_Deque_simple_types@PAVnote@@@std@@@std@@@std@@QBEAAPAVnote@@XZ 00426070 f i mainfunction.obj
 0001:00025090       ??E?$_Deque_unchecked_const_iterator@V?$_Deque_val@U?$_Deque_simple_types@PAVnote@@@std@@@std@@@std@@QAEAAV01@XZ 00426090 f i mainfunction.obj
 0001:000250c0       ??E?$_Deque_unchecked_iterator@V?$_Deque_val@U?$_Deque_simple_types@PAVnote@@@std@@@std@@@std@@QAEAAV01@XZ 004260c0 f i mainfunction.obj
 0001:000250e0       ??G?$_Deque_unchecked_const_iterator@V?$_Deque_val@U?$_Deque_simple_types@PAVnote@@@std@@@std@@@std@@QBEHABV01@@Z 004260e0 f i mainfunction.obj
 0001:00025100       ??G?$_Deque_unchecked_iterator@V?$_Deque_val@U?$_Deque_simple_types@PAVnote@@@std@@@std@@@std@@QBEHABV?$_Deque_unchecked_const_iterator@V?$_Deque_val@U?$_Deque_simple_types@PAVnote@@@std@@@std@@@1@@Z 00426100 f i mainfunction.obj
 0001:00025120       ??_G?$basic_string@DU?$char_traits@D@std@@V?$allocator@D@2@@std@@QAEPAXI@Z 00426120 f i mainfunction.obj
 0001:00025160       ??_G?$queue@PAVnote@@V?$deque@PAVnote@@V?$allocator@PAVnote@@@std@@@std@@@std@@QAEPAXI@Z 00426160 f i mainfunction.obj
 0001:000251a0       ??_GImageManager@@QAEPAXI@Z 004261a0 f i mainfunction.obj
 0001:000251e0       ??_EScyyc1Engine@@UAEPAXI@Z 004261e0 f i mainfunction.obj
 0001:000251e0       ??_GScyyc1Engine@@UAEPAXI@Z 004261e0 f i mainfunction.obj
 0001:00025220       ??_GSimpleImage@@QAEPAXI@Z 00426220 f i mainfunction.obj
 0001:00025260       ??_ETileManager@@UAEPAXI@Z 00426260 f i mainfunction.obj
 0001:00025260       ??_GTileManager@@UAEPAXI@Z 00426260 f i mainfunction.obj
 0001:000252a0       ??_GluckyDraw@@UAEPAXI@Z   004262a0 f i mainfunction.obj
 0001:000252a0       ??_EluckyDraw@@UAEPAXI@Z   004262a0 f i mainfunction.obj
 0001:000252e0       ?_Buy_raw@?$vector@V?$queue@PAVnote@@V?$deque@PAVnote@@V?$allocator@PAVnote@@@std@@@std@@@std@@V?$allocator@V?$queue@PAVnote@@V?$deque@PAVnote@@V?$allocator@PAVnote@@@std@@@std@@@std@@@2@@std@@AAEXI@Z 004262e0 f i mainfunction.obj
 0001:00025360       ?_Calculate_growth@?$vector@HV?$allocator@H@std@@@std@@ABEII@Z 00426360 f i mainfunction.obj
 0001:000253d0       ?_Calculate_growth@?$vector@PAUMix_Chunk@@V?$allocator@PAUMix_Chunk@@@std@@@std@@ABEII@Z 004263d0 f i mainfunction.obj
 0001:00025440       ?_Calculate_growth@?$vector@PAVState@@V?$allocator@PAVState@@@std@@@std@@ABEII@Z 00426440 f i mainfunction.obj
 0001:000254b0       ?_Calculate_growth@?$vector@V?$queue@PAVnote@@V?$deque@PAVnote@@V?$allocator@PAVnote@@@std@@@std@@@std@@V?$allocator@V?$queue@PAVnote@@V?$deque@PAVnote@@V?$allocator@PAVnote@@@std@@@std@@@std@@@2@@std@@ABEII@Z 004264b0 f i mainfunction.obj
 0001:00025520       ?_Calculate_growth@?$vector@VSimpleImage@@V?$allocator@VSimpleImage@@@std@@@std@@ABEII@Z 00426520 f i mainfunction.obj
 0001:00025590       ?_Change_array@?$vector@HV?$allocator@H@std@@@std@@AAEXQAHII@Z 00426590 f i mainfunction.obj
 0001:00025660       ?_Change_array@?$vector@PAUMix_Chunk@@V?$allocator@PAUMix_Chunk@@@std@@@std@@AAEXQAPAUMix_Chunk@@II@Z 00426660 f i mainfunction.obj
 0001:00025730       ?_Change_array@?$vector@PAVState@@V?$allocator@PAVState@@@std@@@std@@AAEXQAPAVState@@II@Z 00426730 f i mainfunction.obj
 0001:00025800       ?_Change_array@?$vector@V?$queue@PAVnote@@V?$deque@PAVnote@@V?$allocator@PAVnote@@@std@@@std@@@std@@V?$allocator@V?$queue@PAVnote@@V?$deque@PAVnote@@V?$allocator@PAVnote@@@std@@@std@@@std@@@2@@std@@AAEXQAV?$queue@PAVnote@@V?$deque@PAVnote@@V?$allocator@PAVnote@@@std@@@std@@@2@II@Z 00426800 f i mainfunction.obj
 0001:000258d0       ?_Change_array@?$vector@VSimpleImage@@V?$allocator@VSimpleImage@@@std@@@std@@AAEXQAVSimpleImage@@II@Z 004268d0 f i mainfunction.obj
 0001:000259a0       ?_Clear_and_reserve_geometric@?$vector@V?$queue@PAVnote@@V?$deque@PAVnote@@V?$allocator@PAVnote@@@std@@@std@@@std@@V?$allocator@V?$queue@PAVnote@@V?$deque@PAVnote@@V?$allocator@PAVnote@@@std@@@std@@@std@@@2@@std@@AAEXI@Z 004269a0 f i mainfunction.obj
 0001:00025a90       ?_Copy_assign@?$basic_string@DU?$char_traits@D@std@@V?$allocator@D@2@@std@@AAEXABV12@U?$integral_constant@_N$0A@@2@@Z 00426a90 f i mainfunction.obj
 0001:00025ae0       ?_Copy_assign@?$deque@PAVnote@@V?$allocator@PAVnote@@@std@@@std@@QAEXABV12@U?$integral_constant@_N$0A@@2@@Z 00426ae0 f i mainfunction.obj
 0001:00025b50       ?_Copy_assign@?$vector@V?$queue@PAVnote@@V?$deque@PAVnote@@V?$allocator@PAVnote@@@std@@@std@@@std@@V?$allocator@V?$queue@PAVnote@@V?$deque@PAVnote@@V?$allocator@PAVnote@@@std@@@std@@@std@@@2@@std@@AAEXABV12@U?$integral_constant@_N$0A@@2@@Z 00426b50 f i mainfunction.obj
 0001:00025bb0       ?_Destroy@?$vector@HV?$allocator@H@std@@@std@@AAEXPAH0@Z 00426bb0 f i mainfunction.obj
 0001:00025be0       ?_Destroy@?$vector@PAUMix_Chunk@@V?$allocator@PAUMix_Chunk@@@std@@@std@@AAEXPAPAUMix_Chunk@@0@Z 00426be0 f i mainfunction.obj
 0001:00025c10       ?_Destroy@?$vector@PAVButton@@V?$allocator@PAVButton@@@std@@@std@@AAEXPAPAVButton@@0@Z 00426c10 f i mainfunction.obj
 0001:00025c40       ?_Destroy@?$vector@PAVState@@V?$allocator@PAVState@@@std@@@std@@AAEXPAPAVState@@0@Z 00426c40 f i mainfunction.obj
 0001:00025c70       ?_Destroy@?$vector@PAVcontroller@@V?$allocator@PAVcontroller@@@std@@@std@@AAEXPAPAVcontroller@@0@Z 00426c70 f i mainfunction.obj
 0001:00025ca0       ?_Destroy@?$vector@PAVnote@@V?$allocator@PAVnote@@@std@@@std@@AAEXPAPAVnote@@0@Z 00426ca0 f i mainfunction.obj
 0001:00025cd0       ?_Destroy@?$vector@V?$basic_string@DU?$char_traits@D@std@@V?$allocator@D@2@@std@@V?$allocator@V?$basic_string@DU?$char_traits@D@std@@V?$allocator@D@2@@std@@@2@@std@@AAEXPAV?$basic_string@DU?$char_traits@D@std@@V?$allocator@D@2@@2@0@Z 00426cd0 f i mainfunction.obj
 0001:00025d00       ?_Destroy@?$vector@V?$queue@PAVnote@@V?$deque@PAVnote@@V?$allocator@PAVnote@@@std@@@std@@@std@@V?$allocator@V?$queue@PAVnote@@V?$deque@PAVnote@@V?$allocator@PAVnote@@@std@@@std@@@std@@@2@@std@@AAEXPAV?$queue@PAVnote@@V?$deque@PAVnote@@V?$allocator@PAVnote@@@std@@@std@@@2@0@Z 00426d00 f i mainfunction.obj
 0001:00025d30       ?_Destroy@?$vector@VSimpleImage@@V?$allocator@VSimpleImage@@@std@@@std@@AAEXPAVSimpleImage@@0@Z 00426d30 f i mainfunction.obj
 0001:00025d60       ?_Equal@?$basic_string@DU?$char_traits@D@std@@V?$allocator@D@2@@std@@QBE_NQBD@Z 00426d60 f i mainfunction.obj
 0001:00025de0       ?_Erase_last_n@?$deque@PAVnote@@V?$allocator@PAVnote@@@std@@@std@@AAEXI@Z 00426de0 f i mainfunction.obj
 0001:00025e20       ?_Get_data@?$deque@PAVnote@@V?$allocator@PAVnote@@@std@@@std@@AAEAAV?$_Deque_val@U?$_Deque_simple_types@PAVnote@@@std@@@2@XZ 00426e20 f i mainfunction.obj
 0001:00025e40       ?_Get_data@?$deque@PAVnote@@V?$allocator@PAVnote@@@std@@@std@@ABEABV?$_Deque_val@U?$_Deque_simple_types@PAVnote@@@std@@@2@XZ 00426e40 f i mainfunction.obj
 0001:00025e60       ?_Get_first@?$_Compressed_pair@V?$allocator@H@std@@V?$_Vector_val@U?$_Simple_types@H@std@@@2@$00@std@@QAEAAV?$allocator@H@2@XZ 00426e60 f i mainfunction.obj
 0001:00025e80       ?_Get_first@?$_Compressed_pair@V?$allocator@H@std@@V?$_Vector_val@U?$_Simple_types@H@std@@@2@$00@std@@QBEABV?$allocator@H@2@XZ 00426e80 f i mainfunction.obj
 0001:00025ea0       ?_Get_first@?$_Compressed_pair@V?$allocator@PAUMix_Chunk@@@std@@V?$_Vector_val@U?$_Simple_types@PAUMix_Chunk@@@std@@@2@$00@std@@QAEAAV?$allocator@PAUMix_Chunk@@@2@XZ 00426ea0 f i mainfunction.obj
 0001:00025ec0       ?_Get_first@?$_Compressed_pair@V?$allocator@PAUMix_Chunk@@@std@@V?$_Vector_val@U?$_Simple_types@PAUMix_Chunk@@@std@@@2@$00@std@@QBEABV?$allocator@PAUMix_Chunk@@@2@XZ 00426ec0 f i mainfunction.obj
 0001:00025ee0       ?_Get_first@?$_Compressed_pair@V?$allocator@PAVButton@@@std@@V?$_Vector_val@U?$_Simple_types@PAVButton@@@std@@@2@$00@std@@QAEAAV?$allocator@PAVButton@@@2@XZ 00426ee0 f i mainfunction.obj
 0001:00025f00       ?_Get_first@?$_Compressed_pair@V?$allocator@PAVState@@@std@@V?$_Vector_val@U?$_Simple_types@PAVState@@@std@@@2@$00@std@@QAEAAV?$allocator@PAVState@@@2@XZ 00426f00 f i mainfunction.obj
 0001:00025f20       ?_Get_first@?$_Compressed_pair@V?$allocator@PAVState@@@std@@V?$_Vector_val@U?$_Simple_types@PAVState@@@std@@@2@$00@std@@QBEABV?$allocator@PAVState@@@2@XZ 00426f20 f i mainfunction.obj
 0001:00025f40       ?_Get_first@?$_Compressed_pair@V?$allocator@PAVcontroller@@@std@@V?$_Vector_val@U?$_Simple_types@PAVcontroller@@@std@@@2@$00@std@@QAEAAV?$allocator@PAVcontroller@@@2@XZ 00426f40 f i mainfunction.obj
 0001:00025f60       ?_Get_first@?$_Compressed_pair@V?$allocator@PAVnote@@@std@@V?$_Deque_val@U?$_Deque_simple_types@PAVnote@@@std@@@2@$00@std@@QAEAAV?$allocator@PAVnote@@@2@XZ 00426f60 f i mainfunction.obj
 0001:00025f80       ?_Get_first@?$_Compressed_pair@V?$allocator@PAVnote@@@std@@V?$_Deque_val@U?$_Deque_simple_types@PAVnote@@@std@@@2@$00@std@@QBEABV?$allocator@PAVnote@@@2@XZ 00426f80 f i mainfunction.obj
 0001:00025fa0       ?_Get_first@?$_Compressed_pair@V?$allocator@PAVnote@@@std@@V?$_Vector_val@U?$_Simple_types@PAVnote@@@std@@@2@$00@std@@QAEAAV?$allocator@PAVnote@@@2@XZ 00426fa0 f i mainfunction.obj
 0001:00025fc0       ?_Get_first@?$_Compressed_pair@V?$allocator@V?$basic_string@DU?$char_traits@D@std@@V?$allocator@D@2@@std@@@std@@V?$_Vector_val@U?$_Simple_types@V?$basic_string@DU?$char_traits@D@std@@V?$allocator@D@2@@std@@@std@@@2@$00@std@@QAEAAV?$allocator@V?$basic_string@DU?$char_traits@D@std@@V?$allocator@D@2@@std@@@2@XZ 00426fc0 f i mainfunction.obj
 0001:00025fe0       ?_Get_first@?$_Compressed_pair@V?$allocator@V?$queue@PAVnote@@V?$deque@PAVnote@@V?$allocator@PAVnote@@@std@@@std@@@std@@@std@@V?$_Vector_val@U?$_Simple_types@V?$queue@PAVnote@@V?$deque@PAVnote@@V?$allocator@PAVnote@@@std@@@std@@@std@@@std@@@2@$00@std@@QAEAAV?$allocator@V?$queue@PAVnote@@V?$deque@PAVnote@@V?$allocator@PAVnote@@@std@@@std@@@std@@@2@XZ 00426fe0 f i mainfunction.obj
 0001:00026000       ?_Get_first@?$_Compressed_pair@V?$allocator@V?$queue@PAVnote@@V?$deque@PAVnote@@V?$allocator@PAVnote@@@std@@@std@@@std@@@std@@V?$_Vector_val@U?$_Simple_types@V?$queue@PAVnote@@V?$deque@PAVnote@@V?$allocator@PAVnote@@@std@@@std@@@std@@@std@@@2@$00@std@@QBEABV?$allocator@V?$queue@PAVnote@@V?$deque@PAVnote@@V?$allocator@PAVnote@@@std@@@std@@@std@@@2@XZ 00427000 f i mainfunction.obj
 0001:00026020       ?_Get_first@?$_Compressed_pair@V?$allocator@VSimpleImage@@@std@@V?$_Vector_val@U?$_Simple_types@VSimpleImage@@@std@@@2@$00@std@@QAEAAV?$allocator@VSimpleImage@@@2@XZ 00427020 f i mainfunction.obj
 0001:00026040       ?_Get_first@?$_Compressed_pair@V?$allocator@VSimpleImage@@@std@@V?$_Vector_val@U?$_Simple_types@VSimpleImage@@@std@@@2@$00@std@@QBEABV?$allocator@VSimpleImage@@@2@XZ 00427040 f i mainfunction.obj
 0001:00026060       ?_Getal@?$deque@PAVnote@@V?$allocator@PAVnote@@@std@@@std@@AAEAAV?$allocator@PAVnote@@@2@XZ 00427060 f i mainfunction.obj
 0001:00026080       ?_Getal@?$deque@PAVnote@@V?$allocator@PAVnote@@@std@@@std@@ABEABV?$allocator@PAVnote@@@2@XZ 00427080 f i mainfunction.obj
 0001:000260a0       ?_Getal@?$vector@HV?$allocator@H@std@@@std@@AAEAAV?$allocator@H@2@XZ 004270a0 f i mainfunction.obj
 0001:000260c0       ?_Getal@?$vector@HV?$allocator@H@std@@@std@@ABEABV?$allocator@H@2@XZ 004270c0 f i mainfunction.obj
 0001:000260e0       ?_Getal@?$vector@PAUMix_Chunk@@V?$allocator@PAUMix_Chunk@@@std@@@std@@AAEAAV?$allocator@PAUMix_Chunk@@@2@XZ 004270e0 f i mainfunction.obj
 0001:00026100       ?_Getal@?$vector@PAUMix_Chunk@@V?$allocator@PAUMix_Chunk@@@std@@@std@@ABEABV?$allocator@PAUMix_Chunk@@@2@XZ 00427100 f i mainfunction.obj
 0001:00026120       ?_Getal@?$vector@PAVButton@@V?$allocator@PAVButton@@@std@@@std@@AAEAAV?$allocator@PAVButton@@@2@XZ 00427120 f i mainfunction.obj
 0001:00026140       ?_Getal@?$vector@PAVState@@V?$allocator@PAVState@@@std@@@std@@AAEAAV?$allocator@PAVState@@@2@XZ 00427140 f i mainfunction.obj
 0001:00026160       ?_Getal@?$vector@PAVState@@V?$allocator@PAVState@@@std@@@std@@ABEABV?$allocator@PAVState@@@2@XZ 00427160 f i mainfunction.obj
 0001:00026180       ?_Getal@?$vector@PAVcontroller@@V?$allocator@PAVcontroller@@@std@@@std@@AAEAAV?$allocator@PAVcontroller@@@2@XZ 00427180 f i mainfunction.obj
 0001:000261a0       ?_Getal@?$vector@PAVnote@@V?$allocator@PAVnote@@@std@@@std@@AAEAAV?$allocator@PAVnote@@@2@XZ 004271a0 f i mainfunction.obj
 0001:000261c0       ?_Getal@?$vector@V?$basic_string@DU?$char_traits@D@std@@V?$allocator@D@2@@std@@V?$allocator@V?$basic_string@DU?$char_traits@D@std@@V?$allocator@D@2@@std@@@2@@std@@AAEAAV?$allocator@V?$basic_string@DU?$char_traits@D@std@@V?$allocator@D@2@@std@@@2@XZ 004271c0 f i mainfunction.obj
 0001:000261e0       ?_Getal@?$vector@V?$queue@PAVnote@@V?$deque@PAVnote@@V?$allocator@PAVnote@@@std@@@std@@@std@@V?$allocator@V?$queue@PAVnote@@V?$deque@PAVnote@@V?$allocator@PAVnote@@@std@@@std@@@std@@@2@@std@@AAEAAV?$allocator@V?$queue@PAVnote@@V?$deque@PAVnote@@V?$allocator@PAVnote@@@std@@@std@@@std@@@2@XZ 004271e0 f i mainfunction.obj
 0001:00026200       ?_Getal@?$vector@V?$queue@PAVnote@@V?$deque@PAVnote@@V?$allocator@PAVnote@@@std@@@std@@@std@@V?$allocator@V?$queue@PAVnote@@V?$deque@PAVnote@@V?$allocator@PAVnote@@@std@@@std@@@std@@@2@@std@@ABEABV?$allocator@V?$queue@PAVnote@@V?$deque@PAVnote@@V?$allocator@PAVnote@@@std@@@std@@@std@@@2@XZ 00427200 f i mainfunction.obj
 0001:00026220       ?_Getal@?$vector@VSimpleImage@@V?$allocator@VSimpleImage@@@std@@@std@@AAEAAV?$allocator@VSimpleImage@@@2@XZ 00427220 f i mainfunction.obj
 0001:00026240       ?_Getal@?$vector@VSimpleImage@@V?$allocator@VSimpleImage@@@std@@@std@@ABEABV?$allocator@VSimpleImage@@@2@XZ 00427240 f i mainfunction.obj
 0001:00026260       ?_Getblock@?$_Deque_val@U?$_Deque_simple_types@PAVnote@@@std@@@std@@QBEII@Z 00427260 f i mainfunction.obj
 0001:00026290       ?_Getblock@?$deque@PAVnote@@V?$allocator@PAVnote@@@std@@@std@@ABEII@Z 00427290 f i mainfunction.obj
 0001:000262c0       ?_Growmap@?$deque@PAVnote@@V?$allocator@PAVnote@@@std@@@std@@AAEXI@Z 004272c0 f i mainfunction.obj
 0001:000265a0       ?_Map@?$deque@PAVnote@@V?$allocator@PAVnote@@@std@@@std@@AAEAAPAPAPAVnote@@XZ 004275a0 f i mainfunction.obj
 0001:000265c0       ?_Mapsize@?$deque@PAVnote@@V?$allocator@PAVnote@@@std@@@std@@AAEAAIXZ 004275c0 f i mainfunction.obj
 0001:000265e0       ?_Myoff@?$deque@PAVnote@@V?$allocator@PAVnote@@@std@@@std@@AAEAAIXZ 004275e0 f i mainfunction.obj
 0001:00026600       ?_Myoff@?$deque@PAVnote@@V?$allocator@PAVnote@@@std@@@std@@ABEABIXZ 00427600 f i mainfunction.obj
 0001:00026620       ?_Mysize@?$deque@PAVnote@@V?$allocator@PAVnote@@@std@@@std@@AAEAAIXZ 00427620 f i mainfunction.obj
 0001:00026640       ?_Mysize@?$deque@PAVnote@@V?$allocator@PAVnote@@@std@@@std@@ABEABIXZ 00427640 f i mainfunction.obj
 0001:00026660       ?_Orphan_all@?$deque@PAVnote@@V?$allocator@PAVnote@@@std@@@std@@AAEXXZ 00427660 f i mainfunction.obj
 0001:00026680       ?_Orphan_off@?$deque@PAVnote@@V?$allocator@PAVnote@@@std@@@std@@ABEXI@Z 00427680 f i mainfunction.obj
 0001:00026780       ?_Orphan_range@?$vector@HV?$allocator@H@std@@@std@@ABEXPAH0@Z 00427780 f i mainfunction.obj
 0001:00026820       ?_Orphan_range@?$vector@PAUMix_Chunk@@V?$allocator@PAUMix_Chunk@@@std@@@std@@ABEXPAPAUMix_Chunk@@0@Z 00427820 f i mainfunction.obj
 0001:000268c0       ?_Orphan_range@?$vector@PAVState@@V?$allocator@PAVState@@@std@@@std@@ABEXPAPAVState@@0@Z 004278c0 f i mainfunction.obj
 0001:00026960       ?_Orphan_range@?$vector@V?$queue@PAVnote@@V?$deque@PAVnote@@V?$allocator@PAVnote@@@std@@@std@@@std@@V?$allocator@V?$queue@PAVnote@@V?$deque@PAVnote@@V?$allocator@PAVnote@@@std@@@std@@@std@@@2@@std@@ABEXPAV?$queue@PAVnote@@V?$deque@PAVnote@@V?$allocator@PAVnote@@@std@@@std@@@2@0@Z 00427960 f i mainfunction.obj
 0001:00026a00       ?_Orphan_range@?$vector@VSimpleImage@@V?$allocator@VSimpleImage@@@std@@@std@@ABEXPAVSimpleImage@@0@Z 00427a00 f i mainfunction.obj
 0001:00026aa0       ?_Release@?$_Uninitialized_backout_al@V?$allocator@V?$queue@PAVnote@@V?$deque@PAVnote@@V?$allocator@PAVnote@@@std@@@std@@@std@@@std@@@std@@QAEPAV?$queue@PAVnote@@V?$deque@PAVnote@@V?$allocator@PAVnote@@@std@@@std@@@2@XZ 00427aa0 f i mainfunction.obj
 0001:00026ad0       ?_Release@?$_Uninitialized_backout_al@V?$allocator@VSimpleImage@@@std@@@std@@QAEPAVSimpleImage@@XZ 00427ad0 f i mainfunction.obj
 0001:00026b00       ?_Take_contents@?$deque@PAVnote@@V?$allocator@PAVnote@@@std@@@std@@AAEXAAV12@@Z 00427b00 f i mainfunction.obj
 0001:00026bb0       ?_Tidy@?$deque@PAVnote@@V?$allocator@PAVnote@@@std@@@std@@AAEXXZ 00427bb0 f i mainfunction.obj
 0001:00026d20       ?_Tidy@?$vector@HV?$allocator@H@std@@@std@@AAEXXZ 00427d20 f i mainfunction.obj
 0001:00026e10       ?_Tidy@?$vector@PAUMix_Chunk@@V?$allocator@PAUMix_Chunk@@@std@@@std@@AAEXXZ 00427e10 f i mainfunction.obj
 0001:00026f00       ?_Tidy@?$vector@PAVButton@@V?$allocator@PAVButton@@@std@@@std@@AAEXXZ 00427f00 f i mainfunction.obj
 0001:00026ff0       ?_Tidy@?$vector@PAVState@@V?$allocator@PAVState@@@std@@@std@@AAEXXZ 00427ff0 f i mainfunction.obj
 0001:000270e0       ?_Tidy@?$vector@PAVcontroller@@V?$allocator@PAVcontroller@@@std@@@std@@AAEXXZ 004280e0 f i mainfunction.obj
 0001:000271d0       ?_Tidy@?$vector@PAVnote@@V?$allocator@PAVnote@@@std@@@std@@AAEXXZ 004281d0 f i mainfunction.obj
 0001:000272c0       ?_Tidy@?$vector@V?$basic_string@DU?$char_traits@D@std@@V?$allocator@D@2@@std@@V?$allocator@V?$basic_string@DU?$char_traits@D@std@@V?$allocator@D@2@@std@@@2@@std@@AAEXXZ 004282c0 f i mainfunction.obj
 0001:000273b0       ?_Tidy@?$vector@V?$queue@PAVnote@@V?$deque@PAVnote@@V?$allocator@PAVnote@@@std@@@std@@@std@@V?$allocator@V?$queue@PAVnote@@V?$deque@PAVnote@@V?$allocator@PAVnote@@@std@@@std@@@std@@@2@@std@@AAEXXZ 004283b0 f i mainfunction.obj
 0001:000274a0       ?_Tidy@?$vector@VSimpleImage@@V?$allocator@VSimpleImage@@@std@@@std@@AAEXXZ 004284a0 f i mainfunction.obj
 0001:00027590       ?_Umove@?$vector@HV?$allocator@H@std@@@std@@AAEPAHPAH00@Z 00428590 f i mainfunction.obj
 0001:000275d0       ?_Umove@?$vector@PAUMix_Chunk@@V?$allocator@PAUMix_Chunk@@@std@@@std@@AAEPAPAUMix_Chunk@@PAPAU3@00@Z 004285d0 f i mainfunction.obj
 0001:00027610       ?_Umove@?$vector@PAVState@@V?$allocator@PAVState@@@std@@@std@@AAEPAPAVState@@PAPAV3@00@Z 00428610 f i mainfunction.obj
 0001:00027650       ?_Umove@?$vector@V?$queue@PAVnote@@V?$deque@PAVnote@@V?$allocator@PAVnote@@@std@@@std@@@std@@V?$allocator@V?$queue@PAVnote@@V?$deque@PAVnote@@V?$allocator@PAVnote@@@std@@@std@@@std@@@2@@std@@AAEPAV?$queue@PAVnote@@V?$deque@PAVnote@@V?$allocator@PAVnote@@@std@@@std@@@2@PAV32@00@Z 00428650 f i mainfunction.obj
 0001:00027690       ?_Umove@?$vector@VSimpleImage@@V?$allocator@VSimpleImage@@@std@@@std@@AAEPAVSimpleImage@@PAV3@00@Z 00428690 f i mainfunction.obj
 0001:000276d0       ?_Umove_if_noexcept1@?$vector@HV?$allocator@H@std@@@std@@AAEXPAH00U?$integral_constant@_N$00@2@@Z 004286d0 f i mainfunction.obj
 0001:00027710       ?_Umove_if_noexcept1@?$vector@PAUMix_Chunk@@V?$allocator@PAUMix_Chunk@@@std@@@std@@AAEXPAPAUMix_Chunk@@00U?$integral_constant@_N$00@2@@Z 00428710 f i mainfunction.obj
 0001:00027750       ?_Umove_if_noexcept1@?$vector@PAVState@@V?$allocator@PAVState@@@std@@@std@@AAEXPAPAVState@@00U?$integral_constant@_N$00@2@@Z 00428750 f i mainfunction.obj
 0001:00027790       ?_Umove_if_noexcept1@?$vector@V?$queue@PAVnote@@V?$deque@PAVnote@@V?$allocator@PAVnote@@@std@@@std@@@std@@V?$allocator@V?$queue@PAVnote@@V?$deque@PAVnote@@V?$allocator@PAVnote@@@std@@@std@@@std@@@2@@std@@AAEXPAV?$queue@PAVnote@@V?$deque@PAVnote@@V?$allocator@PAVnote@@@std@@@std@@@2@00U?$integral_constant@_N$0A@@2@@Z 00428790 f i mainfunction.obj
 0001:000277d0       ?_Umove_if_noexcept1@?$vector@VSimpleImage@@V?$allocator@VSimpleImage@@@std@@@std@@AAEXPAVSimpleImage@@00U?$integral_constant@_N$00@2@@Z 004287d0 f i mainfunction.obj
 0001:00027810       ?_Umove_if_noexcept@?$vector@HV?$allocator@H@std@@@std@@AAEXPAH00@Z 00428810 f i mainfunction.obj
 0001:00027850       ?_Umove_if_noexcept@?$vector@PAUMix_Chunk@@V?$allocator@PAUMix_Chunk@@@std@@@std@@AAEXPAPAUMix_Chunk@@00@Z 00428850 f i mainfunction.obj
 0001:00027890       ?_Umove_if_noexcept@?$vector@PAVState@@V?$allocator@PAVState@@@std@@@std@@AAEXPAPAVState@@00@Z 00428890 f i mainfunction.obj
 0001:000278d0       ?_Umove_if_noexcept@?$vector@V?$queue@PAVnote@@V?$deque@PAVnote@@V?$allocator@PAVnote@@@std@@@std@@@std@@V?$allocator@V?$queue@PAVnote@@V?$deque@PAVnote@@V?$allocator@PAVnote@@@std@@@std@@@std@@@2@@std@@AAEXPAV?$queue@PAVnote@@V?$deque@PAVnote@@V?$allocator@PAVnote@@@std@@@std@@@2@00@Z 004288d0 f i mainfunction.obj
 0001:00027910       ?_Umove_if_noexcept@?$vector@VSimpleImage@@V?$allocator@VSimpleImage@@@std@@@std@@AAEXPAVSimpleImage@@00@Z 00428910 f i mainfunction.obj
 0001:00027950       ?_Unchecked_begin@?$deque@PAVnote@@V?$allocator@PAVnote@@@std@@@std@@QAE?AV?$_Deque_unchecked_iterator@V?$_Deque_val@U?$_Deque_simple_types@PAVnote@@@std@@@std@@@2@XZ 00428950 f i mainfunction.obj
 0001:000279a0       ?_Unchecked_begin@?$deque@PAVnote@@V?$allocator@PAVnote@@@std@@@std@@QBE?AV?$_Deque_unchecked_const_iterator@V?$_Deque_val@U?$_Deque_simple_types@PAVnote@@@std@@@std@@@2@XZ 004289a0 f i mainfunction.obj
 0001:000279f0       ?_Unchecked_end@?$deque@PAVnote@@V?$allocator@PAVnote@@@std@@@std@@QAE?AV?$_Deque_unchecked_iterator@V?$_Deque_val@U?$_Deque_simple_types@PAVnote@@@std@@@std@@@2@XZ 004289f0 f i mainfunction.obj
 0001:00027a50       ?_Unchecked_end@?$deque@PAVnote@@V?$allocator@PAVnote@@@std@@@std@@QBE?AV?$_Deque_unchecked_const_iterator@V?$_Deque_val@U?$_Deque_simple_types@PAVnote@@@std@@@std@@@2@XZ 00428a50 f i mainfunction.obj
 0001:00027ab0       ?_Xlen@?$deque@PAVnote@@V?$allocator@PAVnote@@@std@@@std@@ABEXXZ 00428ab0 f i mainfunction.obj
 0001:00027ad0       ?_Xlength@?$vector@HV?$allocator@H@std@@@std@@CAXXZ 00428ad0 f i mainfunction.obj
 0001:00027af0       ?_Xlength@?$vector@PAUMix_Chunk@@V?$allocator@PAUMix_Chunk@@@std@@@std@@CAXXZ 00428af0 f i mainfunction.obj
 0001:00027b10       ?_Xlength@?$vector@PAVState@@V?$allocator@PAVState@@@std@@@std@@CAXXZ 00428b10 f i mainfunction.obj
 0001:00027b30       ?_Xlength@?$vector@V?$queue@PAVnote@@V?$deque@PAVnote@@V?$allocator@PAVnote@@@std@@@std@@@std@@V?$allocator@V?$queue@PAVnote@@V?$deque@PAVnote@@V?$allocator@PAVnote@@@std@@@std@@@std@@@2@@std@@CAXXZ 00428b30 f i mainfunction.obj
 0001:00027b50       ?_Xlength@?$vector@VSimpleImage@@V?$allocator@VSimpleImage@@@std@@@std@@CAXXZ 00428b50 f i mainfunction.obj
 0001:00027b70       ?allocate@?$allocator@H@std@@QAEPAHI@Z 00428b70 f i mainfunction.obj
 0001:00027ba0       ?allocate@?$allocator@PAPAVnote@@@std@@QAEPAPAPAVnote@@I@Z 00428ba0 f i mainfunction.obj
 0001:00027bd0       ?allocate@?$allocator@PAUMix_Chunk@@@std@@QAEPAPAUMix_Chunk@@I@Z 00428bd0 f i mainfunction.obj
 0001:00027c00       ?allocate@?$allocator@PAVState@@@std@@QAEPAPAVState@@I@Z 00428c00 f i mainfunction.obj
 0001:00027c30       ?allocate@?$allocator@PAVnote@@@std@@QAEPAPAVnote@@I@Z 00428c30 f i mainfunction.obj
 0001:00027c60       ?allocate@?$allocator@V?$queue@PAVnote@@V?$deque@PAVnote@@V?$allocator@PAVnote@@@std@@@std@@@std@@@std@@QAEPAV?$queue@PAVnote@@V?$deque@PAVnote@@V?$allocator@PAVnote@@@std@@@std@@@2@I@Z 00428c60 f i mainfunction.obj
 0001:00027c90       ?allocate@?$allocator@VSimpleImage@@@std@@QAEPAVSimpleImage@@I@Z 00428c90 f i mainfunction.obj
 0001:00027cc0       ?capacity@?$vector@HV?$allocator@H@std@@@std@@QBEIXZ 00428cc0 f i mainfunction.obj
 0001:00027cf0       ?capacity@?$vector@PAUMix_Chunk@@V?$allocator@PAUMix_Chunk@@@std@@@std@@QBEIXZ 00428cf0 f i mainfunction.obj
 0001:00027d20       ?capacity@?$vector@PAVState@@V?$allocator@PAVState@@@std@@@std@@QBEIXZ 00428d20 f i mainfunction.obj
 0001:00027d50       ?capacity@?$vector@V?$queue@PAVnote@@V?$deque@PAVnote@@V?$allocator@PAVnote@@@std@@@std@@@std@@V?$allocator@V?$queue@PAVnote@@V?$deque@PAVnote@@V?$allocator@PAVnote@@@std@@@std@@@std@@@2@@std@@QBEIXZ 00428d50 f i mainfunction.obj
 0001:00027d80       ?capacity@?$vector@VSimpleImage@@V?$allocator@VSimpleImage@@@std@@@std@@QBEIXZ 00428d80 f i mainfunction.obj
 0001:00027db0       ?copyAllBackgroundBuffer@State@@UAEXXZ 00428db0 f i mainfunction.obj
 0001:00027df0       ?copyAllBackgroundBuffer@State_function@@UAEXXZ 00428df0 f i mainfunction.obj
 0001:00027e30       ?deallocate@?$allocator@H@std@@QAEXQAHI@Z 00428e30 f i mainfunction.obj
 0001:00027e60       ?deallocate@?$allocator@PAPAVnote@@@std@@QAEXQAPAPAVnote@@I@Z 00428e60 f i mainfunction.obj
 0001:00027e90       ?deallocate@?$allocator@PAUMix_Chunk@@@std@@QAEXQAPAUMix_Chunk@@I@Z 00428e90 f i mainfunction.obj
 0001:00027ec0       ?deallocate@?$allocator@PAVButton@@@std@@QAEXQAPAVButton@@I@Z 00428ec0 f i mainfunction.obj
 0001:00027ef0       ?deallocate@?$allocator@PAVState@@@std@@QAEXQAPAVState@@I@Z 00428ef0 f i mainfunction.obj
 0001:00027f20       ?deallocate@?$allocator@PAVcontroller@@@std@@QAEXQAPAVcontroller@@I@Z 00428f20 f i mainfunction.obj
 0001:00027f50       ?deallocate@?$allocator@PAVnote@@@std@@QAEXQAPAVnote@@I@Z 00428f50 f i mainfunction.obj
 0001:00027f80       ?deallocate@?$allocator@V?$basic_string@DU?$char_traits@D@std@@V?$allocator@D@2@@std@@@std@@QAEXQAV?$basic_string@DU?$char_traits@D@std@@V?$allocator@D@2@@2@I@Z 00428f80 f i mainfunction.obj
 0001:00027fb0       ?deallocate@?$allocator@V?$queue@PAVnote@@V?$deque@PAVnote@@V?$allocator@PAVnote@@@std@@@std@@@std@@@std@@QAEXQAV?$queue@PAVnote@@V?$deque@PAVnote@@V?$allocator@PAVnote@@@std@@@std@@@2@I@Z 00428fb0 f i mainfunction.obj
 0001:00027fe0       ?deallocate@?$allocator@VSimpleImage@@@std@@QAEXQAVSimpleImage@@I@Z 00428fe0 f i mainfunction.obj
 0001:00028010       ?destroyImageManager@ImageManager@@SAXXZ 00429010 f i mainfunction.obj
 0001:00028070       ?empty@?$deque@PAVnote@@V?$allocator@PAVnote@@@std@@@std@@QBE_NXZ 00429070 f i mainfunction.obj
 0001:000280b0       ?filter@FilterPointsScaling@@UAE_NPAVDrawingSurface@@AAH1AAI@Z 004290b0 f i mainfunction.obj
 0001:000280f0       ?filter@FilterPointsTranslation@@UAE_NPAVDrawingSurface@@AAH1AAI@Z 004290f0 f i mainfunction.obj
 0001:00028190       ?filterConvertRealToVirtualXPosition@FilterPointsScaling@@UAEHH@Z 00429190 f i mainfunction.obj
 0001:00028200       ?filterConvertRealToVirtualXPosition@FilterPointsTranslation@@UAEHH@Z 00429200 f i mainfunction.obj
 0001:00028250       ?filterConvertRealToVirtualYPosition@FilterPointsScaling@@UAEHH@Z 00429250 f i mainfunction.obj
 0001:000282c0       ?filterConvertRealToVirtualYPosition@FilterPointsTranslation@@UAEHH@Z 004292c0 f i mainfunction.obj
 0001:00028310       ?filterConvertVirtualToRealXPosition@FilterPointsScaling@@UAEHH@Z 00429310 f i mainfunction.obj
 0001:000283c0       ?filterConvertVirtualToRealXPosition@FilterPointsTranslation@@UAEHH@Z 004293c0 f i mainfunction.obj
 0001:00028410       ?filterConvertVirtualToRealYPosition@FilterPointsScaling@@UAEHH@Z 00429410 f i mainfunction.obj
 0001:000284c0       ?filterConvertVirtualToRealYPosition@FilterPointsTranslation@@UAEHH@Z 004294c0 f i mainfunction.obj
 0001:00028510       ?getIsClick@Button@@QAE_NXZ 00429510 f i mainfunction.obj
 0001:00028530       ?handleXthenY@FilterPointsScaling@@AAEXPAVDrawingSurface@@HHAAI@Z 00429530 f i mainfunction.obj
 0001:000285e0       ?handleY@FilterPointsScaling@@AAEXPAVDrawingSurface@@HHAAI@Z 004295e0 f i mainfunction.obj
 0001:00028710       ?mapCoordinates@CoordinateMappingRotate@@UAE_NAAN0ABVSimpleImage@@@Z 00429710 f i mainfunction.obj
 0001:00028a00       ?mapCoordinates@CoordinateMappingShiftXY@@UAE_NAAN0ABVSimpleImage@@@Z 00429a00 f i mainfunction.obj
 0001:00028bd0       ?max_size@?$_Default_allocator_traits@V?$allocator@H@std@@@std@@SAIABV?$allocator@H@2@@Z 00429bd0 f i mainfunction.obj
 0001:00028be0       ?max_size@?$_Default_allocator_traits@V?$allocator@PAUMix_Chunk@@@std@@@std@@SAIABV?$allocator@PAUMix_Chunk@@@2@@Z 00429be0 f i mainfunction.obj
 0001:00028bf0       ?max_size@?$_Default_allocator_traits@V?$allocator@PAVState@@@std@@@std@@SAIABV?$allocator@PAVState@@@2@@Z 00429bf0 f i mainfunction.obj
 0001:00028c00       ?max_size@?$_Default_allocator_traits@V?$allocator@PAVnote@@@std@@@std@@SAIABV?$allocator@PAVnote@@@2@@Z 00429c00 f i mainfunction.obj
 0001:00028c10       ?max_size@?$_Default_allocator_traits@V?$allocator@V?$queue@PAVnote@@V?$deque@PAVnote@@V?$allocator@PAVnote@@@std@@@std@@@std@@@std@@@std@@SAIABV?$allocator@V?$queue@PAVnote@@V?$deque@PAVnote@@V?$allocator@PAVnote@@@std@@@std@@@std@@@2@@Z 00429c10 f i mainfunction.obj
 0001:00028c20       ?max_size@?$_Default_allocator_traits@V?$allocator@VSimpleImage@@@std@@@std@@SAIABV?$allocator@VSimpleImage@@@2@@Z 00429c20 f i mainfunction.obj
 0001:00028c30       ?max_size@?$deque@PAVnote@@V?$allocator@PAVnote@@@std@@@std@@QBEIXZ 00429c30 f i mainfunction.obj
 0001:00028c80       ?max_size@?$vector@HV?$allocator@H@std@@@std@@QBEIXZ 00429c80 f i mainfunction.obj
 0001:00028cd0       ?max_size@?$vector@PAUMix_Chunk@@V?$allocator@PAUMix_Chunk@@@std@@@std@@QBEIXZ 00429cd0 f i mainfunction.obj
 0001:00028d20       ?max_size@?$vector@PAVState@@V?$allocator@PAVState@@@std@@@std@@QBEIXZ 00429d20 f i mainfunction.obj
 0001:00028d70       ?max_size@?$vector@V?$queue@PAVnote@@V?$deque@PAVnote@@V?$allocator@PAVnote@@@std@@@std@@@std@@V?$allocator@V?$queue@PAVnote@@V?$deque@PAVnote@@V?$allocator@PAVnote@@@std@@@std@@@std@@@2@@std@@QBEIXZ 00429d70 f i mainfunction.obj
 0001:00028dc0       ?max_size@?$vector@VSimpleImage@@V?$allocator@VSimpleImage@@@std@@@std@@QBEIXZ 00429dc0 f i mainfunction.obj
 0001:00028e10       ?pop_back@?$deque@PAVnote@@V?$allocator@PAVnote@@@std@@@std@@QAEXXZ 00429e10 f i mainfunction.obj
 0001:00028fa0       ?push_back@?$vector@HV?$allocator@H@std@@@std@@QAEX$$QAH@Z 00429fa0 f i mainfunction.obj
 0001:00028fd0       ?push_back@?$vector@PAUMix_Chunk@@V?$allocator@PAUMix_Chunk@@@std@@@std@@QAEX$$QAPAUMix_Chunk@@@Z 00429fd0 f i mainfunction.obj
 0001:00029000       ?push_back@?$vector@PAVState@@V?$allocator@PAVState@@@std@@@std@@QAEXABQAVState@@@Z 0042a000 f i mainfunction.obj
 0001:00029020       ?push_back@?$vector@V?$queue@PAVnote@@V?$deque@PAVnote@@V?$allocator@PAVnote@@@std@@@std@@@std@@V?$allocator@V?$queue@PAVnote@@V?$deque@PAVnote@@V?$allocator@PAVnote@@@std@@@std@@@std@@@2@@std@@QAEXABV?$queue@PAVnote@@V?$deque@PAVnote@@V?$allocator@PAVnote@@@std@@@std@@@2@@Z 0042a020 f i mainfunction.obj
 0001:00029040       ?push_back@?$vector@VSimpleImage@@V?$allocator@VSimpleImage@@@std@@@std@@QAEXABVSimpleImage@@@Z 0042a040 f i mainfunction.obj
 0001:00029060       ?select_on_container_copy_construction@?$_Default_allocator_traits@V?$allocator@PAVnote@@@std@@@std@@SA?AV?$allocator@PAVnote@@@2@ABV32@@Z 0042a060 f i mainfunction.obj
 0001:00029070       ?select_on_container_copy_construction@?$_Default_allocator_traits@V?$allocator@V?$queue@PAVnote@@V?$deque@PAVnote@@V?$allocator@PAVnote@@@std@@@std@@@std@@@std@@@std@@SA?AV?$allocator@V?$queue@PAVnote@@V?$deque@PAVnote@@V?$allocator@PAVnote@@@std@@@std@@@std@@@2@ABV32@@Z 0042a070 f i mainfunction.obj
 0001:00029080       ?setMapSize@TileManager@@QAEXHH@Z 0042a080 f i mainfunction.obj
 0001:00029130       ?setStretch@FilterPointsScaling@@QAEXHH@Z 0042a130 f i mainfunction.obj
 0001:00029220       ?size@?$deque@PAVnote@@V?$allocator@PAVnote@@@std@@@std@@QBEIXZ 0042a220 f i mainfunction.obj
 0001:00029240       ?size@?$queue@PAVnote@@V?$deque@PAVnote@@V?$allocator@PAVnote@@@std@@@std@@@std@@QBEIXZ 0042a240 f i mainfunction.obj
 0001:00029260       ?size@?$vector@PAVButton@@V?$allocator@PAVButton@@@std@@@std@@QBEIXZ 0042a260 f i mainfunction.obj
 0001:00029290       ?switchIsCLick@Button@@QAEXXZ 0042a290 f i mainfunction.obj
 0001:000292d0       ?switchIsDragged@Button@@QAEXXZ 0042a2d0 f i mainfunction.obj
 0001:00029310       ?virtDrawStringsOnTop@State@@UAEXXZ 0042a310 f i mainfunction.obj
 0001:00029320       ?virtDrawStringsOnTop@State_function@@UAEXXZ 0042a320 f i mainfunction.obj
 0001:00029330       ?virtDrawStringsUnderneath@State@@UAEXXZ 0042a330 f i mainfunction.obj
 0001:00029340       ?virtDrawStringsUnderneath@State_function@@UAEXXZ 0042a340 f i mainfunction.obj
 0001:00029350       ?virtInitialise@State@@UAEXXZ 0042a350 f i mainfunction.obj
 0001:00029360       ?virtInitialiseObjects@State@@UAEHXZ 0042a360 f i mainfunction.obj
 0001:00029370       ?virtInitialiseObjects@State_function@@UAEHXZ 0042a370 f i mainfunction.obj
 0001:00029380       ?virtKeyDown@State@@UAEXH@Z 0042a380 f i mainfunction.obj
 0001:00029390       ?virtKeyUp@State@@UAEXH@Z  0042a390 f i mainfunction.obj
 0001:000293a0       ?virtKeyUp@State_function@@UAEXH@Z 0042a3a0 f i mainfunction.obj
 0001:000293b0       ?virtMainLoopDoAfterUpdate@State@@UAEXXZ 0042a3b0 f i mainfunction.obj
 0001:000293c0       ?virtMainLoopDoAfterUpdate@State_function@@UAEXXZ 0042a3c0 f i mainfunction.obj
 0001:000293d0       ?virtMainLoopDoBeforeUpdate@State@@UAEXXZ 0042a3d0 f i mainfunction.obj
 0001:000293e0       ?virtMainLoopDoBeforeUpdate@State_function@@UAEXXZ 0042a3e0 f i mainfunction.obj
 0001:000293f0       ?virtMainLoopPostUpdate@State@@UAEXXZ 0042a3f0 f i mainfunction.obj
 0001:00029400       ?virtMainLoopPostUpdate@State_function@@UAEXXZ 0042a400 f i mainfunction.obj
 0001:00029410       ?virtMainLoopPreUpdate@State@@UAEXXZ 0042a410 f i mainfunction.obj
 0001:00029420       ?virtMainLoopPreUpdate@State_function@@UAEXXZ 0042a420 f i mainfunction.obj
 0001:00029430       ?virtMainLoopStartIteration@State@@UAEXXZ 0042a430 f i mainfunction.obj
 0001:00029440       ?virtMainLoopStartIteration@State_function@@UAEXXZ 0042a440 f i mainfunction.obj
 0001:00029450       ?virtMouseDown@State@@UAEXHHH@Z 0042a450 f i mainfunction.obj
 0001:00029460       ?virtMouseDown@State_function@@UAEXHHH@Z 0042a460 f i mainfunction.obj
 0001:00029520       ?virtMouseMoved@State@@UAEXHH@Z 0042a520 f i mainfunction.obj
 0001:00029530       ?virtMouseMoved@State_function@@UAEXHH@Z 0042a530 f i mainfunction.obj
 0001:00029540       ?virtMouseUp@State@@UAEXHHH@Z 0042a540 f i mainfunction.obj
 0001:00029550       ?virtMouseUp@State_function@@UAEXHHH@Z 0042a550 f i mainfunction.obj
 0001:00029600       ?virtMouseWheel@Scyyc1Engine@@UAEXHHHH@Z 0042a600 f i mainfunction.obj
 0001:00029650       ?virtMouseWheel@State@@UAEXHHHH@Z 0042a650 f i mainfunction.obj
 0001:00029660       ?virtSetupBackgroundBuffer@State@@UAEXXZ 0042a660 f i mainfunction.obj
 0001:00029670       ?virtSetupBackgroundBuffer@State_function@@UAEXXZ 0042a670 f i mainfunction.obj
 0001:00029680       ??0BaseEngine@@QAE@XZ      0042a680 f   BaseEngine.obj
 0001:000298c0       ??1BaseEngine@@UAE@XZ      0042a8c0 f   BaseEngine.obj
 0001:00029910       ?initialise@BaseEngine@@QAEHPBDHH0H@Z 0042a910 f   BaseEngine.obj
 0001:00029a40       ?deinitialise@BaseEngine@@QAEXXZ 0042aa40 f   BaseEngine.obj
 0001:00029a70       ?mainLoop@BaseEngine@@QAEHXZ 0042aa70 f   BaseEngine.obj
 0001:00029ba0       ?handleEvent@BaseEngine@@QAE_NPATSDL_Event@@@Z 0042aba0 f   BaseEngine.obj
 0001:0002a1e0       ?isKeyPressed@BaseEngine@@QBE_NH@Z 0042b1e0 f   BaseEngine.obj
 0001:0002a210       ?virtKeyUp@BaseEngine@@UAEXH@Z 0042b210 f   BaseEngine.obj
 0001:0002a220       ?virtKeyDown@BaseEngine@@UAEXH@Z 0042b220 f   BaseEngine.obj
 0001:0002a230       ?virtMouseMoved@BaseEngine@@UAEXHH@Z 0042b230 f   BaseEngine.obj
 0001:0002a240       ?virtMouseDown@BaseEngine@@UAEXHHH@Z 0042b240 f   BaseEngine.obj
 0001:0002a250       ?virtMouseUp@BaseEngine@@UAEXHHH@Z 0042b250 f   BaseEngine.obj
 0001:0002a260       ?virtInitialise@BaseEngine@@UAEHXZ 0042b260 f   BaseEngine.obj
 0001:0002a2b0       ?virtCreateWindows@BaseEngine@@UAEXPBD@Z 0042b2b0 f   BaseEngine.obj
 0001:0002a340       ?virtCreateSurfaces@BaseEngine@@UAEXXZ 0042b340 f   BaseEngine.obj
 0001:0002a390       ?virtCleanUp@BaseEngine@@UAEXXZ 0042b390 f   BaseEngine.obj
 0001:0002a3a0       ?virtSetupBackgroundBuffer@BaseEngine@@UAEXXZ 0042b3a0 f   BaseEngine.obj
 0001:0002a3c0       ?virtDrawStringsUnderneath@BaseEngine@@UAEXXZ 0042b3c0 f   BaseEngine.obj
 0001:0002a3d0       ?virtDrawStringsOnTop@BaseEngine@@UAEXXZ 0042b3d0 f   BaseEngine.obj
 0001:0002a3e0       ?virtCheckForUpdateTime@BaseEngine@@UAE_NXZ 0042b3e0 f   BaseEngine.obj
 0001:0002a430       ?virtRenderScreen@BaseEngine@@UAEXXZ 0042b430 f   BaseEngine.obj
 0001:0002a5c0       ?getColour@BaseEngine@@QBEIH@Z 0042b5c0 f   BaseEngine.obj
 0001:0002a800       ?virtInitialiseObjects@BaseEngine@@UAEHXZ 0042b800 f   BaseEngine.obj
 0001:0002a830       ?drawAllObjects@BaseEngine@@UAEXXZ 0042b830 f   BaseEngine.obj
 0001:0002aa10       ?updateAllObjects@BaseEngine@@UAEXH@Z 0042ba10 f   BaseEngine.obj
 0001:0002abf0       _mydebug                   0042bbf0 f   BaseEngine.obj
 0001:0002b170       ??$?0ABV?$allocator@PAVDisplayableObject@@@std@@$$V@?$_Compressed_pair@V?$allocator@PAVDisplayableObject@@@std@@V?$_Vector_val@U?$_Simple_types@PAVDisplayableObject@@@std@@@2@$00@std@@QAE@U_One_then_variadic_args_t@1@ABV?$allocator@PAVDisplayableObject@@@1@@Z 0042c170 f i BaseEngine.obj
 0001:0002b1a0       ??$?0PAVDisplayableObject@@@?$allocator@U_Container_proxy@std@@@std@@QAE@ABV?$allocator@PAVDisplayableObject@@@1@@Z 0042c1a0 f i BaseEngine.obj
 0001:0002b1c0       ??$_Construct_n_copies_of_ty@U_Value_init_tag@std@@@?$vector@PAVDisplayableObject@@V?$allocator@PAVDisplayableObject@@@std@@@std@@AAEXIABU_Value_init_tag@1@@Z 0042c1c0 f i BaseEngine.obj
 0001:0002b750       ??$forward@ABV?$allocator@PAVDisplayableObject@@@std@@@std@@YAABV?$allocator@PAVDisplayableObject@@@0@ABV10@@Z 0042c750 f i BaseEngine.obj
 0001:0002b820       ??0?$_Vector_iterator@V?$_Vector_val@U?$_Simple_types@PAVDisplayableObject@@@std@@@std@@@std@@QAE@ABV01@@Z 0042c820 f i BaseEngine.obj
 0001:0002b850       ??0?$_Vector_val@U?$_Simple_types@PAVDisplayableObject@@@std@@@std@@QAE@XZ 0042c850 f i BaseEngine.obj
 0001:0002b8a0       ??0?$allocator@PAVDisplayableObject@@@std@@QAE@XZ 0042c8a0 f i BaseEngine.obj
 0001:0002b8c0       ??0?$vector@PAVDisplayableObject@@V?$allocator@PAVDisplayableObject@@@std@@@std@@QAE@IABV?$allocator@PAVDisplayableObject@@@1@@Z 0042c8c0 f i BaseEngine.obj
 0001:0002b910       ??0DisplayableObjectContainer@@QAE@H@Z 0042c910 f i BaseEngine.obj
 0001:0002b970       ??1?$_Tidy_guard@V?$vector@PAVDisplayableObject@@V?$allocator@PAVDisplayableObject@@@std@@@std@@@std@@QAE@XZ 0042c970 f i BaseEngine.obj
 0001:0002b9a0       ??1?$vector@PAVDisplayableObject@@V?$allocator@PAVDisplayableObject@@@std@@@std@@QAE@XZ 0042c9a0 f i BaseEngine.obj
 0001:0002ba10       ??1DisplayableObjectContainer@@UAE@XZ 0042ca10 f i BaseEngine.obj
 0001:0002ba80       ??D?$_Vector_const_iterator@V?$_Vector_val@U?$_Simple_types@PAVDisplayableObject@@@std@@@std@@@std@@QBEABQAVDisplayableObject@@XZ 0042ca80 f i BaseEngine.obj
 0001:0002bb90       ??D?$_Vector_iterator@V?$_Vector_val@U?$_Simple_types@PAVDisplayableObject@@@std@@@std@@@std@@QBEAAPAVDisplayableObject@@XZ 0042cb90 f i BaseEngine.obj
 0001:0002bbb0       ??E?$_Vector_const_iterator@V?$_Vector_val@U?$_Simple_types@PAVDisplayableObject@@@std@@@std@@@std@@QAEAAV01@XZ 0042cbb0 f i BaseEngine.obj
 0001:0002bcc0       ??E?$_Vector_iterator@V?$_Vector_val@U?$_Simple_types@PAVDisplayableObject@@@std@@@std@@@std@@QAE?AV01@H@Z 0042ccc0 f i BaseEngine.obj
 0001:0002bee0       ??_GBaseEngine@@UAEPAXI@Z  0042cee0 f i BaseEngine.obj
 0001:0002bee0       ??_EBaseEngine@@UAEPAXI@Z  0042cee0 f i BaseEngine.obj
 0001:0002bf20       ??_EDisplayableObjectContainer@@UAEPAXI@Z 0042cf20 f i BaseEngine.obj
 0001:0002bf20       ??_GDisplayableObjectContainer@@UAEPAXI@Z 0042cf20 f i BaseEngine.obj
 0001:0002bf60       ?_Buy_nonzero@?$vector@PAVDisplayableObject@@V?$allocator@PAVDisplayableObject@@@std@@@std@@AAEXI@Z 0042cf60 f i BaseEngine.obj
 0001:0002bfa0       ?_Buy_raw@?$vector@PAVDisplayableObject@@V?$allocator@PAVDisplayableObject@@@std@@@std@@AAEXI@Z 0042cfa0 f i BaseEngine.obj
 0001:0002c020       ?_Tidy@?$vector@PAVDisplayableObject@@V?$allocator@PAVDisplayableObject@@@std@@@std@@AAEXXZ 0042d020 f i BaseEngine.obj
 0001:0002c110       ?getHasActed@DisplayableObject@@QBE_NXZ 0042d110 f i BaseEngine.obj
 0001:0002c130       ?isTimeToAct@BaseEngine@@QBE_NXZ 0042d130 f i BaseEngine.obj
 0001:0002c170       ?mySDLUpdateTexture@DrawingSurface@@QAEXPAUSDL_Texture@@@Z 0042d170 f i BaseEngine.obj
 0001:0002c1b0       ?setHasActed@DisplayableObject@@QAEX_N@Z 0042d1b0 f i BaseEngine.obj
 0001:0002c1d0       ?setTimeToAct@BaseEngine@@QAEXH@Z 0042d1d0 f i BaseEngine.obj
 0001:0002c200       ?symbolToKeycode@BaseEngine@@SAHH@Z 0042d200 f i BaseEngine.obj
 0001:0002c6f0       ?virtMainLoopDoBeforeUpdate@BaseEngine@@UAEXXZ 0042d6f0 f i BaseEngine.obj
 0001:0002c700       ??0DisplayableObject@@QAE@PAVBaseEngine@@HH_N@Z 0042d700 f   DisplayableObject.obj
 0001:0002c7c0       ??0DisplayableObject@@QAE@HHPAVBaseEngine@@HH_N@Z 0042d7c0 f   DisplayableObject.obj
 0001:0002c880       ??1DisplayableObject@@UAE@XZ 0042d880 f   DisplayableObject.obj
 0001:0002c8a0       ?virtDraw@DisplayableObject@@UAEXXZ 0042d8a0 f   DisplayableObject.obj
 0001:0002c940       ?virtDoUpdate@DisplayableObject@@UAEXH@Z 0042d940 f   DisplayableObject.obj
 0001:0002c950       ?redrawDisplay@DisplayableObject@@QAEXXZ 0042d950 f   DisplayableObject.obj
 0001:0002c970       ?redrawRectangle@DisplayableObject@@QAEXXZ 0042d970 f   DisplayableObject.obj
 0001:0002c9b0       ?virtIsObjectInRedrawArea@DisplayableObject@@QAE_NXZ 0042d9b0 f   DisplayableObject.obj
 0001:0002ca50       ?fixPosition@DisplayableObject@@QAEXXZ 0042da50 f   DisplayableObject.obj
 0001:0002cc20       ??_GDisplayableObject@@UAEPAXI@Z 0042dc20 f i DisplayableObject.obj
 0001:0002cc20       ??_EDisplayableObject@@UAEPAXI@Z 0042dc20 f i DisplayableObject.obj
 0001:0002cc60       ?convertVirtualPixelToClickedXPosition@BaseEngine@@QAEHH@Z 0042dc60 f i DisplayableObject.obj
 0001:0002cc90       ?convertVirtualPixelToClickedYPosition@BaseEngine@@QAEHH@Z 0042dc90 f i DisplayableObject.obj
 0001:0002ccc0       ?convertVirtualToRealXPosition@DrawingSurface@@QAEHH@Z 0042dcc0 f i DisplayableObject.obj
 0001:0002cd00       ?convertVirtualToRealYPosition@DrawingSurface@@QAEHH@Z 0042dd00 f i DisplayableObject.obj
 0001:0002cd40       ?redrawRectangle@BaseEngine@@QAEXHHHH@Z 0042dd40 f i DisplayableObject.obj
 0001:0002ceb0       ?setForegroundPixel@BaseEngine@@QAEXHHI@Z 0042deb0 f i DisplayableObject.obj
 0001:0002cee0       ??0FontManager@@QAE@XZ     0042dee0 f   FontManager.obj
 0001:0002cf50       ??1FontManager@@QAE@XZ     0042df50 f   FontManager.obj
 0001:0002cfc0       ?getFont@FontManager@@QAEPAVFont@@PBDH@Z 0042dfc0 f   FontManager.obj
 0001:0002d160       ?loadFonts@FontManager@@QAEXXZ 0042e160 f   FontManager.obj
 0001:0002d290       ??$growArrayOfObjects@PAVFont@@@@YAPAPAVFont@@PAPAV0@AAHH@Z 0042e290 f i FontManager.obj
 0001:0002d350       ??0Font@@QAE@PBDH@Z        0042e350 f i FontManager.obj
 0001:0002d3d0       ??1Font@@QAE@XZ            0042e3d0 f i FontManager.obj
 0001:0002d450       ??_GFont@@QAEPAXI@Z        0042e450 f i FontManager.obj
 0001:0002d490       ?getName@Font@@QAEPBDXZ    0042e490 f i FontManager.obj
 0001:0002d4b0       ?getSize@Font@@QAEHXZ      0042e4b0 f i FontManager.obj
 0001:0002d4d0       ?virtSetupBackgroundBuffer@ImageMappingDemo@@UAEXXZ 0042e4d0 f   ImageMappingDemo.obj
 0001:0002d5d0       ?virtInitialiseObjects@ImageMappingDemo@@UAEHXZ 0042e5d0 f   ImageMappingDemo.obj
 0001:0002d940       ?virtKeyDown@ImageMappingDemo@@UAEXH@Z 0042e940 f   ImageMappingDemo.obj
 0001:0002d970       ?virtMainLoopDoBeforeUpdate@ImageMappingDemo@@UAEXXZ 0042e970 f   ImageMappingDemo.obj
 0001:0002da00       ?mapCoordinates@ImageMappingDemo@@UAE_NAAN0ABVSimpleImage@@@Z 0042ea00 f   ImageMappingDemo.obj
 0001:0002de70       ??0MappableImageObject@@QAE@PAVCoordinateMapping@@HHPAVBaseEngine@@V?$basic_string@DU?$char_traits@D@std@@V?$allocator@D@2@@std@@_N3@Z 0042ee70 f i ImageMappingDemo.obj
 0001:0002df30       ??1MappableImageObject@@UAE@XZ 0042ef30 f i ImageMappingDemo.obj
 0001:0002df50       ??_GMappableImageObject@@UAEPAXI@Z 0042ef50 f i ImageMappingDemo.obj
 0001:0002df50       ??_EMappableImageObject@@UAEPAXI@Z 0042ef50 f i ImageMappingDemo.obj
 0001:0002df90       ?getPixelColour@MappableImageObject@@QAEHHH@Z 0042ef90 f i ImageMappingDemo.obj
 0001:0002dfc0       ?getPixelColour@SimpleImage@@QBEHHH@Z 0042efc0 f i ImageMappingDemo.obj
 0001:0002dff0       ?getRawPixelColour@RawImageData@@QBEHHH@Z 0042eff0 f i ImageMappingDemo.obj
 0001:0002e040       ?getTheData@SimpleImage@@QBEABV?$shared_ptr@VRawImageData@@@std@@XZ 0042f040 f i ImageMappingDemo.obj
 0001:0002e060       ?setOpaque@RawImageData@@QAEXXZ 0042f060 f i ImageMappingDemo.obj
 0001:0002e0d0       ?setRotation@CoordinateMappingRotate@@QAEXN@Z 0042f0d0 f i ImageMappingDemo.obj
 0001:0002e0f0       ?setTransparencyColour@MappableImageObject@@QAEXH@Z 0042f0f0 f i ImageMappingDemo.obj
 0001:0002e120       ?setTransparencyColour@SimpleImage@@QAEXH@Z 0042f120 f i ImageMappingDemo.obj
 0001:0002e190       ?setTransparentColour@RawImageData@@QAEXI@Z 0042f190 f i ImageMappingDemo.obj
 0001:0002e2b0       ?setXShift@CoordinateMappingShiftXY@@QAEXN@Z 0042f2b0 f i ImageMappingDemo.obj
 0001:0002e2d0       ?setYShift@CoordinateMappingShiftXY@@QAEXN@Z 0042f2d0 f i ImageMappingDemo.obj
 0001:0002e2f0       ?virtDraw@MappableImageObject@@UAEXXZ 0042f2f0 f i ImageMappingDemo.obj
 0001:0002e380       ??0DoubleNote@@QAE@PAVBaseEngine@@HHHHH_NHPAVTileManager@@@Z 0042f380 f   DoubleNote.obj
 0001:0002e510       ??1DoubleNote@@UAE@XZ      0042f510 f   DoubleNote.obj
 0001:0002e530       ?virtDraw@DoubleNote@@UAEXXZ 0042f530 f   DoubleNote.obj
 0001:0002e5a0       ?selfCopy@DoubleNote@@UAEPAVnote@@XZ 0042f5a0 f   DoubleNote.obj
 0001:0002e730       ??_EDoubleNote@@UAEPAXI@Z  0042f730 f i DoubleNote.obj
 0001:0002e730       ??_GDoubleNote@@UAEPAXI@Z  0042f730 f i DoubleNote.obj
 0001:0002e770       ?drawForegroundOval@BaseEngine@@QAEXHHHHI@Z 0042f770 f i DoubleNote.obj
 0001:0002e7b0       ?getAnother@DoubleNote@@UAEPAVnote@@XZ 0042f7b0 f i DoubleNote.obj
 0001:0002e7d0       ?getThisNote@DoubleNote@@UAEPAVnote@@XZ 0042f7d0 f i DoubleNote.obj
 0001:0002e7f0       ?setAnoTrack@DoubleNote@@QAEXH@Z 0042f7f0 f i DoubleNote.obj
 0001:0002e900       ??0LongNote@@QAE@PAVBaseEngine@@HHHHH_NHPAVTileManager@@H@Z 0042f900 f   LongNote.obj
 0001:0002e950       ??1LongNote@@UAE@XZ        0042f950 f   LongNote.obj
 0001:0002e970       ?virtDraw@LongNote@@UAEXXZ 0042f970 f   LongNote.obj
 0001:0002e9e0       ?selfCopy@LongNote@@UAEPAVnote@@XZ 0042f9e0 f   LongNote.obj
 0001:0002eaa0       ?drawInitial@LongNote@@EAEXHHHHH@Z 0042faa0 f   LongNote.obj
 0001:0002ec20       ??_GLongNote@@UAEPAXI@Z    0042fc20 f i LongNote.obj
 0001:0002ec20       ??_ELongNote@@UAEPAXI@Z    0042fc20 f i LongNote.obj
 0001:0002ec60       ?getAnother@note@@UAEPAV1@XZ 0042fc60 f i LongNote.obj
 0001:0002ec70       ?getThisNote@note@@UAEPAV1@XZ 0042fc70 f i LongNote.obj
 0001:0002ec90       ??0note@@QAE@PAVBaseEngine@@HHHHH_NHPAVTileManager@@@Z 0042fc90 f   note.obj
 0001:0002eeb0       ??1note@@UAE@XZ            0042feb0 f   note.obj
 0001:0002eee0       ?virtDraw@note@@UAEXXZ     0042fee0 f   note.obj
 0001:0002ef50       ?virtDoUpdate@note@@UAEXH@Z 0042ff50 f   note.obj
 0001:0002f030       ?selfCopy@note@@UAEPAV1@XZ 00430030 f   note.obj
 0001:0002f0f0       ?drawInitial@note@@MAEXHHHHH@Z 004300f0 f   note.obj
 0001:0002f280       ??4?$basic_string@DU?$char_traits@D@std@@V?$allocator@D@2@@std@@QAEAAV01@QBD@Z 00430280 f i note.obj
 0001:0002f2a0       ??_Gnote@@UAEPAXI@Z        004302a0 f i note.obj
 0001:0002f2a0       ??_Enote@@UAEPAXI@Z        004302a0 f i note.obj
 0001:0002f2e0       ?getMapXForScreenX@TileManager@@QBEHH@Z 004302e0 f i note.obj
 0001:0002f310       ?getMapYForScreenY@TileManager@@QBEHH@Z 00430310 f i note.obj
 0001:0002f340       ?isValidTilePosition@TileManager@@QBE_NHH@Z 00430340 f i note.obj
 0001:0002f3d0       ?setAndRedrawMapValueAt@TileManager@@QAEXHHHPAVBaseEngine@@PAVDrawingSurface@@@Z 004303d0 f i note.obj
 0001:0002f470       ?setMapValue@TileManager@@QAEHHHH@Z 00430470 f i note.obj
 0001:0002f4b0       ??0SingleNote@@QAE@PAVBaseEngine@@HHHHH_NHPAVTileManager@@@Z 004304b0 f   SingleNote.obj
 0001:0002f500       ??1SingleNote@@UAE@XZ      00430500 f   SingleNote.obj
 0001:0002f540       ??_ESingleNote@@UAEPAXI@Z  00430540 f i SingleNote.obj
 0001:0002f540       ??_GSingleNote@@UAEPAXI@Z  00430540 f i SingleNote.obj
 0001:0002f580       ?save@Ranking@@QAEXXZ      00430580 f   Ranking.obj
 0001:0002f670       ?load@Ranking@@QAEXXZ      00430670 f   Ranking.obj
 0001:0002f870       ?addToRank@Ranking@@QAE_NV?$basic_string@DU?$char_traits@D@std@@V?$allocator@D@2@@std@@H@Z 00430870 f   Ranking.obj
 0001:0002fa80       ?split@Ranking@@AAE?AV?$vector@V?$basic_string@DU?$char_traits@D@std@@V?$allocator@D@2@@std@@V?$allocator@V?$basic_string@DU?$char_traits@D@std@@V?$allocator@D@2@@std@@@2@@std@@ABV?$basic_string@DU?$char_traits@D@std@@V?$allocator@D@2@@3@0@Z 00430a80 f   Ranking.obj
 0001:0002fdb0       ??$?0AAPAV_Facet_base@std@@@?$_Compressed_pair@U?$default_delete@V_Facet_base@std@@@std@@PAV_Facet_base@2@$00@std@@QAE@U_Zero_then_variadic_args_t@1@AAPAV_Facet_base@1@@Z 00430db0 f i Ranking.obj
 0001:0002fde0       ??$?0U?$default_delete@V_Facet_base@std@@@std@@$0A@@?$unique_ptr@V_Facet_base@std@@U?$default_delete@V_Facet_base@std@@@2@@std@@QAE@PAV_Facet_base@1@@Z 00430de0 f i Ranking.obj
 0001:0002fe10       ??$?0V?$allocator@V?$basic_string@DU?$char_traits@D@std@@V?$allocator@D@2@@std@@@std@@$$V@?$_Compressed_pair@V?$allocator@V?$basic_string@DU?$char_traits@D@std@@V?$allocator@D@2@@std@@@std@@V?$_Vector_val@U?$_Simple_types@V?$basic_string@DU?$char_traits@D@std@@V?$allocator@D@2@@std@@@std@@@2@$00@std@@QAE@U_One_then_variadic_args_t@1@$$QAV?$allocator@V?$basic_string@DU?$char_traits@D@std@@V?$allocator@D@2@@std@@@1@@Z 00430e10 f i Ranking.obj
 0001:0002fe40       ??$?8DU?$char_traits@D@std@@V?$allocator@D@1@@std@@YA_NQBDABV?$basic_string@DU?$char_traits@D@std@@V?$allocator@D@2@@0@@Z 00430e40 f i Ranking.obj
 0001:0002fe60       ??$_Emplace_back@V?$basic_string@DU?$char_traits@D@std@@V?$allocator@D@2@@std@@@?$_Uninitialized_backout_al@V?$allocator@V?$basic_string@DU?$char_traits@D@std@@V?$allocator@D@2@@std@@@std@@@std@@QAEX$$QAV?$basic_string@DU?$char_traits@D@std@@V?$allocator@D@2@@1@@Z 00430e60 f i Ranking.obj
 0001:0002fec0       ??$_Emplace_back_with_unused_capacity@ABH@?$vector@HV?$allocator@H@std@@@std@@AAE@ABH@Z 00430ec0 f i Ranking.obj
 0001:0002ff60       ??$_Emplace_back_with_unused_capacity@ABV?$basic_string@DU?$char_traits@D@std@@V?$allocator@D@2@@std@@@?$vector@V?$basic_string@DU?$char_traits@D@std@@V?$allocator@D@2@@std@@V?$allocator@V?$basic_string@DU?$char_traits@D@std@@V?$allocator@D@2@@std@@@2@@std@@AAE@ABV?$basic_string@DU?$char_traits@D@std@@V?$allocator@D@2@@1@@Z 00430f60 f i Ranking.obj
 0001:00030000       ??$_Emplace_reallocate@ABH@?$vector@HV?$allocator@H@std@@@std@@QAEPAHQAHABH@Z 00431000 f i Ranking.obj
 0001:00030240       ??$_Emplace_reallocate@ABV?$basic_string@DU?$char_traits@D@std@@V?$allocator@D@2@@std@@@?$vector@V?$basic_string@DU?$char_traits@D@std@@V?$allocator@D@2@@std@@V?$allocator@V?$basic_string@DU?$char_traits@D@std@@V?$allocator@D@2@@std@@@2@@std@@QAEPAV?$basic_string@DU?$char_traits@D@std@@V?$allocator@D@2@@1@QAV21@ABV21@@Z 00431240 f i Ranking.obj
 0001:00030490       ??$_Fgetc@D@std@@YA_NAADPAU_iobuf@@@Z 00431490 f i Ranking.obj
 0001:000304d0       ??$_Fputc@D@std@@YA_NDPAU_iobuf@@@Z 004314d0 f i Ranking.obj
 0001:00030510       ??$_Get_size_of_n@$0BM@@std@@YAII@Z 00431510 f i Ranking.obj
 0001:00030540       ??$_Get_unwrapped@ABQAV?$basic_string@DU?$char_traits@D@std@@V?$allocator@D@2@@std@@@std@@YA@ABQAV?$basic_string@DU?$char_traits@D@std@@V?$allocator@D@2@@0@@Z 00431540 f i Ranking.obj
 0001:00030550       ??$_Pocma@V?$allocator@V?$basic_string@DU?$char_traits@D@std@@V?$allocator@D@2@@std@@@std@@@std@@YAXAAV?$allocator@V?$basic_string@DU?$char_traits@D@std@@V?$allocator@D@2@@std@@@0@0@Z 00431550 f i Ranking.obj
 0001:00030570       ??$_Reallocate_grow_by@V<lambda_15711c68e099a15a58f4d77303cb286d>@@D@?$basic_string@DU?$char_traits@D@std@@V?$allocator@D@2@@std@@AAEAAV01@IV<lambda_15711c68e099a15a58f4d77303cb286d>@@D@Z 00431570 f i Ranking.obj
 0001:000306e0       ??$_Ungetc@D@std@@YA_NABDPAU_iobuf@@@Z 004316e0 f i Ranking.obj
 0001:00030730       ??$_Uninitialized_move@PAV?$basic_string@DU?$char_traits@D@std@@V?$allocator@D@2@@std@@V?$allocator@V?$basic_string@DU?$char_traits@D@std@@V?$allocator@D@2@@std@@@2@@std@@YAPAV?$basic_string@DU?$char_traits@D@std@@V?$allocator@D@2@@0@QAV10@0PAV10@AAV?$allocator@V?$basic_string@DU?$char_traits@D@std@@V?$allocator@D@2@@std@@@0@@Z 00431730 f i Ranking.obj
 0001:00030810       ??$addressof@$$CBV?$codecvt@DDU_Mbstatet@@@std@@@std@@YAPBV?$codecvt@DDU_Mbstatet@@@0@ABV10@@Z 00431810 f i Ranking.obj
 0001:00030820       ??$addressof@V?$basic_filebuf@DU?$char_traits@D@std@@@std@@@std@@YAPAV?$basic_filebuf@DU?$char_traits@D@std@@@0@AAV10@@Z 00431820 f i Ranking.obj
 0001:00030830       ??$addressof@V?$vector@V?$basic_string@DU?$char_traits@D@std@@V?$allocator@D@2@@std@@V?$allocator@V?$basic_string@DU?$char_traits@D@std@@V?$allocator@D@2@@std@@@2@@std@@@std@@YAPAV?$vector@V?$basic_string@DU?$char_traits@D@std@@V?$allocator@D@2@@std@@V?$allocator@V?$basic_string@DU?$char_traits@D@std@@V?$allocator@D@2@@std@@@2@@0@AAV10@@Z 00431830 f i Ranking.obj
 0001:00030840       ??$construct@HABH@?$_Default_allocator_traits@V?$allocator@H@std@@@std@@SAXAAV?$allocator@H@1@QAHABH@Z 00431840 f i Ranking.obj
 0001:00030880       ??$construct@V?$basic_string@DU?$char_traits@D@std@@V?$allocator@D@2@@std@@ABV12@@?$_Default_allocator_traits@V?$allocator@V?$basic_string@DU?$char_traits@D@std@@V?$allocator@D@2@@std@@@std@@@std@@SAXAAV?$allocator@V?$basic_string@DU?$char_traits@D@std@@V?$allocator@D@2@@std@@@1@QAV?$basic_string@DU?$char_traits@D@std@@V?$allocator@D@2@@1@ABV31@@Z 00431880 f i Ranking.obj
 0001:000308c0       ??$construct@V?$basic_string@DU?$char_traits@D@std@@V?$allocator@D@2@@std@@V12@@?$_Default_allocator_traits@V?$allocator@V?$basic_string@DU?$char_traits@D@std@@V?$allocator@D@2@@std@@@std@@@std@@SAXAAV?$allocator@V?$basic_string@DU?$char_traits@D@std@@V?$allocator@D@2@@std@@@1@QAV?$basic_string@DU?$char_traits@D@std@@V?$allocator@D@2@@1@$$QAV31@@Z 004318c0 f i Ranking.obj
 0001:00030900       ??$emplace_back@ABH@?$vector@HV?$allocator@H@std@@@std@@QAE@ABH@Z 00431900 f i Ranking.obj
 0001:00030980       ??$emplace_back@ABV?$basic_string@DU?$char_traits@D@std@@V?$allocator@D@2@@std@@@?$vector@V?$basic_string@DU?$char_traits@D@std@@V?$allocator@D@2@@std@@V?$allocator@V?$basic_string@DU?$char_traits@D@std@@V?$allocator@D@2@@std@@@2@@std@@QAE@ABV?$basic_string@DU?$char_traits@D@std@@V?$allocator@D@2@@1@@Z 00431980 f i Ranking.obj
 0001:00030a00       ??$exchange@PAV_Facet_base@std@@PAV12@@std@@YAPAV_Facet_base@0@AAPAV10@$$QAPAV10@@Z 00431a00 f i Ranking.obj
 0001:00030a30       ??$forward@AAPAV_Facet_base@std@@@std@@YAAAPAV_Facet_base@0@AAPAV10@@Z 00431a30 f i Ranking.obj
 0001:00030a40       ??$forward@ABH@std@@YAABHABH@Z 00431a40 f i Ranking.obj
 0001:00030a50       ??$forward@ABV?$basic_string@DU?$char_traits@D@std@@V?$allocator@D@2@@std@@@std@@YAABV?$basic_string@DU?$char_traits@D@std@@V?$allocator@D@2@@0@ABV10@@Z 00431a50 f i Ranking.obj
 0001:00030a60       ??$forward@V?$allocator@V?$basic_string@DU?$char_traits@D@std@@V?$allocator@D@2@@std@@@std@@@std@@YA$$QAV?$allocator@V?$basic_string@DU?$char_traits@D@std@@V?$allocator@D@2@@std@@@0@AAV10@@Z 00431a60 f i Ranking.obj
 0001:00030a70       ??$getline@DU?$char_traits@D@std@@V?$allocator@D@2@@std@@YAAAV?$basic_istream@DU?$char_traits@D@std@@@0@$$QAV10@AAV?$basic_string@DU?$char_traits@D@std@@V?$allocator@D@2@@0@D@Z 00431a70 f i Ranking.obj
 0001:00030cf0       ??$getline@DU?$char_traits@D@std@@V?$allocator@D@2@@std@@YAAAV?$basic_istream@DU?$char_traits@D@std@@@0@AAV10@AAV?$basic_string@DU?$char_traits@D@std@@V?$allocator@D@2@@0@@Z 00431cf0 f i Ranking.obj
 0001:00030d40       ??$move@AAV?$allocator@V?$basic_string@DU?$char_traits@D@std@@V?$allocator@D@2@@std@@@std@@@std@@YA$$QAV?$allocator@V?$basic_string@DU?$char_traits@D@std@@V?$allocator@D@2@@std@@@0@AAV10@@Z 00431d40 f i Ranking.obj
 0001:00030d50       ??$move@AAV?$basic_istream@DU?$char_traits@D@std@@@std@@@std@@YA$$QAV?$basic_istream@DU?$char_traits@D@std@@@0@AAV10@@Z 00431d50 f i Ranking.obj
 0001:00030d60       ??$use_facet@V?$codecvt@DDU_Mbstatet@@@std@@@std@@YAABV?$codecvt@DDU_Mbstatet@@@0@ABVlocale@0@@Z 00431d60 f i Ranking.obj
 0001:00030eb0       ??0?$_Uninitialized_backout_al@V?$allocator@V?$basic_string@DU?$char_traits@D@std@@V?$allocator@D@2@@std@@@std@@@std@@QAE@PAV?$basic_string@DU?$char_traits@D@std@@V?$allocator@D@2@@1@AAV?$allocator@V?$basic_string@DU?$char_traits@D@std@@V?$allocator@D@2@@std@@@1@@Z 00431eb0 f i Ranking.obj
 0001:00030ef0       ??0?$basic_filebuf@DU?$char_traits@D@std@@@std@@QAE@XZ 00431ef0 f i Ranking.obj
 0001:00030f70       ??0?$basic_ifstream@DU?$char_traits@D@std@@@std@@QAE@ABV?$basic_string@DU?$char_traits@D@std@@V?$allocator@D@2@@1@HH@Z 00431f70 f i Ranking.obj
 0001:00030fe0       ??0?$basic_ifstream@DU?$char_traits@D@std@@@std@@QAE@PBDHH@Z 00431fe0 f i Ranking.obj
 0001:00031130       ??0?$basic_ofstream@DU?$char_traits@D@std@@@std@@QAE@PBDHH@Z 00432130 f i Ranking.obj
 0001:00031280       ??0?$fpos@U_Mbstatet@@@std@@QAE@U_Mbstatet@@_J@Z 00432280 f i Ranking.obj
 0001:000312d0       ??0?$fpos@U_Mbstatet@@@std@@QAE@_J@Z 004322d0 f i Ranking.obj
 0001:00031320       ??0?$vector@V?$basic_string@DU?$char_traits@D@std@@V?$allocator@D@2@@std@@V?$allocator@V?$basic_string@DU?$char_traits@D@std@@V?$allocator@D@2@@std@@@2@@std@@QAE@$$QAV01@@Z 00432320 f i Ranking.obj
 0001:000313d0       ??0_Sentry_base@?$basic_istream@DU?$char_traits@D@std@@@std@@QAE@AAV12@@Z 004323d0 f i Ranking.obj
 0001:00031430       ??0bad_cast@std@@QAE@ABV01@@Z 00432430 f i Ranking.obj
 0001:00031460       ??0bad_cast@std@@QAE@XZ    00432460 f i Ranking.obj
 0001:00031490       ??0sentry@?$basic_istream@DU?$char_traits@D@std@@@std@@QAE@AAV12@_N@Z 00432490 f i Ranking.obj
 0001:00031520       ??1?$_Uninitialized_backout_al@V?$allocator@V?$basic_string@DU?$char_traits@D@std@@V?$allocator@D@2@@std@@@std@@@std@@QAE@XZ 00432520 f i Ranking.obj
 0001:00031550       ??1?$basic_filebuf@DU?$char_traits@D@std@@@std@@UAE@XZ 00432550 f i Ranking.obj
 0001:000315e0       ??1?$basic_ifstream@DU?$char_traits@D@std@@@std@@UAE@XZ 004325e0 f i Ranking.obj
 0001:00031650       ??1?$basic_ofstream@DU?$char_traits@D@std@@@std@@UAE@XZ 00432650 f i Ranking.obj
 0001:000316c0       ??1?$unique_ptr@V_Facet_base@std@@U?$default_delete@V_Facet_base@std@@@2@@std@@QAE@XZ 004326c0 f i Ranking.obj
 0001:00031700       ??1_Sentry_base@?$basic_istream@DU?$char_traits@D@std@@@std@@QAE@XZ 00432700 f i Ranking.obj
 0001:00031780       ??1bad_cast@std@@UAE@XZ    00432780 f i Ranking.obj
 0001:000317a0       ??1locale@std@@QAE@XZ      004327a0 f i Ranking.obj
 0001:00031800       ??1sentry@?$basic_istream@DU?$char_traits@D@std@@@std@@QAE@XZ 00432800 f i Ranking.obj
 0001:00031820       ??4?$vector@V?$basic_string@DU?$char_traits@D@std@@V?$allocator@D@2@@std@@V?$allocator@V?$basic_string@DU?$char_traits@D@std@@V?$allocator@D@2@@std@@@2@@std@@QAEAAV01@$$QAV01@@Z 00432820 f i Ranking.obj
 0001:00031870       ??A?$vector@HV?$allocator@H@std@@@std@@QAEAAHI@Z 00432870 f i Ranking.obj
 0001:00031920       ??A?$vector@V?$basic_string@DU?$char_traits@D@std@@V?$allocator@D@2@@std@@V?$allocator@V?$basic_string@DU?$char_traits@D@std@@V?$allocator@D@2@@std@@@2@@std@@QAEAAV?$basic_string@DU?$char_traits@D@std@@V?$allocator@D@2@@1@I@Z 00432920 f i Ranking.obj
 0001:000319d0       ??B?$fpos@U_Mbstatet@@@std@@QBE_JXZ 004329d0 f i Ranking.obj
 0001:00031a00       ??Bsentry@?$basic_istream@DU?$char_traits@D@std@@@std@@QBE_NXZ 00432a00 f i Ranking.obj
 0001:00031a20       ??R<lambda_15711c68e099a15a58f4d77303cb286d>@@QBE@QADQBDID@Z 00432a20 f i Ranking.obj
 0001:00031a90       ??R?$default_delete@V_Facet_base@std@@@std@@QBEXPAV_Facet_base@1@@Z 00432a90 f i Ranking.obj
 0001:00031ae0       ??Y?$basic_string@DU?$char_traits@D@std@@V?$allocator@D@2@@std@@QAEAAV01@D@Z 00432ae0 f i Ranking.obj
 0001:00031b10       ??_D?$basic_ifstream@DU?$char_traits@D@std@@@std@@QAEXXZ 00432b10 f i Ranking.obj
 0001:00031b40       ??_D?$basic_ofstream@DU?$char_traits@D@std@@@std@@QAEXXZ 00432b40 f i Ranking.obj
 0001:00031b6a       ??_E?$basic_ifstream@DU?$char_traits@D@std@@@std@@$4PPPPPPPM@A@AEPAXI@Z 00432b6a f i Ranking.obj
 0001:00031b74       ??_E?$basic_ofstream@DU?$char_traits@D@std@@@std@@$4PPPPPPPM@A@AEPAXI@Z 00432b74 f i Ranking.obj
 0001:00031b80       ??_G?$basic_filebuf@DU?$char_traits@D@std@@@std@@UAEPAXI@Z 00432b80 f i Ranking.obj
 0001:00031b80       ??_E?$basic_filebuf@DU?$char_traits@D@std@@@std@@UAEPAXI@Z 00432b80 f i Ranking.obj
 0001:00031bc0       ??_G?$basic_ifstream@DU?$char_traits@D@std@@@std@@UAEPAXI@Z 00432bc0 f i Ranking.obj
 0001:00031bc0       ??_E?$basic_ifstream@DU?$char_traits@D@std@@@std@@UAEPAXI@Z 00432bc0 f i Ranking.obj
 0001:00031c10       ??_E?$basic_ofstream@DU?$char_traits@D@std@@@std@@UAEPAXI@Z 00432c10 f i Ranking.obj
 0001:00031c10       ??_G?$basic_ofstream@DU?$char_traits@D@std@@@std@@UAEPAXI@Z 00432c10 f i Ranking.obj
 0001:00031c60       ??_Ebad_cast@std@@UAEPAXI@Z 00432c60 f i Ranking.obj
 0001:00031c60       ??_Gbad_cast@std@@UAEPAXI@Z 00432c60 f i Ranking.obj
 0001:00031ca0       ?_Calculate_growth@?$vector@V?$basic_string@DU?$char_traits@D@std@@V?$allocator@D@2@@std@@V?$allocator@V?$basic_string@DU?$char_traits@D@std@@V?$allocator@D@2@@std@@@2@@std@@ABEII@Z 00432ca0 f i Ranking.obj
 0001:00031d10       ?_Change_array@?$vector@V?$basic_string@DU?$char_traits@D@std@@V?$allocator@D@2@@std@@V?$allocator@V?$basic_string@DU?$char_traits@D@std@@V?$allocator@D@2@@std@@@2@@std@@AAEXQAV?$basic_string@DU?$char_traits@D@std@@V?$allocator@D@2@@2@II@Z 00432d10 f i Ranking.obj
 0001:00031de0       ?_Check_offset@?$_String_val@U?$_Simple_types@D@std@@@std@@QBEXI@Z 00432de0 f i Ranking.obj
 0001:00031e10       ?_Clamp_suffix_size@?$_String_val@U?$_Simple_types@D@std@@@std@@QBEIII@Z 00432e10 f i Ranking.obj
 0001:00031e50       ?_Endwrite@?$basic_filebuf@DU?$char_traits@D@std@@@std@@IAE_NXZ 00432e50 f i Ranking.obj
 0001:00031fb0       ?_Eos@?$basic_string@DU?$char_traits@D@std@@V?$allocator@D@2@@std@@AAEXI@Z 00432fb0 f i Ranking.obj
 0001:00032000       ?_Get_first@?$_Compressed_pair@U?$default_delete@V_Facet_base@std@@@std@@PAV_Facet_base@2@$00@std@@QAEAAU?$default_delete@V_Facet_base@std@@@2@XZ 00433000 f i Ranking.obj
 0001:00032020       ?_Get_first@?$_Compressed_pair@V?$allocator@V?$basic_string@DU?$char_traits@D@std@@V?$allocator@D@2@@std@@@std@@V?$_Vector_val@U?$_Simple_types@V?$basic_string@DU?$char_traits@D@std@@V?$allocator@D@2@@std@@@std@@@2@$00@std@@QBEABV?$allocator@V?$basic_string@DU?$char_traits@D@std@@V?$allocator@D@2@@std@@@2@XZ 00433020 f i Ranking.obj
 0001:00032040       ?_Getal@?$vector@V?$basic_string@DU?$char_traits@D@std@@V?$allocator@D@2@@std@@V?$allocator@V?$basic_string@DU?$char_traits@D@std@@V?$allocator@D@2@@std@@@2@@std@@ABEABV?$allocator@V?$basic_string@DU?$char_traits@D@std@@V?$allocator@D@2@@std@@@2@XZ 00433040 f i Ranking.obj
 0001:00032060       ?_Getfacet@locale@std@@QBEPBVfacet@12@I@Z 00433060 f i Ranking.obj
 0001:00032100       ?_Init@?$basic_filebuf@DU?$char_traits@D@std@@@std@@IAEXPAU_iobuf@@W4_Initfl@12@@Z 00433100 f i Ranking.obj
 0001:00032200       ?_Initcvt@?$basic_filebuf@DU?$char_traits@D@std@@@std@@IAEXABV?$codecvt@DDU_Mbstatet@@@2@@Z 00433200 f i Ranking.obj
 0001:00032260       ?_Lock@?$basic_filebuf@DU?$char_traits@D@std@@@std@@UAEXXZ 00433260 f i Ranking.obj
 0001:00032290       ?_Move_assign@?$vector@V?$basic_string@DU?$char_traits@D@std@@V?$allocator@D@2@@std@@V?$allocator@V?$basic_string@DU?$char_traits@D@std@@V?$allocator@D@2@@std@@@2@@std@@AAEXAAV12@U_Equal_allocators@2@@Z 00433290 f i Ranking.obj
 0001:000322e0       ?_Move_construct@?$vector@V?$basic_string@DU?$char_traits@D@std@@V?$allocator@D@2@@std@@V?$allocator@V?$basic_string@DU?$char_traits@D@std@@V?$allocator@D@2@@std@@@2@@std@@AAEXAAV12@U?$integral_constant@_N$00@2@@Z 004332e0 f i Ranking.obj
 0001:00032300       ?_Orphan_range@?$vector@V?$basic_string@DU?$char_traits@D@std@@V?$allocator@D@2@@std@@V?$allocator@V?$basic_string@DU?$char_traits@D@std@@V?$allocator@D@2@@std@@@2@@std@@ABEXPAV?$basic_string@DU?$char_traits@D@std@@V?$allocator@D@2@@2@0@Z 00433300 f i Ranking.obj
 0001:000323a0       ?_Release@?$_Uninitialized_backout_al@V?$allocator@V?$basic_string@DU?$char_traits@D@std@@V?$allocator@D@2@@std@@@std@@@std@@QAEPAV?$basic_string@DU?$char_traits@D@std@@V?$allocator@D@2@@2@XZ 004333a0 f i Ranking.obj
 0001:000323d0       ?_Reset_back@?$basic_filebuf@DU?$char_traits@D@std@@@std@@AAEXXZ 004333d0 f i Ranking.obj
 0001:00032420       ?_Set_back@?$basic_filebuf@DU?$char_traits@D@std@@@std@@AAEXXZ 00433420 f i Ranking.obj
 0001:00032490       ?_Take_contents@?$_Vector_val@U?$_Simple_types@V?$basic_string@DU?$char_traits@D@std@@V?$allocator@D@2@@std@@@std@@@std@@QAEXAAV12@@Z 00433490 f i Ranking.obj
 0001:00032510       ?_Throw_bad_cast@std@@YAXXZ 00433510 f i Ranking.obj
 0001:00032540       ?_Umove@?$vector@V?$basic_string@DU?$char_traits@D@std@@V?$allocator@D@2@@std@@V?$allocator@V?$basic_string@DU?$char_traits@D@std@@V?$allocator@D@2@@std@@@2@@std@@AAEPAV?$basic_string@DU?$char_traits@D@std@@V?$allocator@D@2@@2@PAV32@00@Z 00433540 f i Ranking.obj
 0001:00032580       ?_Umove_if_noexcept1@?$vector@V?$basic_string@DU?$char_traits@D@std@@V?$allocator@D@2@@std@@V?$allocator@V?$basic_string@DU?$char_traits@D@std@@V?$allocator@D@2@@std@@@2@@std@@AAEXPAV?$basic_string@DU?$char_traits@D@std@@V?$allocator@D@2@@2@00U?$integral_constant@_N$00@2@@Z 00433580 f i Ranking.obj
 0001:000325c0       ?_Umove_if_noexcept@?$vector@V?$basic_string@DU?$char_traits@D@std@@V?$allocator@D@2@@std@@V?$allocator@V?$basic_string@DU?$char_traits@D@std@@V?$allocator@D@2@@std@@@2@@std@@AAEXPAV?$basic_string@DU?$char_traits@D@std@@V?$allocator@D@2@@2@00@Z 004335c0 f i Ranking.obj
 0001:00032600       ?_Unlock@?$basic_filebuf@DU?$char_traits@D@std@@@std@@UAEXXZ 00433600 f i Ranking.obj
 0001:00032630       ?_Xlength@?$vector@V?$basic_string@DU?$char_traits@D@std@@V?$allocator@D@2@@std@@V?$allocator@V?$basic_string@DU?$char_traits@D@std@@V?$allocator@D@2@@std@@@2@@std@@CAXXZ 00433630 f i Ranking.obj
 0001:00032650       ?_Xran@?$_String_val@U?$_Simple_types@D@std@@@std@@SAXXZ 00433650 f i Ranking.obj
 0001:00032670       ?allocate@?$allocator@V?$basic_string@DU?$char_traits@D@std@@V?$allocator@D@2@@std@@@std@@QAEPAV?$basic_string@DU?$char_traits@D@std@@V?$allocator@D@2@@2@I@Z 00433670 f i Ranking.obj
 0001:000326a0       ?capacity@?$vector@V?$basic_string@DU?$char_traits@D@std@@V?$allocator@D@2@@std@@V?$allocator@V?$basic_string@DU?$char_traits@D@std@@V?$allocator@D@2@@std@@@2@@std@@QBEIXZ 004336a0 f i Ranking.obj
 0001:000326d0       ?close@?$basic_filebuf@DU?$char_traits@D@std@@@std@@QAEPAV12@XZ 004336d0 f i Ranking.obj
 0001:00032750       ?erase@?$basic_string@DU?$char_traits@D@std@@V?$allocator@D@2@@std@@QAEAAV12@I@Z 00433750 f i Ranking.obj
 0001:00032790       ?erase@?$basic_string@DU?$char_traits@D@std@@V?$allocator@D@2@@std@@QAEAAV12@II@Z 00433790 f i Ranking.obj
 0001:00032830       ?front@?$basic_string@DU?$char_traits@D@std@@V?$allocator@D@2@@std@@QAEAADXZ 00433830 f i Ranking.obj
 0001:00032900       ?imbue@?$basic_filebuf@DU?$char_traits@D@std@@@std@@MAEXABVlocale@2@@Z 00433900 f i Ranking.obj
 0001:00032930       ?length@?$basic_string@DU?$char_traits@D@std@@V?$allocator@D@2@@std@@QBEIXZ 00433930 f i Ranking.obj
 0001:00032950       ?max_size@?$_Default_allocator_traits@V?$allocator@V?$basic_string@DU?$char_traits@D@std@@V?$allocator@D@2@@std@@@std@@@std@@SAIABV?$allocator@V?$basic_string@DU?$char_traits@D@std@@V?$allocator@D@2@@std@@@2@@Z 00433950 f i Ranking.obj
 0001:00032960       ?max_size@?$vector@V?$basic_string@DU?$char_traits@D@std@@V?$allocator@D@2@@std@@V?$allocator@V?$basic_string@DU?$char_traits@D@std@@V?$allocator@D@2@@std@@@2@@std@@QBEIXZ 00433960 f i Ranking.obj
 0001:000329b0       ?not_eof@?$_Narrow_char_traits@DH@std@@SAHABH@Z 004339b0 f i Ranking.obj
 0001:00032a10       ?open@?$basic_filebuf@DU?$char_traits@D@std@@@std@@QAEPAV12@PBDHH@Z 00433a10 f i Ranking.obj
 0001:00032b00       ?overflow@?$basic_filebuf@DU?$char_traits@D@std@@@std@@MAEHH@Z 00433b00 f i Ranking.obj
 0001:00032d60       ?pbackfail@?$basic_filebuf@DU?$char_traits@D@std@@@std@@MAEHH@Z 00433d60 f i Ranking.obj
 0001:00032f10       ?push_back@?$basic_string@DU?$char_traits@D@std@@V?$allocator@D@2@@std@@QAEXD@Z 00433f10 f i Ranking.obj
 0001:00032fc0       ?push_back@?$vector@HV?$allocator@H@std@@@std@@QAEXABH@Z 00433fc0 f i Ranking.obj
 0001:00032fe0       ?push_back@?$vector@V?$basic_string@DU?$char_traits@D@std@@V?$allocator@D@2@@std@@V?$allocator@V?$basic_string@DU?$char_traits@D@std@@V?$allocator@D@2@@std@@@2@@std@@QAEXABV?$basic_string@DU?$char_traits@D@std@@V?$allocator@D@2@@2@@Z 00433fe0 f i Ranking.obj
 0001:00033000       ?release@?$unique_ptr@V_Facet_base@std@@U?$default_delete@V_Facet_base@std@@@2@@std@@QAEPAV_Facet_base@2@XZ 00434000 f i Ranking.obj
 0001:00033030       ?seekoff@?$basic_filebuf@DU?$char_traits@D@std@@@std@@MAE?AV?$fpos@U_Mbstatet@@@2@_JHH@Z 00434030 f i Ranking.obj
 0001:00033140       ?seekpos@?$basic_filebuf@DU?$char_traits@D@std@@@std@@MAE?AV?$fpos@U_Mbstatet@@@2@V32@H@Z 00434140 f i Ranking.obj
 0001:00033210       ?setbuf@?$basic_filebuf@DU?$char_traits@D@std@@@std@@MAEPAV?$basic_streambuf@DU?$char_traits@D@std@@@2@PAD_J@Z 00434210 f i Ranking.obj
 0001:000332b0       ?state@?$fpos@U_Mbstatet@@@std@@QBE?AU_Mbstatet@@XZ 004342b0 f i Ranking.obj
 0001:000332e0       ?stoi@std@@YAHABV?$basic_string@DU?$char_traits@D@std@@V?$allocator@D@2@@1@PAIH@Z 004342e0 f i Ranking.obj
 0001:00033390       ?sync@?$basic_filebuf@DU?$char_traits@D@std@@@std@@MAEHXZ 00434390 f i Ranking.obj
 0001:00033410       ?to_char_type@?$_Narrow_char_traits@DH@std@@SADABH@Z 00434410 f i Ranking.obj
 0001:00033420       ?to_int_type@?$_Narrow_char_traits@DH@std@@SAHABD@Z 00434420 f i Ranking.obj
 0001:00033430       ?uflow@?$basic_filebuf@DU?$char_traits@D@std@@@std@@MAEHXZ 00434430 f i Ranking.obj
 0001:00033750       ?underflow@?$basic_filebuf@DU?$char_traits@D@std@@@std@@MAEHXZ 00434750 f i Ranking.obj
 0001:00033810       ?xsgetn@?$basic_filebuf@DU?$char_traits@D@std@@@std@@MAE_JPAD_J@Z 00434810 f i Ranking.obj
 0001:000339d0       ?xsputn@?$basic_filebuf@DU?$char_traits@D@std@@@std@@MAE_JPBD_J@Z 004349d0 f i Ranking.obj
 0001:00033b30       ?virtSetupBackgroundBuffer@State_pause@@MAEXXZ 00434b30 f   State_pause.obj
 0001:00033b50       ?virtInitialiseObjects@State_pause@@MAEHXZ 00434b50 f   State_pause.obj
 0001:00033d70       ??$_Copy_memmove@PAPAVButton@@PAPAV1@@std@@YAPAPAVButton@@PAPAV1@00@Z 00434d70 f i State_pause.obj
 0001:00033dc0       ??$_Emplace_back_with_unused_capacity@ABQAVButton@@@?$vector@PAVButton@@V?$allocator@PAVButton@@@std@@@std@@AAE@ABQAVButton@@@Z 00434dc0 f i State_pause.obj
 0001:00033e60       ??$_Emplace_reallocate@ABQAVButton@@@?$vector@PAVButton@@V?$allocator@PAVButton@@@std@@@std@@QAEPAPAVButton@@QAPAV2@ABQAV2@@Z 00434e60 f i State_pause.obj
 0001:000340a0       ??$_Get_unwrapped@ABQAPAVButton@@@std@@YA@ABQAPAVButton@@@Z 004350a0 f i State_pause.obj
 0001:000340b0       ??$_Unfancy@PAVButton@@@std@@YAPAPAVButton@@PAPAV1@@Z 004350b0 f i State_pause.obj
 0001:000340c0       ??$_Uninitialized_move@PAPAVButton@@V?$allocator@PAVButton@@@std@@@std@@YAPAPAVButton@@QAPAV1@0PAPAV1@AAV?$allocator@PAVButton@@@0@@Z 004350c0 f i State_pause.obj
 0001:00034130       ??$construct@PAVButton@@ABQAV1@@?$_Default_allocator_traits@V?$allocator@PAVButton@@@std@@@std@@SAXAAV?$allocator@PAVButton@@@1@QAPAVButton@@ABQAV3@@Z 00435130 f i State_pause.obj
 0001:00034170       ??$emplace_back@ABQAVButton@@@?$vector@PAVButton@@V?$allocator@PAVButton@@@std@@@std@@QAE@ABQAVButton@@@Z 00435170 f i State_pause.obj
 0001:000341f0       ??$forward@ABQAVButton@@@std@@YAABQAVButton@@ABQAV1@@Z 004351f0 f i State_pause.obj
 0001:00034200       ??0Button@@QAE@HHPAVBaseEngine@@HH_NHV?$basic_string@DU?$char_traits@D@std@@V?$allocator@D@2@@std@@HHPAH@Z 00435200 f i State_pause.obj
 0001:00034310       ??0Button_exit@@QAE@HHPAVBaseEngine@@HH_NHV?$basic_string@DU?$char_traits@D@std@@V?$allocator@D@2@@std@@HHPAH@Z 00435310 f i State_pause.obj
 0001:000343e0       ??0Button_load@@QAE@HHPAVBaseEngine@@HH_NHV?$basic_string@DU?$char_traits@D@std@@V?$allocator@D@2@@std@@HHPAH@Z 004353e0 f i State_pause.obj
 0001:000344b0       ??1Button@@UAE@XZ          004354b0 f i State_pause.obj
 0001:000344e0       ??1Button_exit@@UAE@XZ     004354e0 f i State_pause.obj
 0001:00034500       ??1Button_load@@UAE@XZ     00435500 f i State_pause.obj
 0001:00034520       ??E?$_Vector_const_iterator@V?$_Vector_val@U?$_Simple_types@PAVDisplayableObject@@@std@@@std@@@std@@QAE?AV01@H@Z 00435520 f i State_pause.obj
 0001:000345d0       ??_GButton@@UAEPAXI@Z      004355d0 f i State_pause.obj
 0001:000345d0       ??_EButton@@UAEPAXI@Z      004355d0 f i State_pause.obj
 0001:00034610       ??_EButton_exit@@UAEPAXI@Z 00435610 f i State_pause.obj
 0001:00034610       ??_GButton_exit@@UAEPAXI@Z 00435610 f i State_pause.obj
 0001:00034650       ??_GButton_load@@UAEPAXI@Z 00435650 f i State_pause.obj
 0001:00034650       ??_EButton_load@@UAEPAXI@Z 00435650 f i State_pause.obj
 0001:00034690       ?_Calculate_growth@?$vector@PAVButton@@V?$allocator@PAVButton@@@std@@@std@@ABEII@Z 00435690 f i State_pause.obj
 0001:00034700       ?_Change_array@?$vector@PAVButton@@V?$allocator@PAVButton@@@std@@@std@@AAEXQAPAVButton@@II@Z 00435700 f i State_pause.obj
 0001:000347d0       ?_Get_first@?$_Compressed_pair@V?$allocator@PAVButton@@@std@@V?$_Vector_val@U?$_Simple_types@PAVButton@@@std@@@2@$00@std@@QBEABV?$allocator@PAVButton@@@2@XZ 004357d0 f i State_pause.obj
 0001:000347f0       ?_Getal@?$vector@PAVButton@@V?$allocator@PAVButton@@@std@@@std@@ABEABV?$allocator@PAVButton@@@2@XZ 004357f0 f i State_pause.obj
 0001:00034810       ?_Orphan_range@?$vector@PAVButton@@V?$allocator@PAVButton@@@std@@@std@@ABEXPAPAVButton@@0@Z 00435810 f i State_pause.obj
 0001:000348b0       ?_Umove@?$vector@PAVButton@@V?$allocator@PAVButton@@@std@@@std@@AAEPAPAVButton@@PAPAV3@00@Z 004358b0 f i State_pause.obj
 0001:000348f0       ?_Umove_if_noexcept1@?$vector@PAVButton@@V?$allocator@PAVButton@@@std@@@std@@AAEXPAPAVButton@@00U?$integral_constant@_N$00@2@@Z 004358f0 f i State_pause.obj
 0001:00034930       ?_Umove_if_noexcept@?$vector@PAVButton@@V?$allocator@PAVButton@@@std@@@std@@AAEXPAPAVButton@@00@Z 00435930 f i State_pause.obj
 0001:00034970       ?_Xlength@?$vector@PAVButton@@V?$allocator@PAVButton@@@std@@@std@@CAXXZ 00435970 f i State_pause.obj
 0001:00034990       ?allocate@?$allocator@PAVButton@@@std@@QAEPAPAVButton@@I@Z 00435990 f i State_pause.obj
 0001:000349c0       ?appendObjectToArray@DisplayableObjectContainer@@QAEXPAVDisplayableObject@@@Z 004359c0 f i State_pause.obj
 0001:00034a00       ?capacity@?$vector@PAVButton@@V?$allocator@PAVButton@@@std@@@std@@QBEIXZ 00435a00 f i State_pause.obj
 0001:00034a30       ?max_size@?$_Default_allocator_traits@V?$allocator@PAVButton@@@std@@@std@@SAIABV?$allocator@PAVButton@@@2@@Z 00435a30 f i State_pause.obj
 0001:00034a40       ?max_size@?$vector@PAVButton@@V?$allocator@PAVButton@@@std@@@std@@QBEIXZ 00435a40 f i State_pause.obj
 0001:00034a90       ?push_back@?$vector@PAVButton@@V?$allocator@PAVButton@@@std@@@std@@QAEXABQAVButton@@@Z 00435a90 f i State_pause.obj
 0001:00034ab0       ?setAllObjectsVisible@DisplayableObjectContainer@@QBEX_N@Z 00435ab0 f i State_pause.obj
 0001:00034bc0       ?virtDoUpdate@Button@@MAEXH@Z 00435bc0 f i State_pause.obj
 0001:00034bd0       ?loadScript@Script@@QAEXXZ 00435bd0 f   Script.obj
 0001:00034f00       ?buildNoteSet@Script@@QAEXPAVBaseEngine@@PAVTileManager@@@Z 00435f00 f   Script.obj
 0001:00035170       ?saveScript@Script@@QAEXH@Z 00436170 f   Script.obj
 0001:00035310       ?split@Script@@AAE?AV?$vector@V?$basic_string@DU?$char_traits@D@std@@V?$allocator@D@2@@std@@V?$allocator@V?$basic_string@DU?$char_traits@D@std@@V?$allocator@D@2@@std@@@2@@std@@ABV?$basic_string@DU?$char_traits@D@std@@V?$allocator@D@2@@3@0@Z 00436310 f   Script.obj
 0001:000356d0       ??$_Copy_memmove@PAPAVnote@@PAPAV1@@std@@YAPAPAVnote@@PAPAV1@00@Z 004366d0 f i Script.obj
 0001:00035720       ??$_Emplace_back_with_unused_capacity@PAVnote@@@?$vector@PAVnote@@V?$allocator@PAVnote@@@std@@@std@@AAE@$$QAPAVnote@@@Z 00436720 f i Script.obj
 0001:000357c0       ??$_Emplace_reallocate@PAVnote@@@?$vector@PAVnote@@V?$allocator@PAVnote@@@std@@@std@@QAEPAPAVnote@@QAPAV2@$$QAPAV2@@Z 004367c0 f i Script.obj
 0001:00035a00       ??$_Get_unwrapped@ABQAPAVnote@@@std@@YA@ABQAPAVnote@@@Z 00436a00 f i Script.obj
 0001:00035a10       ??$_Uninitialized_move@PAPAVnote@@V?$allocator@PAVnote@@@std@@@std@@YAPAPAVnote@@QAPAV1@0PAPAV1@AAV?$allocator@PAVnote@@@0@@Z 00436a10 f i Script.obj
 0001:00035a80       ??$construct@PAVnote@@PAV1@@?$_Default_allocator_traits@V?$allocator@PAVnote@@@std@@@std@@SAXAAV?$allocator@PAVnote@@@1@QAPAVnote@@$$QAPAV3@@Z 00436a80 f i Script.obj
 0001:00035ac0       ??$emplace_back@PAVnote@@@?$vector@PAVnote@@V?$allocator@PAVnote@@@std@@@std@@QAE@$$QAPAVnote@@@Z 00436ac0 f i Script.obj
 0001:00035b40       ??$forward@PAVnote@@@std@@YA$$QAPAVnote@@AAPAV1@@Z 00436b40 f i Script.obj
 0001:00035b50       ??$move@AAPAVnote@@@std@@YA$$QAPAVnote@@AAPAV1@@Z 00436b50 f i Script.obj
 0001:00035b60       ?_Calculate_growth@?$vector@PAVnote@@V?$allocator@PAVnote@@@std@@@std@@ABEII@Z 00436b60 f i Script.obj
 0001:00035bd0       ?_Change_array@?$vector@PAVnote@@V?$allocator@PAVnote@@@std@@@std@@AAEXQAPAVnote@@II@Z 00436bd0 f i Script.obj
 0001:00035ca0       ?_Get_first@?$_Compressed_pair@V?$allocator@PAVnote@@@std@@V?$_Vector_val@U?$_Simple_types@PAVnote@@@std@@@2@$00@std@@QBEABV?$allocator@PAVnote@@@2@XZ 00436ca0 f i Script.obj
 0001:00035cc0       ?_Getal@?$vector@PAVnote@@V?$allocator@PAVnote@@@std@@@std@@ABEABV?$allocator@PAVnote@@@2@XZ 00436cc0 f i Script.obj
 0001:00035ce0       ?_Orphan_range@?$vector@PAVnote@@V?$allocator@PAVnote@@@std@@@std@@ABEXPAPAVnote@@0@Z 00436ce0 f i Script.obj
 0001:00035d80       ?_Umove@?$vector@PAVnote@@V?$allocator@PAVnote@@@std@@@std@@AAEPAPAVnote@@PAPAV3@00@Z 00436d80 f i Script.obj
 0001:00035dc0       ?_Umove_if_noexcept1@?$vector@PAVnote@@V?$allocator@PAVnote@@@std@@@std@@AAEXPAPAVnote@@00U?$integral_constant@_N$00@2@@Z 00436dc0 f i Script.obj
 0001:00035e00       ?_Umove_if_noexcept@?$vector@PAVnote@@V?$allocator@PAVnote@@@std@@@std@@AAEXPAPAVnote@@00@Z 00436e00 f i Script.obj
 0001:00035e40       ?_Xlength@?$vector@PAVnote@@V?$allocator@PAVnote@@@std@@@std@@CAXXZ 00436e40 f i Script.obj
 0001:00035e60       ?capacity@?$vector@PAVnote@@V?$allocator@PAVnote@@@std@@@std@@QBEIXZ 00436e60 f i Script.obj
 0001:00035e90       ?max_size@?$vector@PAVnote@@V?$allocator@PAVnote@@@std@@@std@@QBEIXZ 00436e90 f i Script.obj
 0001:00035ee0       ?push_back@?$vector@PAVnote@@V?$allocator@PAVnote@@@std@@@std@@QAEX$$QAPAVnote@@@Z 00436ee0 f i Script.obj
 0001:00035f10       ?virtInitialise@Scyyc1Engine@@UAEHXZ 00436f10 f   Scyyc1Engine.obj
 0001:00035f60       ?virtSetupBackgroundBuffer@Scyyc1Engine@@UAEXXZ 00436f60 f   Scyyc1Engine.obj
 0001:00035f90       ?virtInitialiseObjects@Scyyc1Engine@@UAEHXZ 00436f90 f   Scyyc1Engine.obj
 0001:00035fc0       ?virtDrawStringsUnderneath@Scyyc1Engine@@UAEXXZ 00436fc0 f   Scyyc1Engine.obj
 0001:00035ff0       ?virtDrawStringsOnTop@Scyyc1Engine@@UAEXXZ 00436ff0 f   Scyyc1Engine.obj
 0001:00036020       ?virtKeyUp@Scyyc1Engine@@UAEXH@Z 00437020 f   Scyyc1Engine.obj
 0001:00036050       ?virtKeyDown@Scyyc1Engine@@UAEXH@Z 00437050 f   Scyyc1Engine.obj
 0001:00036110       ?virtMouseDown@Scyyc1Engine@@UAEXHHH@Z 00437110 f   Scyyc1Engine.obj
 0001:00036150       ?virtMouseUp@Scyyc1Engine@@UAEXHHH@Z 00437150 f   Scyyc1Engine.obj
 0001:00036190       ?virtMouseMoved@Scyyc1Engine@@UAEXHH@Z 00437190 f   Scyyc1Engine.obj
 0001:000361c0       ?virtMainLoopDoBeforeUpdate@Scyyc1Engine@@UAEXXZ 004371c0 f   Scyyc1Engine.obj
 0001:000361f0       ?virtMainLoopDoAfterUpdate@Scyyc1Engine@@UAEXXZ 004371f0 f   Scyyc1Engine.obj
 0001:00036220       ?virtMainLoopPreUpdate@Scyyc1Engine@@UAEXXZ 00437220 f   Scyyc1Engine.obj
 0001:00036250       ?virtMainLoopPostUpdate@Scyyc1Engine@@UAEXXZ 00437250 f   Scyyc1Engine.obj
 0001:000362b0       ?virtMainLoopStartIteration@Scyyc1Engine@@UAEXXZ 004372b0 f   Scyyc1Engine.obj
 0001:000362c0       ?copyAllBackgroundBuffer@Scyyc1Engine@@UAEXXZ 004372c0 f   Scyyc1Engine.obj
 0001:000362f0       ?mapCoordinates@Scyyc1Engine@@UAE_NAAN0ABVSimpleImage@@@Z 004372f0 f   Scyyc1Engine.obj
 0001:000364e0       ?checkRotateBorder@Scyyc1Engine@@QAE_NAAN0ABVSimpleImage@@@Z 004374e0 f   Scyyc1Engine.obj
 0001:000366f0       ??_GState@@QAEPAXI@Z       004376f0 f i Scyyc1Engine.obj
 0001:00036730       ?clear@?$vector@PAVDisplayableObject@@V?$allocator@PAVDisplayableObject@@@std@@@std@@QAEXXZ 00437730 f i Scyyc1Engine.obj
 0001:000367d0       ?clearContents@DisplayableObjectContainer@@QAEXXZ 004377d0 f i Scyyc1Engine.obj
 0001:00036810       ?switchState@Scyyc1Engine@@QAEXH@Z 00437810 f i Scyyc1Engine.obj
 0001:00036e60       ??0lifeManager@@QAE@XZ     00437e60 f   lifeManager.obj
 0001:00036f40       ??1lifeManager@@UAE@XZ     00437f40 f   lifeManager.obj
 0001:00036f70       ?virtDrawTileAt@lifeManager@@UBEXPAVBaseEngine@@PAVDrawingSurface@@HHHH@Z 00437f70 f   lifeManager.obj
 0001:000370c0       ??_ElifeManager@@UAEPAXI@Z 004380c0 f i lifeManager.obj
 0001:000370c0       ??_GlifeManager@@UAEPAXI@Z 004380c0 f i lifeManager.obj
 0001:00037100       ??0Scyyc1TileManager@@QAE@XZ 00438100 f   Scyyc1TileManager.obj
 0001:00037140       ??1Scyyc1TileManager@@UAE@XZ 00438140 f   Scyyc1TileManager.obj
 0001:00037160       ?virtDrawTileAt@Scyyc1TileManager@@UBEXPAVBaseEngine@@PAVDrawingSurface@@HHHH@Z 00438160 f   Scyyc1TileManager.obj
 0001:00037280       ??_EScyyc1TileManager@@UAEPAXI@Z 00438280 f i Scyyc1TileManager.obj
 0001:00037280       ??_GScyyc1TileManager@@UAEPAXI@Z 00438280 f i Scyyc1TileManager.obj
 0001:000372c0       ?mapCoordinates@CroppedCoordinateMapping@@UAE_NAAN0ABVSimpleImage@@@Z 004382c0 f i SimpleImage.obj
 0001:00037360       ??0SimpleImage@@QAE@XZ     00438360 f   SimpleImage.obj
 0001:00037390       ??0SimpleImage@@QAE@V?$shared_ptr@VRawImageData@@@std@@@Z 00438390 f   SimpleImage.obj
 0001:000373d0       ?exists@SimpleImage@@QBE_NXZ 004383d0 f   SimpleImage.obj
 0001:000373f0       ?renderImage@SimpleImage@@QBEXPAVDrawingSurface@@HHHHHH@Z 004383f0 f   SimpleImage.obj
 0001:00037500       ?renderImageWithMask@SimpleImage@@QBEXPAVDrawingSurface@@HHHHHHH@Z 00438500 f   SimpleImage.obj
 0001:00037640       ?renderImageWithMaskAndTransparency@SimpleImage@@QBEXPAVDrawingSurface@@HHHHHHHH@Z 00438640 f   SimpleImage.obj
 0001:00037810       ?adjustXYWidthHeight@SimpleImage@@SA_NPAVDrawingSurface@@AAH11111@Z 00438810 f   SimpleImage.obj
 0001:00037a10       ?renderImageBlit@SimpleImage@@QAEXPAVBaseEngine@@PAVDrawingSurface@@HHHHHHHH@Z 00438a10 f   SimpleImage.obj
 0001:00037cc0       ?renderImageApplyingMapping@SimpleImage@@QBEXPAVBaseEngine@@PAVDrawingSurface@@HHHHPAVCoordinateMapping@@@Z 00438cc0 f   SimpleImage.obj
 0001:000382d0       ??BDrawingSurface@@QAEPAUSDL_Surface@@XZ 004392d0 f i SimpleImage.obj
 0001:000382f0       ?getSurface@RawImageData@@QAEPAUSDL_Surface@@XZ 004392f0 f i SimpleImage.obj
 0001:00038310       ?rawGetPixel@DrawingSurface@@QBEIHH@Z 00439310 f i SimpleImage.obj
 0001:00038380       ??0JasonsDemoA@@QAE@XZ     00439380 f   JasonsDemoA.obj
 0001:000383f0       ??1JasonsDemoA@@UAE@XZ     004393f0 f   JasonsDemoA.obj
 0001:00038430       ?virtSetupBackgroundBuffer@JasonsDemoA@@UAEXXZ 00439430 f   JasonsDemoA.obj
 0001:00038670       ?virtMouseDown@JasonsDemoA@@UAEXHHH@Z 00439670 f   JasonsDemoA.obj
 0001:00038790       ?virtKeyDown@JasonsDemoA@@UAEXH@Z 00439790 f   JasonsDemoA.obj
 0001:000387c0       ?virtInitialiseObjects@JasonsDemoA@@UAEHXZ 004397c0 f   JasonsDemoA.obj
 0001:000389b0       ??_EJasonsDemoA@@UAEPAXI@Z 004399b0 f i JasonsDemoA.obj
 0001:000389b0       ??_GJasonsDemoA@@UAEPAXI@Z 004399b0 f i JasonsDemoA.obj
 0001:000389f0       ?drawBackgroundOval@BaseEngine@@QAEXHHHHI@Z 004399f0 f i JasonsDemoA.obj
 0001:00038a30       ?setTopLeftPositionOnScreen@TileManager@@QAEXHH@Z 00439a30 f i JasonsDemoA.obj
 0001:00038a60       ??0JasonsObjectA@@QAE@PAVBaseEngine@@@Z 00439a60 f   JasonsObjectA.obj
 0001:00038aa0       ??1JasonsObjectA@@UAE@XZ   00439aa0 f   JasonsObjectA.obj
 0001:00038ac0       ?virtDraw@JasonsObjectA@@UAEXXZ 00439ac0 f   JasonsObjectA.obj
 0001:00038b10       ?virtDoUpdate@JasonsObjectA@@UAEXH@Z 00439b10 f   JasonsObjectA.obj
 0001:00038cf0       ??_EJasonsObjectA@@UAEPAXI@Z 00439cf0 f i JasonsObjectA.obj
 0001:00038cf0       ??_GJasonsObjectA@@UAEPAXI@Z 00439cf0 f i JasonsObjectA.obj
 0001:00038d30       ??0JasonsTileManager@@QAE@XZ 00439d30 f   JasonsTileManager.obj
 0001:00038d60       ??1JasonsTileManager@@UAE@XZ 00439d60 f   JasonsTileManager.obj
 0001:00038d80       ?virtDrawTileAt@JasonsTileManager@@UBEXPAVBaseEngine@@PAVDrawingSurface@@HHHH@Z 00439d80 f   JasonsTileManager.obj
 0001:00038e30       ??_EJasonsTileManager@@UAEPAXI@Z 00439e30 f i JasonsTileManager.obj
 0001:00038e30       ??_GJasonsTileManager@@UAEPAXI@Z 00439e30 f i JasonsTileManager.obj
 0001:00038e70       ?virtInitialise@PlayingCardsDemo@@UAEHXZ 00439e70 f   PlayingCardsDemo.obj
 0001:00038ec0       ?virtSetupBackgroundBuffer@PlayingCardsDemo@@UAEXXZ 00439ec0 f   PlayingCardsDemo.obj
 0001:00038ee0       ?virtInitialiseObjects@PlayingCardsDemo@@UAEHXZ 00439ee0 f   PlayingCardsDemo.obj
 0001:00039540       ?virtMouseDown@PlayingCardsDemo@@UAEXHHH@Z 0043a540 f   PlayingCardsDemo.obj
 0001:00039560       ?virtKeyDown@PlayingCardsDemo@@UAEXH@Z 0043a560 f   PlayingCardsDemo.obj
 0001:00039660       ?virtKeyUp@PlayingCardsDemo@@UAEXH@Z 0043a660 f   PlayingCardsDemo.obj
 0001:00039680       ?virtMouseWheel@PlayingCardsDemo@@UAEXHHHH@Z 0043a680 f   PlayingCardsDemo.obj
 0001:00039980       ??$?0ABV?$allocator@D@std@@$$V@?$_Compressed_pair@V?$allocator@D@std@@V?$_String_val@U?$_Simple_types@D@std@@@2@$00@std@@QAE@U_One_then_variadic_args_t@1@ABV?$allocator@D@1@@Z 0043a980 f i PlayingCardsDemo.obj
 0001:000399b0       ??$?0PAD$0A@@?$basic_string@DU?$char_traits@D@std@@V?$allocator@D@2@@std@@QAE@PAD0ABV?$allocator@D@1@@Z 0043a9b0 f i PlayingCardsDemo.obj
 0001:00039ac0       ??$?8VRawImageData@@@std@@YA_NABV?$shared_ptr@VRawImageData@@@0@$$T@Z 0043aac0 f i PlayingCardsDemo.obj
 0001:00039af0       ??$_Adl_verify_range@PADPAD@std@@YAXABQAD0@Z 0043aaf0 f i PlayingCardsDemo.obj
 0001:00039b10       ??$_Get_unwrapped@AAPAD@std@@YA@AAPAD@Z 0043ab10 f i PlayingCardsDemo.obj
 0001:00039b20       ??$_Integral_to_string@DH@std@@YA?AV?$basic_string@DU?$char_traits@D@std@@V?$allocator@D@2@@0@H@Z 0043ab20 f i PlayingCardsDemo.obj
 0001:00039bf0       ??$_Random_shuffle1@V?$_Vector_iterator@V?$_Vector_val@U?$_Simple_types@PAVDisplayableObject@@@std@@@std@@@std@@V?$_Rng_from_urng@HU_Rand_urng_from_func@std@@@2@@std@@YAXV?$_Vector_iterator@V?$_Vector_val@U?$_Simple_types@PAVDisplayableObject@@@std@@@std@@@0@0AAV?$_Rng_from_urng@HU_Rand_urng_from_func@std@@@0@@Z 0043abf0 f i PlayingCardsDemo.obj
 0001:00039dc0       ??$_UIntegral_to_buff@DI@std@@YAPADPADI@Z 0043adc0 f i PlayingCardsDemo.obj
 0001:00039e20       ??$_Verify_range@D@std@@YAXQBD0@Z 0043ae20 f i PlayingCardsDemo.obj
 0001:00039ea0       ??$end@D$0BF@@std@@YAPADAAY0BF@D@Z 0043aea0 f i PlayingCardsDemo.obj
 0001:00039eb0       ??$for_each@V?$_Vector_const_iterator@V?$_Vector_val@U?$_Simple_types@PAVDisplayableObject@@@std@@@std@@@std@@V<lambda_30e6a374895662ded208c9cbe5dce392>@@@std@@YA?AV<lambda_30e6a374895662ded208c9cbe5dce392>@@V?$_Vector_const_iterator@V?$_Vector_val@U?$_Simple_types@PAVDisplayableObject@@@std@@@std@@@0@0V1@@Z 0043aeb0 f i PlayingCardsDemo.obj
 0001:00039fa0       ??$for_each@V?$_Vector_iterator@V?$_Vector_val@U?$_Simple_types@PAVDisplayableObject@@@std@@@std@@@std@@V<lambda_357b4ee994050758da51b6d8503d100a>@@@std@@YA?AV<lambda_357b4ee994050758da51b6d8503d100a>@@V?$_Vector_iterator@V?$_Vector_val@U?$_Simple_types@PAVDisplayableObject@@@std@@@std@@@0@0V1@@Z 0043afa0 f i PlayingCardsDemo.obj
 0001:0003a090       ??$forward@ABV?$allocator@D@std@@@std@@YAABV?$allocator@D@0@ABV10@@Z 0043b090 f i PlayingCardsDemo.obj
 0001:0003a0a0       ??$iter_swap@PAPAVDisplayableObject@@PAPAV1@@std@@YAXPAPAVDisplayableObject@@0@Z 0043b0a0 f i PlayingCardsDemo.obj
 0001:0003a0c0       ??$move@AAPAVDisplayableObject@@@std@@YA$$QAPAVDisplayableObject@@AAPAV1@@Z 0043b0c0 f i PlayingCardsDemo.obj
 0001:0003a0d0       ??$random_shuffle@V?$_Vector_iterator@V?$_Vector_val@U?$_Simple_types@PAVDisplayableObject@@@std@@@std@@@std@@@std@@YAXV?$_Vector_iterator@V?$_Vector_val@U?$_Simple_types@PAVDisplayableObject@@@std@@@std@@@0@0@Z 0043b0d0 f i PlayingCardsDemo.obj
 0001:0003a180       ??$shuffle@V?$_Vector_iterator@V?$_Vector_val@U?$_Simple_types@PAVDisplayableObject@@@std@@@std@@@std@@AAU_Rand_urng_from_func@2@@std@@YAXV?$_Vector_iterator@V?$_Vector_val@U?$_Simple_types@PAVDisplayableObject@@@std@@@std@@@0@0AAU_Rand_urng_from_func@0@@Z 0043b180 f i PlayingCardsDemo.obj
 0001:0003a240       ??$swap@PAVDisplayableObject@@$0A@@std@@YAXAAPAVDisplayableObject@@0@Z 0043b240 f i PlayingCardsDemo.obj
 0001:0003a290       ??0<lambda_30e6a374895662ded208c9cbe5dce392>@@QAE@ABH00@Z 0043b290 f i PlayingCardsDemo.obj
 0001:0003a2d0       ??0<lambda_357b4ee994050758da51b6d8503d100a>@@QAE@ABH00@Z 0043b2d0 f i PlayingCardsDemo.obj
 0001:0003a310       ??0?$_Rng_from_urng@HU_Rand_urng_from_func@std@@@std@@QAE@AAU_Rand_urng_from_func@1@@Z 0043b310 f i PlayingCardsDemo.obj
 0001:0003a390       ??0CardContainer@@QAE@PAVBaseEngine@@HHV?$basic_string@DU?$char_traits@D@std@@V?$allocator@D@2@@std@@@Z 0043b390 f i PlayingCardsDemo.obj
 0001:0003a490       ??0CardOrTile@@QAE@PAVBaseEngine@@HHV?$basic_string@DU?$char_traits@D@std@@V?$allocator@D@2@@std@@HHHH1HHHHHHH_N2@Z 0043b490 f i PlayingCardsDemo.obj
 0001:0003a680       ??0CardOrTile@@QAE@PAVBaseEngine@@HHV?$basic_string@DU?$char_traits@D@std@@V?$allocator@D@2@@std@@H_N2@Z 0043b680 f i PlayingCardsDemo.obj
 0001:0003a8a0       ??0CoordinateMappingRotateAndColour@@QAE@XZ 0043b8a0 f i PlayingCardsDemo.obj
 0001:0003a960       ??0DragableToken@@QAE@PAVBaseEngine@@HHH_N@Z 0043b960 f i PlayingCardsDemo.obj
 0001:0003aa30       ??0DragableTokenContainer@@QAE@HHPAVBaseEngine@@HH_N1@Z 0043ba30 f i PlayingCardsDemo.obj
 0001:0003ab10       ??0TokenTray@@QAE@PAVBaseEngine@@HH@Z 0043bb10 f i PlayingCardsDemo.obj
 0001:0003ab60       ??1CardContainer@@UAE@XZ   0043bb60 f i PlayingCardsDemo.obj
 0001:0003abb0       ??1CardOrTile@@UAE@XZ      0043bbb0 f i PlayingCardsDemo.obj
 0001:0003ac10       ??1CoordinateMappingRotateAndColour@@UAE@XZ 0043bc10 f i PlayingCardsDemo.obj
 0001:0003ac30       ??1DragableToken@@UAE@XZ   0043bc30 f i PlayingCardsDemo.obj
 0001:0003ac50       ??1DragableTokenContainer@@UAE@XZ 0043bc50 f i PlayingCardsDemo.obj
 0001:0003ac80       ??1TokenTray@@UAE@XZ       0043bc80 f i PlayingCardsDemo.obj
 0001:0003acb0       ??A?$vector@PAVDisplayableObject@@V?$allocator@PAVDisplayableObject@@@std@@@std@@QBEABQAVDisplayableObject@@I@Z 0043bcb0 f i PlayingCardsDemo.obj
 0001:0003ad60       ??R<lambda_30e6a374895662ded208c9cbe5dce392>@@QBE@PAVDisplayableObject@@@Z 0043bd60 f i PlayingCardsDemo.obj
 0001:0003adb0       ??R<lambda_357b4ee994050758da51b6d8503d100a>@@QBE@PAVDisplayableObject@@@Z 0043bdb0 f i PlayingCardsDemo.obj
 0001:0003ae00       ??R?$_Rng_from_urng@HU_Rand_urng_from_func@std@@@std@@QAEHH@Z 0043be00 f i PlayingCardsDemo.obj
 0001:0003aee0       ??R_Rand_urng_from_func@std@@QAEIXZ 0043bee0 f i PlayingCardsDemo.obj
 0001:0003aef5       ??_ECardContainer@@WDM@AEPAXI@Z 0043bef5 f i PlayingCardsDemo.obj
 0001:0003aeff       ??_ECardOrTile@@WDM@AEPAXI@Z 0043beff f i PlayingCardsDemo.obj
 0001:0003af09       ??_EDragableTokenContainer@@WDM@AEPAXI@Z 0043bf09 f i PlayingCardsDemo.obj
 0001:0003af13       ??_ETokenTray@@WDM@AEPAXI@Z 0043bf13 f i PlayingCardsDemo.obj
 0001:0003af20       ??_ECardContainer@@UAEPAXI@Z 0043bf20 f i PlayingCardsDemo.obj
 0001:0003af20       ??_GCardContainer@@UAEPAXI@Z 0043bf20 f i PlayingCardsDemo.obj
 0001:0003af60       ??_GCardOrTile@@UAEPAXI@Z  0043bf60 f i PlayingCardsDemo.obj
 0001:0003af60       ??_ECardOrTile@@UAEPAXI@Z  0043bf60 f i PlayingCardsDemo.obj
 0001:0003afa0       ??_ECoordinateMappingRotateAndColour@@UAEPAXI@Z 0043bfa0 f i PlayingCardsDemo.obj
 0001:0003afa0       ??_GCoordinateMappingRotateAndColour@@UAEPAXI@Z 0043bfa0 f i PlayingCardsDemo.obj
 0001:0003afe0       ??_EDragableToken@@UAEPAXI@Z 0043bfe0 f i PlayingCardsDemo.obj
 0001:0003afe0       ??_GDragableToken@@UAEPAXI@Z 0043bfe0 f i PlayingCardsDemo.obj
 0001:0003b020       ??_EDragableTokenContainer@@UAEPAXI@Z 0043c020 f i PlayingCardsDemo.obj
 0001:0003b020       ??_GDragableTokenContainer@@UAEPAXI@Z 0043c020 f i PlayingCardsDemo.obj
 0001:0003b060       ??_ETokenTray@@UAEPAXI@Z   0043c060 f i PlayingCardsDemo.obj
 0001:0003b060       ??_GTokenTray@@UAEPAXI@Z   0043c060 f i PlayingCardsDemo.obj
 0001:0003b0a0       ?_Construct@?$basic_string@DU?$char_traits@D@std@@V?$allocator@D@2@@std@@QAEXQAD0Urandom_access_iterator_tag@2@@Z 0043c0a0 f i PlayingCardsDemo.obj
 0001:0003b0e0       ?_Get_bits@?$_Rng_from_urng@HU_Rand_urng_from_func@std@@@std@@AAEIXZ 0043c0e0 f i PlayingCardsDemo.obj
 0001:0003b130       ?addCardToContainer@CardContainer@@QAE_NPAVCardOrTile@@_N@Z 0043c130 f i PlayingCardsDemo.obj
 0001:0003b180       ?bringToFront@CardOrTile@@UAEXXZ 0043c180 f i PlayingCardsDemo.obj
 0001:0003b1c0       ?bringToFront@DragableTokenContainer@@UAEXXZ 0043c1c0 f i PlayingCardsDemo.obj
 0001:0003b1f0       ?changePixelColour@CoordinateMappingRotateAndColour@@UAE_NHHAAHPAVDrawingSurface@@@Z 0043c1f0 f i PlayingCardsDemo.obj
 0001:0003b5d0       ?checkForAndHandleTokenClick@DragableTokenContainer@@QAE_NHH@Z 0043c5d0 f i PlayingCardsDemo.obj
 0001:0003b670       ?createToken@TokenTray@@QAEXIHH@Z 0043c670 f i PlayingCardsDemo.obj
 0001:0003b750       ?destroyable@DragableToken@@UAE_NXZ 0043c750 f i PlayingCardsDemo.obj
 0001:0003b760       ?doDragRedraw@DragableTokenContainer@@UAEXXZ 0043c760 f i PlayingCardsDemo.obj
 0001:0003b780       ?drawForegroundLine@BaseEngine@@QAEXHHHHI@Z 0043c780 f i PlayingCardsDemo.obj
 0001:0003b7f0       ?drawTokensOnItem@DragableTokenContainer@@QAEXXZ 0043c7f0 f i PlayingCardsDemo.obj
 0001:0003b910       ?getContentCount@DisplayableObjectContainer@@QBEHXZ 0043c910 f i PlayingCardsDemo.obj
 0001:0003b930       ?getContentItem@DisplayableObjectContainer@@QBEPAVDisplayableObject@@H@Z 0043c930 f i PlayingCardsDemo.obj
 0001:0003b960       ?getDrawingRegionBottom@DisplayableObject@@QBEHXZ 0043c960 f i PlayingCardsDemo.obj
 0001:0003b990       ?getDrawingRegionLeft@DisplayableObject@@QBEHXZ 0043c990 f i PlayingCardsDemo.obj
 0001:0003b9b0       ?getDrawingRegionRight@DisplayableObject@@QBEHXZ 0043c9b0 f i PlayingCardsDemo.obj
 0001:0003b9e0       ?getDrawingRegionTop@DisplayableObject@@QBEHXZ 0043c9e0 f i PlayingCardsDemo.obj
 0001:0003ba00       ?getPixel@DrawingSurface@@QAEIHH@Z 0043ca00 f i PlayingCardsDemo.obj
 0001:0003ba70       ?getRawImageData@SimpleImage@@QAE?AV?$shared_ptr@VRawImageData@@@std@@XZ 0043ca70 f i PlayingCardsDemo.obj
 0001:0003bab0       ?getTopCardFromContainer@CardContainer@@QAEPAVDisplayableObject@@_N@Z 0043cab0 f i PlayingCardsDemo.obj
 0001:0003bb80       ?getTopObjectForNotifyValue@DisplayableObjectContainer@@QBEPAVDisplayableObject@@HHHH@Z 0043cb80 f i PlayingCardsDemo.obj
 0001:0003bc40       ?getXCentre@DisplayableObject@@QBEHXZ 0043cc40 f i PlayingCardsDemo.obj
 0001:0003bc70       ?getYCentre@DisplayableObject@@QBEHXZ 0043cc70 f i PlayingCardsDemo.obj
 0001:0003bca0       ?handleTokenWasClicked@DragableToken@@QAEXXZ 0043cca0 f i PlayingCardsDemo.obj
 0001:0003bd20       ?mapCoordinates@CoordinateMappingRotateAndColour@@UAE_NAAN0ABVSimpleImage@@@Z 0043cd20 f i PlayingCardsDemo.obj
 0001:0003c040       ?max@_Rand_urng_from_func@std@@SAIXZ 0043d040 f i PlayingCardsDemo.obj
 0001:0003c050       ?min@_Rand_urng_from_func@std@@SAIXZ 0043d050 f i PlayingCardsDemo.obj
 0001:0003c060       ?notifyAllObjects@DisplayableObjectContainer@@QBEXHHH@Z 0043d060 f i PlayingCardsDemo.obj
 0001:0003c0f0       ?notifyTopObjectAboutMouseClick@BaseEngine@@QAEX_N@Z 0043d0f0 f i PlayingCardsDemo.obj
 0001:0003c110       ?readyBackImage@CardOrTile@@QAEXXZ 0043d110 f i PlayingCardsDemo.obj
 0001:0003c3f0       ?readyFrontImage@CardOrTile@@QAEXXZ 0043d3f0 f i PlayingCardsDemo.obj
 0001:0003c6b0       ?removeDisplayableObject@DisplayableObjectContainer@@QAE_NPAVDisplayableObject@@@Z 0043d6b0 f i PlayingCardsDemo.obj
 0001:0003c820       ?removeTopCardFromContainer@CardContainer@@QAEPAVDisplayableObject@@_N@Z 0043d820 f i PlayingCardsDemo.obj
 0001:0003c8a0       ?setDefaultColour@DisplayableObject@@QAEXH@Z 0043d8a0 f i PlayingCardsDemo.obj
 0001:0003c8c0       ?setPosition@DragableTokenContainer@@UAEXHH@Z 0043d8c0 f i PlayingCardsDemo.obj
 0001:0003c920       ?setSize@DisplayableObject@@QAEXHH@Z 0043d920 f i PlayingCardsDemo.obj
 0001:0003c950       ?setTransparencyColour@CoordinateMappingRotateAndColour@@QAEXH@Z 0043d950 f i PlayingCardsDemo.obj
 0001:0003c970       ?setTransparencyPixel@CardOrTile@@QAEXHH@Z 0043d970 f i PlayingCardsDemo.obj
 0001:0003c9b0       ?showCorrectImage@CardOrTile@@QAEXXZ 0043d9b0 f i PlayingCardsDemo.obj
 0001:0003c9f0       ?shuffle@DisplayableObjectContainer@@QAEXXZ 0043d9f0 f i PlayingCardsDemo.obj
 0001:0003ca40       ?to_string@std@@YA?AV?$basic_string@DU?$char_traits@D@std@@V?$allocator@D@2@@1@H@Z 0043da40 f i PlayingCardsDemo.obj
 0001:0003ca80       ?updateTransparency@CardOrTile@@QAEXXZ 0043da80 f i PlayingCardsDemo.obj
 0001:0003cd40       ?virtDraw@CardContainer@@UAEXXZ 0043dd40 f i PlayingCardsDemo.obj
 0001:0003d430       ?virtDraw@CardOrTile@@UAEXXZ 0043e430 f i PlayingCardsDemo.obj
 0001:0003d720       ?virtDraw@DragableToken@@UAEXXZ 0043e720 f i PlayingCardsDemo.obj
 0001:0003da80       ?virtDraw@DragableTokenContainer@@UAEXXZ 0043ea80 f i PlayingCardsDemo.obj
 0001:0003dc70       ?virtDraw@TokenTray@@UAEXXZ 0043ec70 f i PlayingCardsDemo.obj
 0001:0003e1e0       ?virtMouseDown@DragableToken@@UAEXHHH@Z 0043f1e0 f i PlayingCardsDemo.obj
 0001:0003e1f0       ?virtMouseDown@DragableTokenContainer@@UAEXHHH@Z 0043f1f0 f i PlayingCardsDemo.obj
 0001:0003e2a0       ?virtMouseMoved@DragableToken@@UAEXHH@Z 0043f2a0 f i PlayingCardsDemo.obj
 0001:0003e310       ?virtMouseMoved@DragableTokenContainer@@UAEXHH@Z 0043f310 f i PlayingCardsDemo.obj
 0001:0003e390       ?virtMouseUp@CardContainer@@UAEXHHH@Z 0043f390 f i PlayingCardsDemo.obj
 0001:0003e3e0       ?virtMouseUp@CardOrTile@@UAEXHHH@Z 0043f3e0 f i PlayingCardsDemo.obj
 0001:0003e4d0       ?virtMouseUp@DragableToken@@UAEXHHH@Z 0043f4d0 f i PlayingCardsDemo.obj
 0001:0003e6d0       ?virtMouseUp@DragableTokenContainer@@UAEXHHH@Z 0043f6d0 f i PlayingCardsDemo.obj
 0001:0003e770       ?virtNotify@CardContainer@@UAEJHHH@Z 0043f770 f i PlayingCardsDemo.obj
 0001:0003e7f0       ?virtNotify@DragableToken@@UAEJHHH@Z 0043f7f0 f i PlayingCardsDemo.obj
 0001:0003e8f0       ?virtNotify@DragableTokenContainer@@UAEJHHH@Z 0043f8f0 f i PlayingCardsDemo.obj
 0001:0003e950       ?virtSingleItemMouseDown@CardContainer@@UAE_NHHH@Z 0043f950 f i PlayingCardsDemo.obj
 0001:0003eb70       ?virtSingleItemMouseDown@CardOrTile@@UAE_NHHH@Z 0043fb70 f i PlayingCardsDemo.obj
 0001:0003ed10       ?virtSingleItemMouseDown@DragableToken@@UAE_NHHH@Z 0043fd10 f i PlayingCardsDemo.obj
 0001:0003edc0       ?virtSingleItemMouseDown@DragableTokenContainer@@UAE_NHHH@Z 0043fdc0 f i PlayingCardsDemo.obj
 0001:0003ee50       ?virtSingleItemMouseDown@TokenTray@@UAE_NHHH@Z 0043fe50 f i PlayingCardsDemo.obj
 0001:0003f190       ??0RawImageData@@QAE@ABV?$shared_ptr@VRawImageData@@@std@@H@Z 00440190 f   RawImage.obj
 0001:0003f2d0       ??0RawImageData@@QAE@HHABV?$shared_ptr@VRawImageData@@@std@@@Z 004402d0 f   RawImage.obj
 0001:0003f4e0       ?virtSetupBackgroundBuffer@SimpleDemo@@UAEXXZ 004404e0 f   SimpleDemo.obj
 0001:0003f620       ?virtInitialiseObjects@SimpleDemo@@UAEHXZ 00440620 f   SimpleDemo.obj
 0001:0003f6d0       ?virtDrawStringsUnderneath@SimpleDemo@@UAEXXZ 004406d0 f   SimpleDemo.obj
 0001:0003f780       ?virtDrawStringsOnTop@SimpleDemo@@UAEXXZ 00440780 f   SimpleDemo.obj
 0001:0003f800       ?virtMouseDown@SimpleDemo@@UAEXHHH@Z 00440800 f   SimpleDemo.obj
 0001:0003f820       ?virtKeyDown@SimpleDemo@@UAEXH@Z 00440820 f   SimpleDemo.obj
 0001:0003f960       ??0speedController@@QAE@PAVBaseEngine@@HHHH_N@Z 00440960 f   speedController.obj
 0001:0003f9b0       ??1speedController@@UAE@XZ 004409b0 f   speedController.obj
 0001:0003f9d0       ?virtDraw@speedController@@UAEXXZ 004409d0 f   speedController.obj
 0001:0003fac0       ?isValidClick@speedController@@QAE_NHH@Z 00440ac0 f   speedController.obj
 0001:0003fbc0       ??_EspeedController@@UAEPAXI@Z 00440bc0 f i speedController.obj
 0001:0003fbc0       ??_GspeedController@@UAEPAXI@Z 00440bc0 f i speedController.obj
 0001:0003fc00       ?setPosition@speedController@@UAEXHH@Z 00440c00 f i speedController.obj
 0001:0003fc30       ??0StarfieldDemo@@QAE@XZ   00440c30 f   StarfieldDemo.obj
 0001:0003fc70       ??1StarfieldDemo@@UAE@XZ   00440c70 f   StarfieldDemo.obj
 0001:0003fca0       ?virtSetupBackgroundBuffer@StarfieldDemo@@UAEXXZ 00440ca0 f   StarfieldDemo.obj
 0001:0003fde0       ?virtMainLoopDoBeforeUpdate@StarfieldDemo@@UAEXXZ 00440de0 f   StarfieldDemo.obj
 0001:0003fe20       ?copyAllBackgroundBuffer@StarfieldDemo@@UAEXXZ 00440e20 f   StarfieldDemo.obj
 0001:0003ff60       ??_GStarfieldDemo@@UAEPAXI@Z 00440f60 f i StarfieldDemo.obj
 0001:0003ff60       ??_EStarfieldDemo@@UAEPAXI@Z 00440f60 f i StarfieldDemo.obj
 0001:0003ffa0       ?virtSetupBackgroundBuffer@State_animation@@EAEXXZ 00440fa0 f   State_animation.obj
 0001:0003ffc0       ?virtMainLoopDoBeforeUpdate@State_animation@@EAEXXZ 00440fc0 f   State_animation.obj
 0001:00040100       ?virtMainLoopDoAfterUpdate@State_animation@@EAEXXZ 00441100 f   State_animation.obj
 0001:00040120       ?virtDrawStringsOnTop@State_animation@@EAEXXZ 00441120 f   State_animation.obj
 0001:00040210       ?getRawTime@BaseEngine@@QBEHXZ 00441210 f i State_animation.obj
 0001:00040230       ??1State_gaming@@QAE@XZ    00441230 f   State_gaming.obj
 0001:000402a0       ?virtSetupBackgroundBuffer@State_gaming@@UAEXXZ 004412a0 f   State_gaming.obj
 0001:00040760       ?virtInitialiseObjects@State_gaming@@UAEHXZ 00441760 f   State_gaming.obj
 0001:00040b00       ?virtDrawStringsUnderneath@State_gaming@@UAEXXZ 00441b00 f   State_gaming.obj
 0001:00040c90       ?virtDrawStringsOnTop@State_gaming@@UAEXXZ 00441c90 f   State_gaming.obj
 0001:00040f10       ?virtKeyUp@State_gaming@@UAEXH@Z 00441f10 f   State_gaming.obj
 0001:00040fb0       ?virtKeyDown@State_gaming@@UAEXH@Z 00441fb0 f   State_gaming.obj
 0001:000411b0       ?virtMouseDown@State_gaming@@UAEXHHH@Z 004421b0 f   State_gaming.obj
 0001:00041200       ?virtMouseUp@State_gaming@@UAEXHHH@Z 00442200 f   State_gaming.obj
 0001:00041250       ?virtMouseMoved@State_gaming@@UAEXHH@Z 00442250 f   State_gaming.obj
 0001:00041330       ?virtMainLoopDoBeforeUpdate@State_gaming@@UAEXXZ 00442330 f   State_gaming.obj
 0001:000415f0       ?virtMainLoopDoAfterUpdate@State_gaming@@UAEXXZ 004425f0 f   State_gaming.obj
 0001:000416c0       ?EvaluationDetermination@State_gaming@@AAEXHH@Z 004426c0 f   State_gaming.obj
 0001:000417b0       ?checkMiss@State_gaming@@AAEXH@Z 004427b0 f   State_gaming.obj
 0001:00041850       ?catchInput@State_gaming@@AAEXH@Z 00442850 f   State_gaming.obj
 0001:00041910       ?nativeInitialization@State_gaming@@AAEXXZ 00442910 f   State_gaming.obj
 0001:000419b0       ?missPunishment@State_gaming@@AAEXXZ 004429b0 f   State_gaming.obj
 0001:00042040       ??$_Copy_memmove@PAPAVcontroller@@PAPAV1@@std@@YAPAPAVcontroller@@PAPAV1@00@Z 00443040 f i State_gaming.obj
 0001:00042090       ??$_Emplace_back_internal@ABQAVnote@@@?$deque@PAVnote@@V?$allocator@PAVnote@@@std@@@std@@AAEXABQAVnote@@@Z 00443090 f i State_gaming.obj
 0001:00042230       ??$_Emplace_back_internal@PAVnote@@@?$deque@PAVnote@@V?$allocator@PAVnote@@@std@@@std@@AAEX$$QAPAVnote@@@Z 00443230 f i State_gaming.obj
 0001:000423d0       ??$_Emplace_back_with_unused_capacity@ABQAVcontroller@@@?$vector@PAVcontroller@@V?$allocator@PAVcontroller@@@std@@@std@@AAE@ABQAVcontroller@@@Z 004433d0 f i State_gaming.obj
 0001:00042470       ??$_Emplace_reallocate@ABQAVcontroller@@@?$vector@PAVcontroller@@V?$allocator@PAVcontroller@@@std@@@std@@QAEPAPAVcontroller@@QAPAV2@ABQAV2@@Z 00443470 f i State_gaming.obj
 0001:000426b0       ??$_Get_unwrapped@ABQAPAVcontroller@@@std@@YA@ABQAPAVcontroller@@@Z 004436b0 f i State_gaming.obj
 0001:000426c0       ??$_Pocma@V?$allocator@PAVnote@@@std@@@std@@YAXAAV?$allocator@PAVnote@@@0@0@Z 004436c0 f i State_gaming.obj
 0001:000426e0       ??$_Unfancy@PAVcontroller@@@std@@YAPAPAVcontroller@@PAPAV1@@Z 004436e0 f i State_gaming.obj
 0001:000426f0       ??$_Uninitialized_move@PAPAVcontroller@@V?$allocator@PAVcontroller@@@std@@@std@@YAPAPAVcontroller@@QAPAV1@0PAPAV1@AAV?$allocator@PAVcontroller@@@0@@Z 004436f0 f i State_gaming.obj
 0001:00042760       ??$addressof@V?$deque@PAVnote@@V?$allocator@PAVnote@@@std@@@std@@@std@@YAPAV?$deque@PAVnote@@V?$allocator@PAVnote@@@std@@@0@AAV10@@Z 00443760 f i State_gaming.obj
 0001:00042770       ??$construct@PAVcontroller@@ABQAV1@@?$_Default_allocator_traits@V?$allocator@PAVcontroller@@@std@@@std@@SAXAAV?$allocator@PAVcontroller@@@1@QAPAVcontroller@@ABQAV3@@Z 00443770 f i State_gaming.obj
 0001:000427b0       ??$emplace_back@ABQAVcontroller@@@?$vector@PAVcontroller@@V?$allocator@PAVcontroller@@@std@@@std@@QAE@ABQAVcontroller@@@Z 004437b0 f i State_gaming.obj
 0001:00042830       ??$forward@ABQAVcontroller@@@std@@YAABQAVcontroller@@ABQAV1@@Z 00443830 f i State_gaming.obj
 0001:00042840       ??4?$deque@PAVnote@@V?$allocator@PAVnote@@@std@@@std@@QAEAAV01@$$QAV01@@Z 00443840 f i State_gaming.obj
 0001:00042890       ??4?$queue@PAVnote@@V?$deque@PAVnote@@V?$allocator@PAVnote@@@std@@@std@@@std@@QAEAAV01@$$QAV01@@Z 00443890 f i State_gaming.obj
 0001:000428c0       ??A?$vector@PAUMix_Chunk@@V?$allocator@PAUMix_Chunk@@@std@@@std@@QAEAAPAUMix_Chunk@@I@Z 004438c0 f i State_gaming.obj
 0001:00042970       ??A?$vector@PAVcontroller@@V?$allocator@PAVcontroller@@@std@@@std@@QAEAAPAVcontroller@@I@Z 00443970 f i State_gaming.obj
 0001:00042a20       ??A?$vector@PAVnote@@V?$allocator@PAVnote@@@std@@@std@@QAEAAPAVnote@@I@Z 00443a20 f i State_gaming.obj
 0001:00042ad0       ?_Calculate_growth@?$vector@PAVcontroller@@V?$allocator@PAVcontroller@@@std@@@std@@ABEII@Z 00443ad0 f i State_gaming.obj
 0001:00042b40       ?_Change_array@?$vector@PAVcontroller@@V?$allocator@PAVcontroller@@@std@@@std@@AAEXQAPAVcontroller@@II@Z 00443b40 f i State_gaming.obj
 0001:00042c10       ?_Get_first@?$_Compressed_pair@V?$allocator@PAVcontroller@@@std@@V?$_Vector_val@U?$_Simple_types@PAVcontroller@@@std@@@2@$00@std@@QBEABV?$allocator@PAVcontroller@@@2@XZ 00443c10 f i State_gaming.obj
 0001:00042c30       ?_Getal@?$vector@PAVcontroller@@V?$allocator@PAVcontroller@@@std@@@std@@ABEABV?$allocator@PAVcontroller@@@2@XZ 00443c30 f i State_gaming.obj
 0001:00042c50       ?_Move_assign@?$deque@PAVnote@@V?$allocator@PAVnote@@@std@@@std@@AAEXAAV12@U_Equal_allocators@2@@Z 00443c50 f i State_gaming.obj
 0001:00042ca0       ?_Orphan_range@?$vector@PAVcontroller@@V?$allocator@PAVcontroller@@@std@@@std@@ABEXPAPAVcontroller@@0@Z 00443ca0 f i State_gaming.obj
 0001:00042d40       ?_Umove@?$vector@PAVcontroller@@V?$allocator@PAVcontroller@@@std@@@std@@AAEPAPAVcontroller@@PAPAV3@00@Z 00443d40 f i State_gaming.obj
 0001:00042d80       ?_Umove_if_noexcept1@?$vector@PAVcontroller@@V?$allocator@PAVcontroller@@@std@@@std@@AAEXPAPAVcontroller@@00U?$integral_constant@_N$00@2@@Z 00443d80 f i State_gaming.obj
 0001:00042dc0       ?_Umove_if_noexcept@?$vector@PAVcontroller@@V?$allocator@PAVcontroller@@@std@@@std@@AAEXPAPAVcontroller@@00@Z 00443dc0 f i State_gaming.obj
 0001:00042e00       ?_Xlength@?$vector@PAVcontroller@@V?$allocator@PAVcontroller@@@std@@@std@@CAXXZ 00443e00 f i State_gaming.obj
 0001:00042e20       ?allocate@?$allocator@PAVcontroller@@@std@@QAEPAPAVcontroller@@I@Z 00443e20 f i State_gaming.obj
 0001:00042e50       ?capacity@?$vector@PAVcontroller@@V?$allocator@PAVcontroller@@@std@@@std@@QBEIXZ 00443e50 f i State_gaming.obj
 0001:00042e80       ?changeColour@Scyyc1TileManager@@QAEIXZ 00443e80 f i State_gaming.obj
 0001:00042ee0       ?costLife@lifeManager@@QAEXXZ 00443ee0 f i State_gaming.obj
 0001:00042f40       ?drawBackgroundLine@BaseEngine@@QAEXHHHHI@Z 00443f40 f i State_gaming.obj
 0001:00042fb0       ?drawBackgroundString@BaseEngine@@QAEXHHPBDIPAVFont@@@Z 00443fb0 f i State_gaming.obj
 0001:00042ff0       ?empty@?$queue@PAVnote@@V?$deque@PAVnote@@V?$allocator@PAVnote@@@std@@@std@@@std@@QBE_NXZ 00443ff0 f i State_gaming.obj
 0001:00043010       ?front@?$deque@PAVnote@@V?$allocator@PAVnote@@@std@@@std@@QAEAAPAVnote@@XZ 00444010 f i State_gaming.obj
 0001:000430f0       ?front@?$queue@PAVnote@@V?$deque@PAVnote@@V?$allocator@PAVnote@@@std@@@std@@@std@@QAEAAPAVnote@@XZ 004440f0 f i State_gaming.obj
 0001:00043110       ?getIsClick@speedController@@QAE_NXZ 00444110 f i State_gaming.obj
 0001:00043130       ?getIsDragged@speedController@@QAE_NXZ 00444130 f i State_gaming.obj
 0001:00043150       ?getIsLocked@speedController@@QAE_NXZ 00444150 f i State_gaming.obj
 0001:00043170       ?getLife@lifeManager@@QAEHXZ 00444170 f i State_gaming.obj
 0001:00043190       ?getLifeX@lifeManager@@QAEHXZ 00444190 f i State_gaming.obj
 0001:000431c0       ?getLifeY@lifeManager@@QAEHXZ 004441c0 f i State_gaming.obj
 0001:000431f0       ?getObstacle@State_gaming@@QAE_NXZ 004441f0 f i State_gaming.obj
 0001:00043210       ?getScriptStream@Script@@QAE?AV?$queue@PAVnote@@V?$deque@PAVnote@@V?$allocator@PAVnote@@@std@@@std@@@std@@XZ 00444210 f i State_gaming.obj
 0001:00043310       ?getTrack@note@@QAEHXZ     00444310 f i State_gaming.obj
 0001:00043330       ?max_size@?$_Default_allocator_traits@V?$allocator@PAVcontroller@@@std@@@std@@SAIABV?$allocator@PAVcontroller@@@2@@Z 00444330 f i State_gaming.obj
 0001:00043340       ?max_size@?$vector@PAVcontroller@@V?$allocator@PAVcontroller@@@std@@@std@@QBEIXZ 00444340 f i State_gaming.obj
 0001:00043390       ?pop@?$queue@PAVnote@@V?$deque@PAVnote@@V?$allocator@PAVnote@@@std@@@std@@@std@@QAEXXZ 00444390 f i State_gaming.obj
 0001:000433b0       ?pop_front@?$deque@PAVnote@@V?$allocator@PAVnote@@@std@@@std@@QAEXXZ 004443b0 f i State_gaming.obj
 0001:00043550       ?push@?$queue@PAVnote@@V?$deque@PAVnote@@V?$allocator@PAVnote@@@std@@@std@@@std@@QAEX$$QAPAVnote@@@Z 00444550 f i State_gaming.obj
 0001:00043580       ?push@?$queue@PAVnote@@V?$deque@PAVnote@@V?$allocator@PAVnote@@@std@@@std@@@std@@QAEXABQAVnote@@@Z 00444580 f i State_gaming.obj
 0001:000435a0       ?push_back@?$deque@PAVnote@@V?$allocator@PAVnote@@@std@@@std@@QAEX$$QAPAVnote@@@Z 004445a0 f i State_gaming.obj
 0001:000435e0       ?push_back@?$deque@PAVnote@@V?$allocator@PAVnote@@@std@@@std@@QAEXABQAVnote@@@Z 004445e0 f i State_gaming.obj
 0001:00043610       ?push_back@?$vector@PAVcontroller@@V?$allocator@PAVcontroller@@@std@@@std@@QAEXABQAVcontroller@@@Z 00444610 f i State_gaming.obj
 0001:00043630       ?setSpeed@note@@SAXN@Z     00444630 f i State_gaming.obj
 0001:00043650       ?switchIsClick@speedController@@QAEXXZ 00444650 f i State_gaming.obj
 0001:00043690       ?switchIsDragged@speedController@@QAEXXZ 00444690 f i State_gaming.obj
 0001:000436d0       ?switchIsLocked@speedController@@QAEXXZ 004446d0 f i State_gaming.obj
 0001:00043710       ?switchState@controller@@QAEXXZ 00444710 f i State_gaming.obj
 0001:00043750       ?virtSetupBackgroundBuffer@State_start@@UAEXXZ 00444750 f   State_start.obj
 0001:00043830       ?virtInitialiseObjects@State_start@@UAEHXZ 00444830 f   State_start.obj
 0001:00043b20       ?copyAllBackgroundBuffer@State_start@@UAEXXZ 00444b20 f   State_start.obj
 0001:00043c20       ?virtMainLoopDoBeforeUpdate@State_start@@UAEXXZ 00444c20 f   State_start.obj
 0001:00043e00       ??0Button_rank@@QAE@HHPAVBaseEngine@@HH_NHV?$basic_string@DU?$char_traits@D@std@@V?$allocator@D@2@@std@@HHPAH@Z 00444e00 f i State_start.obj
 0001:00043ed0       ??0Button_start@@QAE@HHPAVBaseEngine@@HH_NHV?$basic_string@DU?$char_traits@D@std@@V?$allocator@D@2@@std@@HHPAH@Z 00444ed0 f i State_start.obj
 0001:00043fa0       ??1Button_rank@@UAE@XZ     00444fa0 f i State_start.obj
 0001:00043fc0       ??1Button_start@@UAE@XZ    00444fc0 f i State_start.obj
 0001:00043fe0       ??_GButton_rank@@UAEPAXI@Z 00444fe0 f i State_start.obj
 0001:00043fe0       ??_EButton_rank@@UAEPAXI@Z 00444fe0 f i State_start.obj
 0001:00044020       ??_EButton_start@@UAEPAXI@Z 00445020 f i State_start.obj
 0001:00044020       ??_GButton_start@@UAEPAXI@Z 00445020 f i State_start.obj
 0001:00044060       ?virtSetupBackgroundBuffer@State_end@@MAEXXZ 00445060 f   State_end.obj
 0001:000440f0       ?virtInitialiseObjects@State_end@@MAEHXZ 004450f0 f   State_end.obj
 0001:000443f0       ?virtDrawStringsUnderneath@State_end@@MAEXXZ 004453f0 f   State_end.obj
 0001:00044400       ?virtDrawStringsOnTop@State_end@@MAEXXZ 00445400 f   State_end.obj
 0001:00044480       ?virtMainLoopDoBeforeUpdate@State_end@@MAEXXZ 00445480 f   State_end.obj
 0001:000445b0       ?virtMainLoopDoAfterUpdate@State_end@@MAEXXZ 004455b0 f   State_end.obj
 0001:00044940       ??0Button_back@@QAE@HHPAVBaseEngine@@HH_NHV?$basic_string@DU?$char_traits@D@std@@V?$allocator@D@2@@std@@HHPAH@Z 00445940 f i State_end.obj
 0001:00044a10       ??0Button_stop@@QAE@HHPAVBaseEngine@@HH_NHV?$basic_string@DU?$char_traits@D@std@@V?$allocator@D@2@@std@@HHPAHPA_N@Z 00445a10 f i State_end.obj
 0001:00044af0       ??1Button_back@@UAE@XZ     00445af0 f i State_end.obj
 0001:00044b10       ??1Button_stop@@UAE@XZ     00445b10 f i State_end.obj
 0001:00044b30       ??_GButton_back@@UAEPAXI@Z 00445b30 f i State_end.obj
 0001:00044b30       ??_EButton_back@@UAEPAXI@Z 00445b30 f i State_end.obj
 0001:00044b70       ??_EButton_stop@@UAEPAXI@Z 00445b70 f i State_end.obj
 0001:00044b70       ??_GButton_stop@@UAEPAXI@Z 00445b70 f i State_end.obj
 0001:00044bb0       ?getMapWidth@TileManager@@QBEHXZ 00445bb0 f i State_end.obj
 0001:00044bd0       ?virtSetupBackgroundBuffer@State_name@@MAEXXZ 00445bd0 f   State_name.obj
 0001:00044bf0       ?virtInitialiseObjects@State_name@@MAEHXZ 00445bf0 f   State_name.obj
 0001:00044d00       ?virtDrawStringsOnTop@State_name@@MAEXXZ 00445d00 f   State_name.obj
 0001:00044dc0       ?virtKeyDown@State_name@@MAEXH@Z 00445dc0 f   State_name.obj
 0001:00044f90       ?empty@?$basic_string@DU?$char_traits@D@std@@V?$allocator@D@2@@std@@QBE_NXZ 00445f90 f i State_name.obj
 0001:00044fd0       ?pop_back@?$basic_string@DU?$char_traits@D@std@@V?$allocator@D@2@@std@@QAEXXZ 00445fd0 f i State_name.obj
 0001:000450a0       ?virtSetupBackgroundBuffer@State_rank@@MAEXXZ 004460a0 f   State_rank.obj
 0001:000450c0       ?virtInitialiseObjects@State_rank@@MAEHXZ 004460c0 f   State_rank.obj
 0001:000451d0       ?virtDrawStringsOnTop@State_rank@@MAEXXZ 004461d0 f   State_rank.obj
 0001:00045480       ?drawAllTiles@TileManager@@QBEXPAVBaseEngine@@PAVDrawingSurface@@@Z 00446480 f   TileManager.obj
 0001:00045520       ?drawSomeTiles@TileManager@@QBEXPAVBaseEngine@@PAVDrawingSurface@@HHHH@Z 00446520 f   TileManager.obj
 0001:000455c0       ?virtDrawTileAt@TileManager@@UBEXPAVBaseEngine@@PAVDrawingSurface@@HHHH@Z 004465c0 f   TileManager.obj
 0001:000456b0       ??0BouncingBall@@QAE@PAVBouncingBallMain@@HHHHPBDHH@Z 004466b0 f   BouncingBall.obj
 0001:00045780       ??1BouncingBall@@UAE@XZ    00446780 f   BouncingBall.obj
 0001:000457a0       ?virtDraw@BouncingBall@@UAEXXZ 004467a0 f   BouncingBall.obj
 0001:00045a70       ?virtDoUpdate@BouncingBall@@UAEXH@Z 00446a70 f   BouncingBall.obj
 0001:00045a90       ??0BouncingBall1@@QAE@PAVBouncingBallMain@@HHHHPBDHHPAVTileManager@@@Z 00446a90 f   BouncingBall.obj
 0001:00045b30       ?setMovement@BouncingBall1@@QAEXHHHHHHH@Z 00446b30 f   BouncingBall.obj
 0001:00045ba0       ?virtDoUpdate@BouncingBall1@@UAEXH@Z 00446ba0 f   BouncingBall.obj
 0001:00045d10       ??0BouncingBall2@@QAE@PAVBouncingBallMain@@HHHHPBDHH@Z 00446d10 f   BouncingBall.obj
 0001:00045d90       ?setPosition@BouncingBall2@@QAEXNN@Z 00446d90 f   BouncingBall.obj
 0001:00045dc0       ?setSpeed@BouncingBall2@@QAEXNN@Z 00446dc0 f   BouncingBall.obj
 0001:00045df0       ?virtDoUpdate@BouncingBall2@@UAEXH@Z 00446df0 f   BouncingBall.obj
 0001:000463e0       ??0MovementPosition@@QAE@XZ 004473e0 f i BouncingBall.obj
 0001:00046460       ??1BouncingBall1@@UAE@XZ   00447460 f i BouncingBall.obj
 0001:00046480       ??1BouncingBall2@@UAE@XZ   00447480 f i BouncingBall.obj
 0001:000464a0       ??_GBouncingBall1@@UAEPAXI@Z 004474a0 f i BouncingBall.obj
 0001:000464a0       ??_EBouncingBall1@@UAEPAXI@Z 004474a0 f i BouncingBall.obj
 0001:000464e0       ??_EBouncingBall2@@UAEPAXI@Z 004474e0 f i BouncingBall.obj
 0001:000464e0       ??_GBouncingBall2@@UAEPAXI@Z 004474e0 f i BouncingBall.obj
 0001:00046520       ??_EBouncingBall@@UAEPAXI@Z 00447520 f i BouncingBall.obj
 0001:00046520       ??_GBouncingBall@@UAEPAXI@Z 00447520 f i BouncingBall.obj
 0001:00046560       ?calculate@MovementPosition@@QAEXH@Z 00447560 f i BouncingBall.obj
 0001:00046650       ?getX@MovementPosition@@QBEHXZ 00447650 f i BouncingBall.obj
 0001:00046670       ?getY@MovementPosition@@QBEHXZ 00447670 f i BouncingBall.obj
 0001:00046690       ?hasMovementFinished@MovementPosition@@QBE_NH@Z 00447690 f i BouncingBall.obj
 0001:000466d0       ?reverse@MovementPosition@@QAEXXZ 004476d0 f i BouncingBall.obj
 0001:00046760       ?setup@MovementPosition@@QAEXHHHHHH@Z 00447760 f i BouncingBall.obj
 0001:000467d0       ?virtMouseDown@BouncingBall@@UAEXHHH@Z 004477d0 f i BouncingBall.obj
 0001:00046810       ?virtSetupBackgroundBuffer@BouncingBallMain@@UAEXXZ 00447810 f   BouncingBallMain.obj
 0001:00047200       ?virtInitialiseObjects@BouncingBallMain@@UAEHXZ 00448200 f   BouncingBallMain.obj
 0001:000474d0       ?virtDrawStringsUnderneath@BouncingBallMain@@UAEXXZ 004484d0 f   BouncingBallMain.obj
 0001:00047510       ?virtMouseDown@BouncingBallMain@@UAEXHHH@Z 00448510 f   BouncingBallMain.obj
 0001:00047550       ?virtKeyDown@BouncingBallMain@@UAEXH@Z 00448550 f   BouncingBallMain.obj
 0001:000478d0       ??$?HDU?$char_traits@D@std@@V?$allocator@D@1@@std@@YA?AV?$basic_string@DU?$char_traits@D@std@@V?$allocator@D@2@@0@$$QAV10@0@Z 004488d0 f i BouncingBallMain.obj
 0001:000479b0       ??$?HDU?$char_traits@D@std@@V?$allocator@D@1@@std@@YA?AV?$basic_string@DU?$char_traits@D@std@@V?$allocator@D@2@@0@$$QAV10@ABV10@@Z 004489b0 f i BouncingBallMain.obj
 0001:00047a00       ??$?HDU?$char_traits@D@std@@V?$allocator@D@1@@std@@YA?AV?$basic_string@DU?$char_traits@D@std@@V?$allocator@D@2@@0@QBD$$QAV10@@Z 00448a00 f i BouncingBallMain.obj
 0001:00047a50       ??$_Reallocate_grow_by@V<lambda_4d79bb85f269e6e8002a4599002d832c>@@IPBDI@?$basic_string@DU?$char_traits@D@std@@V?$allocator@D@2@@std@@AAEAAV01@IV<lambda_4d79bb85f269e6e8002a4599002d832c>@@IPBDI@Z 00448a50 f i BouncingBallMain.obj
 0001:00047bd0       ??R<lambda_4d79bb85f269e6e8002a4599002d832c>@@QBE@QADQBDII1I@Z 00448bd0 f i BouncingBallMain.obj
 0001:00047c50       ?capacity@?$basic_string@DU?$char_traits@D@std@@V?$allocator@D@2@@std@@QBEIXZ 00448c50 f i BouncingBallMain.obj
 0001:00047c70       ?drawBackgroundPolygon@BaseEngine@@QAEXNNNNNNNNI@Z 00448c70 f i BouncingBallMain.obj
 0001:00047d30       ?drawBackgroundPolygon@BaseEngine@@QAEXNNNNNNNNNNI@Z 00448d30 f i BouncingBallMain.obj
 0001:00047e00       ?drawBackgroundPolygon@BaseEngine@@QAEXNNNNNNNNNNNNI@Z 00448e00 f i BouncingBallMain.obj
 0001:00047ef0       ?drawBackgroundPolygon@BaseEngine@@QAEXNNNNNNNNNNNNNNI@Z 00448ef0 f i BouncingBallMain.obj
 0001:00047ff0       ?drawBackgroundPolygon@BaseEngine@@QAEXNNNNNNNNNNNNNNNNI@Z 00448ff0 f i BouncingBallMain.obj
 0001:00048130       ?drawBackgroundTriangle@BaseEngine@@QAEXHHHHHHI@Z 00449130 f i BouncingBallMain.obj
 0001:000481c0       ?drawBackgroundVerticalSidedRegion@BaseEngine@@QAEXNNNNNNI@Z 004491c0 f i BouncingBallMain.obj
 0001:00048250       ?getImageURL@RawImageData@@QAEABV?$basic_string@DU?$char_traits@D@std@@V?$allocator@D@2@@std@@XZ 00449250 f i BouncingBallMain.obj
 0001:00048270       ?getImageURL@SimpleImage@@QAE?BV?$basic_string@DU?$char_traits@D@std@@V?$allocator@D@2@@std@@XZ 00449270 f i BouncingBallMain.obj
 0001:00048300       ?insert@?$basic_string@DU?$char_traits@D@std@@V?$allocator@D@2@@std@@QAEAAV12@IABV12@@Z 00449300 f i BouncingBallMain.obj
 0001:00048340       ?insert@?$basic_string@DU?$char_traits@D@std@@V?$allocator@D@2@@std@@QAEAAV12@IQBD@Z 00449340 f i BouncingBallMain.obj
 0001:00048380       ?insert@?$basic_string@DU?$char_traits@D@std@@V?$allocator@D@2@@std@@QAEAAV12@IQBDI@Z 00449380 f i BouncingBallMain.obj
 0001:000484d0       ?resizeTo@ImageManager@@QAE?AVSimpleImage@@V2@HH@Z 004494d0 f i BouncingBallMain.obj
 0001:00048a10       ?shrinkBy@ImageManager@@QAE?AVSimpleImage@@V2@H@Z 00449a10 f i BouncingBallMain.obj
 0001:00048e60       ?virtInitialise@ZoomingDemo@@UAEHXZ 00449e60 f   ZoomingDemo.obj
 0001:00048eb0       ?virtSetupBackgroundBuffer@ZoomingDemo@@UAEXXZ 00449eb0 f   ZoomingDemo.obj
 0001:00048ed0       ?virtInitialiseObjects@ZoomingDemo@@UAEHXZ 00449ed0 f   ZoomingDemo.obj
 0001:00049090       ?virtDrawStringsUnderneath@ZoomingDemo@@UAEXXZ 0044a090 f   ZoomingDemo.obj
 0001:00049140       ?virtDrawStringsOnTop@ZoomingDemo@@UAEXXZ 0044a140 f   ZoomingDemo.obj
 0001:000491c0       ?virtMouseDown@ZoomingDemo@@UAEXHHH@Z 0044a1c0 f   ZoomingDemo.obj
 0001:00049210       ?virtKeyDown@ZoomingDemo@@UAEXH@Z 0044a210 f   ZoomingDemo.obj
 0001:00049310       ?virtMouseWheel@ZoomingDemo@@UAEXHHHH@Z 0044a310 f   ZoomingDemo.obj
 0001:00049510       ??0SimpleFlashingDragableImageObject@@QAE@HHPAVBaseEngine@@V?$basic_string@DU?$char_traits@D@std@@V?$allocator@D@2@@std@@1_N2@Z 0044a510 f i ZoomingDemo.obj
 0001:00049710       ??1SimpleFlashingDragableImageObject@@UAE@XZ 0044a710 f i ZoomingDemo.obj
 0001:00049750       ??_ESimpleFlashingDragableImageObject@@UAEPAXI@Z 0044a750 f i ZoomingDemo.obj
 0001:00049750       ??_GSimpleFlashingDragableImageObject@@UAEPAXI@Z 0044a750 f i ZoomingDemo.obj
 0001:00049790       ?virtDoUpdate@SimpleFlashingDragableImageObject@@UAEXH@Z 0044a790 f i ZoomingDemo.obj
 0001:000497f0       ?virtDraw@SimpleFlashingDragableImageObject@@UAEXXZ 0044a7f0 f i ZoomingDemo.obj
 0001:000498e0       ?virtMouseDown@SimpleFlashingDragableImageObject@@UAEXHHH@Z 0044a8e0 f i ZoomingDemo.obj
 0001:00049950       ?virtMouseMoved@SimpleFlashingDragableImageObject@@UAEXHH@Z 0044a950 f i ZoomingDemo.obj
 0001:000499b0       ?virtMouseUp@SimpleFlashingDragableImageObject@@UAEXHHH@Z 0044a9b0 f i ZoomingDemo.obj
 0001:000499d0       ??0MazeDemoMain@@QAE@XZ    0044a9d0 f   MazeDemoMain.obj
 0001:00049a50       ??1MazeDemoMain@@UAE@XZ    0044aa50 f   MazeDemoMain.obj
 0001:00049a90       ?virtSetupBackgroundBuffer@MazeDemoMain@@UAEXXZ 0044aa90 f   MazeDemoMain.obj
 0001:00049c80       ?virtInitialiseObjects@MazeDemoMain@@UAEHXZ 0044ac80 f   MazeDemoMain.obj
 0001:00049e80       ?virtDrawStringsUnderneath@MazeDemoMain@@UAEXXZ 0044ae80 f   MazeDemoMain.obj
 0001:00049f10       ?virtMouseDown@MazeDemoMain@@UAEXHHH@Z 0044af10 f   MazeDemoMain.obj
 0001:00049f20       ?virtKeyDown@MazeDemoMain@@UAEXH@Z 0044af20 f   MazeDemoMain.obj
 0001:0004a170       ??0MazeDemoTileManager@@QAE@XZ 0044b170 f i MazeDemoMain.obj
 0001:0004a1a0       ??0TileManager@@QAE@HH@Z   0044b1a0 f i MazeDemoMain.obj
 0001:0004a220       ??1MazeDemoTileManager@@UAE@XZ 0044b220 f i MazeDemoMain.obj
 0001:0004a250       ??_EMazeDemoMain@@UAEPAXI@Z 0044b250 f i MazeDemoMain.obj
 0001:0004a250       ??_GMazeDemoMain@@UAEPAXI@Z 0044b250 f i MazeDemoMain.obj
 0001:0004a290       ??_EMazeDemoTileManager@@UAEPAXI@Z 0044b290 f i MazeDemoMain.obj
 0001:0004a290       ??_GMazeDemoTileManager@@UAEPAXI@Z 0044b290 f i MazeDemoMain.obj
 0001:0004a2d0       ??0MazeDemoObject@@QAE@PAVMazeDemoMain@@HH@Z 0044b2d0 f   MazeDemoObject.obj
 0001:0004a3b0       ??1MazeDemoObject@@UAE@XZ  0044b3b0 f   MazeDemoObject.obj
 0001:0004a3d0       ?virtDraw@MazeDemoObject@@UAEXXZ 0044b3d0 f   MazeDemoObject.obj
 0001:0004a480       ?virtDoUpdate@MazeDemoObject@@UAEXH@Z 0044b480 f   MazeDemoObject.obj
 0001:0004aaf0       ??_GMazeDemoObject@@UAEPAXI@Z 0044baf0 f i MazeDemoObject.obj
 0001:0004aaf0       ??_EMazeDemoObject@@UAEPAXI@Z 0044baf0 f i MazeDemoObject.obj
 0001:0004ab30       ?GetTileManager@MazeDemoMain@@QAEAAVMazeDemoTileManager@@XZ 0044bb30 f i MazeDemoObject.obj
 0001:0004ab50       ?checkCircles@CollisionDetection@@SA_NHHHHH@Z 0044bb50 f i MazeDemoObject.obj
 0001:0004abb0       ?getDisplayableObject@DisplayableObjectContainer@@QBEPAVDisplayableObject@@H@Z 0044bbb0 f i MazeDemoObject.obj
 0001:0004abf0       ?getXDiffForDirection@MazeDemoObject@@QAEHH@Z 0044bbf0 f i MazeDemoObject.obj
 0001:0004ac60       ?getYDiffForDirection@MazeDemoObject@@QAEHH@Z 0044bc60 f i MazeDemoObject.obj
 0001:0004acd0       ?virtDrawTileAt@MazeDemoTileManager@@UBEXPAVBaseEngine@@PAVDrawingSurface@@HHHH@Z 0044bcd0 f   MazeDemoTileManager.obj
 0001:0004aea7       _SDL_CreateRGBSurface      0044bea7 f   SDL2:SDL2.dll
 0001:0004aead       _SDL_FreeSurface           0044bead f   SDL2:SDL2.dll
 0001:0004aeb3       _SDL_LockSurface           0044beb3 f   SDL2:SDL2.dll
 0001:0004aeb9       _SDL_UnlockSurface         0044beb9 f   SDL2:SDL2.dll
 0001:0004aebf       _SDL_UpperBlit             0044bebf f   SDL2:SDL2.dll
 0001:0004aec5       _SDL_FillRect              0044bec5 f   SDL2:SDL2.dll
 0001:0004aecb       _SDL_RWFromFile            0044becb f   SDL2:SDL2.dll
 0001:0004aed1       _SDL_GetError              0044bed1 f   SDL2:SDL2.dll
 0001:0004aed7       _SDL_CreateWindow          0044bed7 f   SDL2:SDL2.dll
 0001:0004aedd       _SDL_PollEvent             0044bedd f   SDL2:SDL2.dll
 0001:0004aee3       _SDL_WaitEvent             0044bee3 f   SDL2:SDL2.dll
 0001:0004aee9       _SDL_CreateRenderer        0044bee9 f   SDL2:SDL2.dll
 0001:0004aeef       _SDL_CreateTexture         0044beef f   SDL2:SDL2.dll
 0001:0004aef5       _SDL_UpdateTexture         0044bef5 f   SDL2:SDL2.dll
 0001:0004aefb       _SDL_RenderCopy            0044befb f   SDL2:SDL2.dll
 0001:0004af01       _SDL_RenderPresent         0044bf01 f   SDL2:SDL2.dll
 0001:0004af07       _SDL_GetTicks              0044bf07 f   SDL2:SDL2.dll
 0001:0004af0d       _SDL_Init                  0044bf0d f   SDL2:SDL2.dll
 0001:0004af13       _SDL_Quit                  0044bf13 f   SDL2:SDL2.dll
 0001:0004af19       _SDL_SetClipRect           0044bf19 f   SDL2:SDL2.dll
 0001:0004af1f       _SDL_UpperBlitScaled       0044bf1f f   SDL2:SDL2.dll
 0001:0004af25       _IMG_Load                  0044bf25 f   SDL2_image:SDL2_image.dll
 0001:0004af2b       _TTF_RenderText_Solid      0044bf2b f   SDL2_ttf:SDL2_ttf.dll
 0001:0004af31       _TTF_Init                  0044bf31 f   SDL2_ttf:SDL2_ttf.dll
 0001:0004af37       _TTF_Quit                  0044bf37 f   SDL2_ttf:SDL2_ttf.dll
 0001:0004af3d       _TTF_OpenFont              0044bf3d f   SDL2_ttf:SDL2_ttf.dll
 0001:0004af43       _TTF_CloseFont             0044bf43 f   SDL2_ttf:SDL2_ttf.dll
 0001:0004af49       _Mix_OpenAudio             0044bf49 f   SDL2_mixer:SDL2_mixer.dll
 0001:0004af4f       _Mix_LoadWAV_RW            0044bf4f f   SDL2_mixer:SDL2_mixer.dll
 0001:0004af55       _Mix_PlayChannelTimed      0044bf55 f   SDL2_mixer:SDL2_mixer.dll
 0001:0004af5b       ??0_Lockit@std@@QAE@H@Z    0044bf5b f   msvcprtd:MSVCP140D.dll
 0001:0004af61       ??1_Lockit@std@@QAE@XZ     0044bf61 f   msvcprtd:MSVCP140D.dll
 0001:0004af67       ?_Xlength_error@std@@YAXPBD@Z 0044bf67 f   msvcprtd:MSVCP140D.dll
 0001:0004af6d       ?uncaught_exception@std@@YA_NXZ 0044bf6d f   msvcprtd:MSVCP140D.dll
 0001:0004af73       ?good@ios_base@std@@QBE_NXZ 0044bf73 f   msvcprtd:MSVCP140D.dll
 0001:0004af79       ?flags@ios_base@std@@QBEHXZ 0044bf79 f   msvcprtd:MSVCP140D.dll
 0001:0004af7f       ?width@ios_base@std@@QBE_JXZ 0044bf7f f   msvcprtd:MSVCP140D.dll
 0001:0004af85       ?width@ios_base@std@@QAE_J_J@Z 0044bf85 f   msvcprtd:MSVCP140D.dll
 0001:0004af8b       ?sputc@?$basic_streambuf@DU?$char_traits@D@std@@@std@@QAEHD@Z 0044bf8b f   msvcprtd:MSVCP140D.dll
 0001:0004af91       ?sputn@?$basic_streambuf@DU?$char_traits@D@std@@@std@@QAE_JPBD_J@Z 0044bf91 f   msvcprtd:MSVCP140D.dll
 0001:0004af97       ?setstate@?$basic_ios@DU?$char_traits@D@std@@@std@@QAEXH_N@Z 0044bf97 f   msvcprtd:MSVCP140D.dll
 0001:0004af9d       ?tie@?$basic_ios@DU?$char_traits@D@std@@@std@@QBEPAV?$basic_ostream@DU?$char_traits@D@std@@@2@XZ 0044bf9d f   msvcprtd:MSVCP140D.dll
 0001:0004afa3       ?rdbuf@?$basic_ios@DU?$char_traits@D@std@@@std@@QBEPAV?$basic_streambuf@DU?$char_traits@D@std@@@2@XZ 0044bfa3 f   msvcprtd:MSVCP140D.dll
 0001:0004afa9       ?fill@?$basic_ios@DU?$char_traits@D@std@@@std@@QBEDXZ 0044bfa9 f   msvcprtd:MSVCP140D.dll
 0001:0004afaf       ?widen@?$basic_ios@DU?$char_traits@D@std@@@std@@QBEDD@Z 0044bfaf f   msvcprtd:MSVCP140D.dll
 0001:0004afb5       ?_Osfx@?$basic_ostream@DU?$char_traits@D@std@@@std@@QAEXXZ 0044bfb5 f   msvcprtd:MSVCP140D.dll
 0001:0004afbb       ??6?$basic_ostream@DU?$char_traits@D@std@@@std@@QAEAAV01@P6AAAV01@AAV01@@Z@Z 0044bfbb f   msvcprtd:MSVCP140D.dll
 0001:0004afc1       ?put@?$basic_ostream@DU?$char_traits@D@std@@@std@@QAEAAV12@D@Z 0044bfc1 f   msvcprtd:MSVCP140D.dll
 0001:0004afc7       ?flush@?$basic_ostream@DU?$char_traits@D@std@@@std@@QAEAAV12@XZ 0044bfc7 f   msvcprtd:MSVCP140D.dll
 0001:0004afcd       ?_Xbad_function_call@std@@YAXXZ 0044bfcd f   msvcprtd:MSVCP140D.dll
 0001:0004afd3       ??6?$basic_ostream@DU?$char_traits@D@std@@@std@@QAEAAV01@I@Z 0044bfd3 f   msvcprtd:MSVCP140D.dll
 0001:0004afd9       ?_Xinvalid_argument@std@@YAXPBD@Z 0044bfd9 f   msvcprtd:MSVCP140D.dll
 0001:0004afdf       ?_Xout_of_range@std@@YAXPBD@Z 0044bfdf f   msvcprtd:MSVCP140D.dll
 0001:0004aff0       ??0_Fac_node@std@@QAE@PAU01@PAV_Facet_base@1@@Z 0044bff0 f i msvcprtd:locale0_implib.obj
 0001:0004b020       ??1_Fac_node@std@@QAE@XZ   0044c020 f i msvcprtd:locale0_implib.obj
 0001:0004b0a0       ??1_Fac_tidy_reg_t@std@@QAE@XZ 0044c0a0 f i msvcprtd:locale0_implib.obj
 0001:0004b100       ??2_Fac_node@std@@SAPAXI@Z 0044c100 f i msvcprtd:locale0_implib.obj
 0001:0004b160       ??3_Fac_node@std@@SAXPAX@Z 0044c160 f i msvcprtd:locale0_implib.obj
 0001:0004b180       ??_G_Fac_node@std@@QAEPAXI@Z 0044c180 f i msvcprtd:locale0_implib.obj
 0001:0004b1e0       ?_Facet_Register@std@@YAXPAV_Facet_base@1@@Z 0044c1e0 f   msvcprtd:locale0_implib.obj
 0001:0004b290       ?__empty_global_delete@@YAXPAXIW4align_val_t@std@@@Z 0044c290 f i msvcprtd:locale0_implib.obj
 0001:0004b2a0       ?__empty_global_delete@@YAXPAXW4align_val_t@std@@@Z 0044c2a0 f i msvcprtd:locale0_implib.obj
 0001:0004b2a5       ??Bid@locale@std@@QAEIXZ   0044c2a5 f   msvcprtd:MSVCP140D.dll
 0001:0004b2ab       ?_Getgloballocale@locale@std@@CAPAV_Locimp@12@XZ 0044c2ab f   msvcprtd:MSVCP140D.dll
 0001:0004b2b1       ?always_noconv@codecvt_base@std@@QBE_NXZ 0044c2b1 f   msvcprtd:MSVCP140D.dll
 0001:0004b2b7       ?in@?$codecvt@DDU_Mbstatet@@@std@@QBEHAAU_Mbstatet@@PBD1AAPBDPAD3AAPAD@Z 0044c2b7 f   msvcprtd:MSVCP140D.dll
 0001:0004b2bd       ?out@?$codecvt@DDU_Mbstatet@@@std@@QBEHAAU_Mbstatet@@PBD1AAPBDPAD3AAPAD@Z 0044c2bd f   msvcprtd:MSVCP140D.dll
 0001:0004b2c3       ?unshift@?$codecvt@DDU_Mbstatet@@@std@@QBEHAAU_Mbstatet@@PAD1AAPAD@Z 0044c2c3 f   msvcprtd:MSVCP140D.dll
 0001:0004b2c9       ?_Getcat@?$codecvt@DDU_Mbstatet@@@std@@SAIPAPBVfacet@locale@2@PBV42@@Z 0044c2c9 f   msvcprtd:MSVCP140D.dll
 0001:0004b2cf       ??Bios_base@std@@QBE_NXZ   0044c2cf f   msvcprtd:MSVCP140D.dll
 0001:0004b2d5       ??0?$basic_streambuf@DU?$char_traits@D@std@@@std@@IAE@XZ 0044c2d5 f   msvcprtd:MSVCP140D.dll
 0001:0004b2db       ??1?$basic_streambuf@DU?$char_traits@D@std@@@std@@UAE@XZ 0044c2db f   msvcprtd:MSVCP140D.dll
 0001:0004b2e1       ?getloc@?$basic_streambuf@DU?$char_traits@D@std@@@std@@QBE?AVlocale@2@XZ 0044c2e1 f   msvcprtd:MSVCP140D.dll
 0001:0004b2e7       ?sbumpc@?$basic_streambuf@DU?$char_traits@D@std@@@std@@QAEHXZ 0044c2e7 f   msvcprtd:MSVCP140D.dll
 0001:0004b2ed       ?sgetc@?$basic_streambuf@DU?$char_traits@D@std@@@std@@QAEHXZ 0044c2ed f   msvcprtd:MSVCP140D.dll
 0001:0004b2f3       ?snextc@?$basic_streambuf@DU?$char_traits@D@std@@@std@@QAEHXZ 0044c2f3 f   msvcprtd:MSVCP140D.dll
 0001:0004b2f9       ?eback@?$basic_streambuf@DU?$char_traits@D@std@@@std@@IBEPADXZ 0044c2f9 f   msvcprtd:MSVCP140D.dll
 0001:0004b2ff       ?gptr@?$basic_streambuf@DU?$char_traits@D@std@@@std@@IBEPADXZ 0044c2ff f   msvcprtd:MSVCP140D.dll
 0001:0004b305       ?pptr@?$basic_streambuf@DU?$char_traits@D@std@@@std@@IBEPADXZ 0044c305 f   msvcprtd:MSVCP140D.dll
 0001:0004b30b       ?egptr@?$basic_streambuf@DU?$char_traits@D@std@@@std@@IBEPADXZ 0044c30b f   msvcprtd:MSVCP140D.dll
 0001:0004b311       ?gbump@?$basic_streambuf@DU?$char_traits@D@std@@@std@@IAEXH@Z 0044c311 f   msvcprtd:MSVCP140D.dll
 0001:0004b317       ?setg@?$basic_streambuf@DU?$char_traits@D@std@@@std@@IAEXPAD00@Z 0044c317 f   msvcprtd:MSVCP140D.dll
 0001:0004b31d       ?epptr@?$basic_streambuf@DU?$char_traits@D@std@@@std@@IBEPADXZ 0044c31d f   msvcprtd:MSVCP140D.dll
 0001:0004b323       ?_Gndec@?$basic_streambuf@DU?$char_traits@D@std@@@std@@IAEPADXZ 0044c323 f   msvcprtd:MSVCP140D.dll
 0001:0004b329       ?_Gninc@?$basic_streambuf@DU?$char_traits@D@std@@@std@@IAEPADXZ 0044c329 f   msvcprtd:MSVCP140D.dll
 0001:0004b32f       ?_Gnavail@?$basic_streambuf@DU?$char_traits@D@std@@@std@@IBE_JXZ 0044c32f f   msvcprtd:MSVCP140D.dll
 0001:0004b335       ?pbump@?$basic_streambuf@DU?$char_traits@D@std@@@std@@IAEXH@Z 0044c335 f   msvcprtd:MSVCP140D.dll
 0001:0004b33b       ?_Pninc@?$basic_streambuf@DU?$char_traits@D@std@@@std@@IAEPADXZ 0044c33b f   msvcprtd:MSVCP140D.dll
 0001:0004b341       ?_Pnavail@?$basic_streambuf@DU?$char_traits@D@std@@@std@@IBE_JXZ 0044c341 f   msvcprtd:MSVCP140D.dll
 0001:0004b347       ?_Init@?$basic_streambuf@DU?$char_traits@D@std@@@std@@IAEXXZ 0044c347 f   msvcprtd:MSVCP140D.dll
 0001:0004b34d       ?_Init@?$basic_streambuf@DU?$char_traits@D@std@@@std@@IAEXPAPAD0PAH001@Z 0044c34d f   msvcprtd:MSVCP140D.dll
 0001:0004b353       ?xsgetn@?$basic_streambuf@DU?$char_traits@D@std@@@std@@MAE_JPAD_J@Z 0044c353 f   msvcprtd:MSVCP140D.dll
 0001:0004b359       ?xsputn@?$basic_streambuf@DU?$char_traits@D@std@@@std@@MAE_JPBD_J@Z 0044c359 f   msvcprtd:MSVCP140D.dll
 0001:0004b35f       ??1?$basic_ios@DU?$char_traits@D@std@@@std@@UAE@XZ 0044c35f f   msvcprtd:MSVCP140D.dll
 0001:0004b365       ??0?$basic_ios@DU?$char_traits@D@std@@@std@@IAE@XZ 0044c365 f   msvcprtd:MSVCP140D.dll
 0001:0004b36b       ??0?$basic_ostream@DU?$char_traits@D@std@@@std@@QAE@PAV?$basic_streambuf@DU?$char_traits@D@std@@@1@_N@Z 0044c36b f   msvcprtd:MSVCP140D.dll
 0001:0004b371       ??1?$basic_ostream@DU?$char_traits@D@std@@@std@@UAE@XZ 0044c371 f   msvcprtd:MSVCP140D.dll
 0001:0004b377       ??6?$basic_ostream@DU?$char_traits@D@std@@@std@@QAEAAV01@H@Z 0044c377 f   msvcprtd:MSVCP140D.dll
 0001:0004b37d       ??0?$basic_istream@DU?$char_traits@D@std@@@std@@QAE@PAV?$basic_streambuf@DU?$char_traits@D@std@@@1@_N@Z 0044c37d f   msvcprtd:MSVCP140D.dll
 0001:0004b383       ??1?$basic_istream@DU?$char_traits@D@std@@@std@@UAE@XZ 0044c383 f   msvcprtd:MSVCP140D.dll
 0001:0004b389       ?_Ipfx@?$basic_istream@DU?$char_traits@D@std@@@std@@QAE_N_N@Z 0044c389 f   msvcprtd:MSVCP140D.dll
 0001:0004b38f       ?_Fiopen@std@@YAPAU_iobuf@@PBDHH@Z 0044c38f f   msvcprtd:MSVCP140D.dll
 0001:0004b395       ?showmanyc@?$basic_streambuf@DU?$char_traits@D@std@@@std@@MAE_JXZ 0044c395 f   msvcprtd:MSVCP140D.dll
 0001:0004b39b       ?_Xbad_alloc@std@@YAXXZ    0044c39b f   msvcprtd:MSVCP140D.dll
 0001:0004b780       ?configure_argv@__scrt_narrow_argv_policy@@SAHXZ 0044c780 f i MSVCRTD:exe_main.obj
 0001:0004b7a0       ?initialize_environment@__scrt_narrow_environment_policy@@SAHXZ 0044c7a0 f i MSVCRTD:exe_main.obj
 0001:0004b800       ?set_app_type@__scrt_main_policy@@SAXXZ 0044c800 f i MSVCRTD:exe_main.obj
 0001:0004b820       ?set_commode@__scrt_file_policy@@SAXXZ 0044c820 f i MSVCRTD:exe_main.obj
 0001:0004b840       ?set_fmode@__scrt_file_policy@@SAXXZ 0044c840 f i MSVCRTD:exe_main.obj
 0001:0004b860       _mainCRTStartup            0044c860 f   MSVCRTD:exe_main.obj
 0001:0004b870       @__security_check_cookie@4 0044c870 f   MSVCRTD:secchk.obj
 0001:0004b890       ??2@YAPAXI@Z               0044c890 f   MSVCRTD:new_scalar.obj
 0001:0004b8f0       ??3@YAXPAXI@Z              0044c8f0 f   MSVCRTD:delete_scalar_size.obj
 0001:0004ba50       _NtCurrentTeb              0044ca50 f i MSVCRTD:utility.obj
 0001:0004ba60       ___scrt_acquire_startup_lock 0044ca60 f   MSVCRTD:utility.obj
 0001:0004bac0       ___scrt_dllmain_after_initialize_c 0044cac0 f   MSVCRTD:utility.obj
 0001:0004bb00       ___scrt_dllmain_before_initialize_c 0044cb00 f   MSVCRTD:utility.obj
 0001:0004bb30       ___scrt_dllmain_crt_thread_attach 0044cb30 f   MSVCRTD:utility.obj
 0001:0004bb70       ___scrt_dllmain_crt_thread_detach 0044cb70 f   MSVCRTD:utility.obj
 0001:0004bb90       ___scrt_dllmain_exception_filter 0044cb90 f   MSVCRTD:utility.obj
 0001:0004bbf0       ___scrt_dllmain_uninitialize_c 0044cbf0 f   MSVCRTD:utility.obj
 0001:0004bc30       ___scrt_dllmain_uninitialize_critical 0044cc30 f   MSVCRTD:utility.obj
 0001:0004bc50       ___scrt_initialize_crt     0044cc50 f   MSVCRTD:utility.obj
 0001:0004bcb0       ___scrt_initialize_onexit_tables 0044ccb0 f   MSVCRTD:utility.obj
 0001:0004bdc0       ___scrt_is_nonwritable_in_current_image 0044cdc0 f   MSVCRTD:utility.obj
 0001:0004bf40       ___scrt_release_startup_lock 0044cf40 f   MSVCRTD:utility.obj
 0001:0004bf70       ___scrt_uninitialize_crt   0044cf70 f   MSVCRTD:utility.obj
 0001:0004bfc0       __onexit                   0044cfc0 f   MSVCRTD:utility.obj
 0001:0004c040       _at_quick_exit             0044d040 f   MSVCRTD:utility.obj
 0001:0004c090       _atexit                    0044d090 f   MSVCRTD:utility.obj
 0001:0004c0d0       ??1type_info@@UAE@XZ       0044d0d0 f   MSVCRTD:std_type_info_static.obj
 0001:0004c0f0       ??_Etype_info@@UAEPAXI@Z   0044d0f0 f i MSVCRTD:std_type_info_static.obj
 0001:0004c0f0       ??_Gtype_info@@UAEPAXI@Z   0044d0f0 f i MSVCRTD:std_type_info_static.obj
 0001:0004c130       ??_U@YAPAXI@Z              0044d130 f   MSVCRTD:new_array.obj
 0001:0004c150       ??_V@YAXPAX@Z              0044d150 f   MSVCRTD:delete_array.obj
 0001:0004c170       @_guard_check_icall_nop@4  0044d170 f i MSVCRTD:guard_support.obj
 0001:0004c180       _ReadNoFence               0044d180 f i MSVCRTD:guard_support.obj
 0001:0004c1a0       _ReadPointerNoFence        0044d1a0 f i MSVCRTD:guard_support.obj
 0001:0004c1c0       __guard_icall_checks_enforced 0044d1c0 f i MSVCRTD:guard_support.obj
 0001:0004c290       ___security_init_cookie    0044d290 f   MSVCRTD:gs_support.obj
 0001:0004c330       __matherr                  0044d330 f   MSVCRTD:matherr.obj
 0001:0004c340       __get_startup_argv_mode    0044d340 f   MSVCRTD:argv_mode.obj
 0001:0004c350       __get_startup_commit_mode  0044d350 f   MSVCRTD:commit_mode.obj
 0001:0004c360       __get_startup_file_mode    0044d360 f   MSVCRTD:file_mode.obj
 0001:0004c370       __get_startup_new_mode     0044d370 f   MSVCRTD:new_mode.obj
 0001:0004c380       __get_startup_thread_locale_mode 0044d380 f   MSVCRTD:thread_locale.obj
 0001:0004c390       ?__scrt_initialize_type_info@@YAXXZ 0044d390 f   MSVCRTD:tncleanup.obj
 0001:0004c3b0       ?__scrt_uninitialize_type_info@@YAXXZ 0044d3b0 f   MSVCRTD:tncleanup.obj
 0001:0004c3d0       __should_initialize_environment 0044d3d0 f   MSVCRTD:env_mode.obj
 0001:0004c3e0       __initialize_default_precision 0044d3e0 f   MSVCRTD:default_precision.obj
 0001:0004c410       __initialize_invalid_parameter_handler 0044d410 f   MSVCRTD:invalid_parameter_handler.obj
 0001:0004c420       __initialize_denormal_control 0044d420 f   MSVCRTD:denormal_control.obj
 0001:0004c430       ___local_stdio_scanf_options 0044d430 f i MSVCRTD:default_local_stdio_options.obj
 0001:0004c440       ___scrt_initialize_default_local_stdio_options 0044d440 f   MSVCRTD:default_local_stdio_options.obj
 0001:0004c490       ___scrt_is_user_matherr_present 0044d490 f   MSVCRTD:matherr_detection.obj
 0001:0004c4c0       ___scrt_get_dyn_tls_init_callback 0044d4c0 f   MSVCRTD:dyn_tls_init.obj
 0001:0004c4d0       ___scrt_get_dyn_tls_dtor_callback 0044d4d0 f   MSVCRTD:dyn_tls_dtor.obj
 0001:0004c4e0       ___scrt_fastfail           0044d4e0 f   MSVCRTD:utility_desktop.obj
 0001:0004c670       ___scrt_get_show_window_mode 0044d670 f   MSVCRTD:utility_desktop.obj
 0001:0004c6c0       ___scrt_initialize_mta     0044d6c0 f   MSVCRTD:utility_desktop.obj
 0001:0004c6d0       ___scrt_initialize_winrt   0044d6d0 f   MSVCRTD:utility_desktop.obj
 0001:0004c6e0       ___scrt_is_managed_app     0044d6e0 f   MSVCRTD:utility_desktop.obj
 0001:0004c790       ___scrt_set_unhandled_exception_filter 0044d790 f   MSVCRTD:utility_desktop.obj
 0001:0004c7b0       ___scrt_exe_initialize_mta 0044d7b0 f   MSVCRTD:utility_desktop.obj
 0001:0004c7b0       ___scrt_stub_for_initialize_mta 0044d7b0 f   MSVCRTD:utility_desktop.obj
 0001:0004c7c0       ___scrt_unhandled_exception_filter@4 0044d7c0 f   MSVCRTD:utility_desktop.obj
 0001:0004c860       __crt_debugger_hook        0044d860 f   MSVCRTD:utility_desktop.obj
 0001:0004c880       __RTC_Initialize           0044d880 f   MSVCRTD:initsect.obj
 0001:0004c8c0       __RTC_Terminate            0044d8c0 f   MSVCRTD:initsect.obj
 0001:0004c900       __except_handler4          0044d900 f   MSVCRTD:chandler4gs.obj
 0001:0004c950       ___raise_securityfailure   0044d950 f   MSVCRTD:gs_report.obj
 0001:0004c990       ___report_gsfailure        0044d990 f   MSVCRTD:gs_report.obj
 0001:0004cae0       ___report_rangecheckfailure 0044dae0 f   MSVCRTD:gs_report.obj
 0001:0004caf0       ___report_securityfailure  0044daf0 f   MSVCRTD:gs_report.obj
 0001:0004cc00       ___report_securityfailureEx 0044dc00 f   MSVCRTD:gs_report.obj
 0001:0004cd70       ??0bad_alloc@std@@QAE@XZ   0044dd70 f i MSVCRTD:throw_bad_alloc.obj
 0001:0004cda0       ?__scrt_throw_std_bad_alloc@@YAXXZ 0044dda0 f   MSVCRTD:throw_bad_alloc.obj
 0001:0004cdd0       ?__scrt_throw_std_bad_array_new_length@@YAXXZ 0044ddd0 f   MSVCRTD:throw_bad_alloc.obj
 0001:0004ce00       ??3@YAXPAX@Z               0044de00 f   MSVCRTD:delete_scalar.obj
 0001:0004ce20       ___isa_available_init      0044de20 f   MSVCRTD:cpu_disp.obj
 0001:0004d220       ___scrt_is_ucrt_dll_in_use 0044e220 f   MSVCRTD:ucrt_detection.obj
 0001:0004d24d       ___CxxFrameHandler3        0044e24d f   vcruntimed:VCRUNTIME140D.dll
 0001:0004d253       _memcpy                    0044e253 f   vcruntimed:VCRUNTIME140D.dll
 0001:0004d259       _memmove                   0044e259 f   vcruntimed:VCRUNTIME140D.dll
 0001:0004d25f       ___std_exception_copy      0044e25f f   vcruntimed:VCRUNTIME140D.dll
 0001:0004d265       ___std_exception_destroy   0044e265 f   vcruntimed:VCRUNTIME140D.dll
 0001:0004d26b       __CxxThrowException@8      0044e26b f   vcruntimed:VCRUNTIME140D.dll
 0001:0004d271       _memcmp                    0044e271 f   vcruntimed:VCRUNTIME140D.dll
 0001:0004d277       _memset                    0044e277 f   vcruntimed:VCRUNTIME140D.dll
 0001:0004d27d       __purecall                 0044e27d f   vcruntimed:VCRUNTIME140D.dll
 0001:0004d283       ___RTDynamicCast           0044e283 f   vcruntimed:VCRUNTIME140D.dll
 0001:0004d289       ___std_type_info_destroy_list 0044e289 f   vcruntimed:VCRUNTIME140D.dll
 0001:0004d28f       ___current_exception       0044e28f f   vcruntimed:VCRUNTIME140D.dll
 0001:0004d295       ___current_exception_context 0044e295 f   vcruntimed:VCRUNTIME140D.dll
 0001:0004d29b       __except_handler4_common   0044e29b f   vcruntimed:VCRUNTIME140D.dll
 0001:0004d2a1       __invalid_parameter        0044e2a1 f   ucrtd:ucrtbased.dll
 0001:0004d2a7       __CrtDbgReport             0044e2a7 f   ucrtd:ucrtbased.dll
 0001:0004d2ad       _strlen                    0044e2ad f   ucrtd:ucrtbased.dll
 0001:0004d2b3       ___acrt_iob_func           0044e2b3 f   ucrtd:ucrtbased.dll
 0001:0004d2b9       ___stdio_common_vfprintf   0044e2b9 f   ucrtd:ucrtbased.dll
 0001:0004d2bf       _rand                      0044e2bf f   ucrtd:ucrtbased.dll
 0001:0004d2c5       _atan                      0044e2c5 f   ucrtd:ucrtbased.dll
 0001:0004d2cb       _cos                       0044e2cb f   ucrtd:ucrtbased.dll
 0001:0004d2d1       _sin                       0044e2d1 f   ucrtd:ucrtbased.dll
 0001:0004d2d7       ___stdio_common_vsprintf   0044e2d7 f   ucrtd:ucrtbased.dll
 0001:0004d2dd       _atoi                      0044e2dd f   ucrtd:ucrtbased.dll
 0001:0004d2e3       _fclose                    0044e2e3 f   ucrtd:ucrtbased.dll
 0001:0004d2e9       _fgets                     0044e2e9 f   ucrtd:ucrtbased.dll
 0001:0004d2ef       _fopen                     0044e2ef f   ucrtd:ucrtbased.dll
 0001:0004d2f5       __CrtDumpMemoryLeaks       0044e2f5 f   ucrtd:ucrtbased.dll
 0001:0004d2fb       _sqrt                      0044e2fb f   ucrtd:ucrtbased.dll
 0001:0004d301       _srand                     0044e301 f   ucrtd:ucrtbased.dll
 0001:0004d307       __time64                   0044e307 f   ucrtd:ucrtbased.dll
 0001:0004d30d       _puts                      0044e30d f   ucrtd:ucrtbased.dll
 0001:0004d313       _strcmp                    0044e313 f   ucrtd:ucrtbased.dll
 0001:0004d319       _strcpy                    0044e319 f   ucrtd:ucrtbased.dll
 0001:0004d31f       __errno                    0044e31f f   ucrtd:ucrtbased.dll
 0001:0004d325       _strtol                    0044e325 f   ucrtd:ucrtbased.dll
 0001:0004d32b       __get_stream_buffer_pointers 0044e32b f   ucrtd:ucrtbased.dll
 0001:0004d331       _fflush                    0044e331 f   ucrtd:ucrtbased.dll
 0001:0004d337       _fgetc                     0044e337 f   ucrtd:ucrtbased.dll
 0001:0004d33d       _fgetpos                   0044e33d f   ucrtd:ucrtbased.dll
 0001:0004d343       _fputc                     0044e343 f   ucrtd:ucrtbased.dll
 0001:0004d349       _fread                     0044e349 f   ucrtd:ucrtbased.dll
 0001:0004d34f       _fsetpos                   0044e34f f   ucrtd:ucrtbased.dll
 0001:0004d355       __fseeki64                 0044e355 f   ucrtd:ucrtbased.dll
 0001:0004d35b       _fwrite                    0044e35b f   ucrtd:ucrtbased.dll
 0001:0004d361       _setvbuf                   0044e361 f   ucrtd:ucrtbased.dll
 0001:0004d367       _ungetc                    0044e367 f   ucrtd:ucrtbased.dll
 0001:0004d36d       __lock_file                0044e36d f   ucrtd:ucrtbased.dll
 0001:0004d373       __unlock_file              0044e373 f   ucrtd:ucrtbased.dll
 0001:0004d379       _strtok                    0044e379 f   ucrtd:ucrtbased.dll
 0001:0004d37f       __free_dbg                 0044e37f f   ucrtd:ucrtbased.dll
 0001:0004d385       __malloc_dbg               0044e385 f   ucrtd:ucrtbased.dll
 0001:0004d38b       __seh_filter_exe           0044e38b f   ucrtd:ucrtbased.dll
 0001:0004d391       __set_app_type             0044e391 f   ucrtd:ucrtbased.dll
 0001:0004d397       ___setusermatherr          0044e397 f   ucrtd:ucrtbased.dll
 0001:0004d39d       __configure_narrow_argv    0044e39d f   ucrtd:ucrtbased.dll
 0001:0004d3a3       __initialize_narrow_environment 0044e3a3 f   ucrtd:ucrtbased.dll
 0001:0004d3a9       __get_initial_narrow_environment 0044e3a9 f   ucrtd:ucrtbased.dll
 0001:0004d3af       __initterm                 0044e3af f   ucrtd:ucrtbased.dll
 0001:0004d3b5       __initterm_e               0044e3b5 f   ucrtd:ucrtbased.dll
 0001:0004d3bb       _exit                      0044e3bb f   ucrtd:ucrtbased.dll
 0001:0004d3c1       __exit                     0044e3c1 f   ucrtd:ucrtbased.dll
 0001:0004d3c7       __set_fmode                0044e3c7 f   ucrtd:ucrtbased.dll
 0001:0004d3cd       ___p___argc                0044e3cd f   ucrtd:ucrtbased.dll
 0001:0004d3d3       ___p___argv                0044e3d3 f   ucrtd:ucrtbased.dll
 0001:0004d3d9       __cexit                    0044e3d9 f   ucrtd:ucrtbased.dll
 0001:0004d3df       __c_exit                   0044e3df f   ucrtd:ucrtbased.dll
 0001:0004d3e5       __register_thread_local_exe_atexit_callback 0044e3e5 f   ucrtd:ucrtbased.dll
 0001:0004d3eb       __configthreadlocale       0044e3eb f   ucrtd:ucrtbased.dll
 0001:0004d3f1       __set_new_mode             0044e3f1 f   ucrtd:ucrtbased.dll
 0001:0004d3f7       ___p__commode              0044e3f7 f   ucrtd:ucrtbased.dll
 0001:0004d3fd       __callnewh                 0044e3fd f   ucrtd:ucrtbased.dll
 0001:0004d403       _malloc                    0044e403 f   ucrtd:ucrtbased.dll
 0001:0004d409       __seh_filter_dll           0044e409 f   ucrtd:ucrtbased.dll
 0001:0004d40f       __initialize_onexit_table  0044e40f f   ucrtd:ucrtbased.dll
 0001:0004d415       __register_onexit_function 0044e415 f   ucrtd:ucrtbased.dll
 0001:0004d41b       __execute_onexit_table     0044e41b f   ucrtd:ucrtbased.dll
 0001:0004d421       __crt_atexit               0044e421 f   ucrtd:ucrtbased.dll
 0001:0004d427       __crt_at_quick_exit        0044e427 f   ucrtd:ucrtbased.dll
 0001:0004d42d       __controlfp_s              0044e42d f   ucrtd:ucrtbased.dll
 0001:0004d433       _terminate                 0044e433 f   ucrtd:ucrtbased.dll
 0001:0004d580       _WinMain@16                0044e580 f   SDL2main:SDL_windows_main.obj
 0001:0004d590       _main                      0044e590 f   SDL2main:SDL_windows_main.obj
 0001:0004d6e0       _wmain                     0044e6e0 f   SDL2main:SDL_windows_main.obj
 0001:0004d6e5       _QueryPerformanceCounter@4 0044e6e5 f   kernel32:KERNEL32.dll
 0001:0004d6eb       _GetCurrentProcessId@0     0044e6eb f   kernel32:KERNEL32.dll
 0001:0004d6f1       _GetCurrentThreadId@0      0044e6f1 f   kernel32:KERNEL32.dll
 0001:0004d6f7       _GetSystemTimeAsFileTime@4 0044e6f7 f   kernel32:KERNEL32.dll
 0001:0004d6fd       _InitializeSListHead@4     0044e6fd f   kernel32:KERNEL32.dll
 0001:0004d703       _IsDebuggerPresent@0       0044e703 f   kernel32:KERNEL32.dll
 0001:0004d709       _UnhandledExceptionFilter@4 0044e709 f   kernel32:KERNEL32.dll
 0001:0004d70f       _SetUnhandledExceptionFilter@4 0044e70f f   kernel32:KERNEL32.dll
 0001:0004d715       _GetStartupInfoW@4         0044e715 f   kernel32:KERNEL32.dll
 0001:0004d71b       _IsProcessorFeaturePresent@4 0044e71b f   kernel32:KERNEL32.dll
 0001:0004d721       _GetModuleHandleW@4        0044e721 f   kernel32:KERNEL32.dll
 0001:0004d727       _GetCurrentProcess@0       0044e727 f   kernel32:KERNEL32.dll
 0001:0004d72d       _TerminateProcess@8        0044e72d f   kernel32:KERNEL32.dll
 0001:0004d733       _GetCommandLineW@0         0044e733 f   kernel32:KERNEL32.dll
 0001:0004d739       _VirtualAlloc@16           0044e739 f   kernel32:KERNEL32.dll
 0001:0004d73f       _VirtualFree@12            0044e73f f   kernel32:KERNEL32.dll
 0001:0004d745       _WideCharToMultiByte@32    0044e745 f   kernel32:KERNEL32.dll
 0001:0004d74b       _SDL_SetMainReady          0044e74b f   SDL2:SDL2.dll
 0001:0004d751       _SDL_ShowSimpleMessageBox  0044e751 f   SDL2:SDL2.dll
 0001:0004d760       ___vcrt_initialize         0044e760 f   MSVCRTD:ucrt_stubs.obj
 0001:0004d760       ___scrt_stub_for_acrt_initialize 0044e760 f   MSVCRTD:ucrt_stubs.obj
 0001:0004d760       ___acrt_initialize         0044e760 f   MSVCRTD:ucrt_stubs.obj
 0001:0004d770       ___scrt_stub_for_acrt_thread_attach 0044e770 f   MSVCRTD:ucrt_stubs.obj
 0001:0004d770       ___acrt_thread_attach      0044e770 f   MSVCRTD:ucrt_stubs.obj
 0001:0004d770       ___vcrt_thread_attach      0044e770 f   MSVCRTD:ucrt_stubs.obj
 0001:0004d780       ___acrt_thread_detach      0044e780 f   MSVCRTD:ucrt_stubs.obj
 0001:0004d780       ___scrt_stub_for_acrt_thread_detach 0044e780 f   MSVCRTD:ucrt_stubs.obj
 0001:0004d780       ___vcrt_thread_detach      0044e780 f   MSVCRTD:ucrt_stubs.obj
 0001:0004d790       ___acrt_uninitialize       0044e790 f   MSVCRTD:ucrt_stubs.obj
 0001:0004d790       ___scrt_stub_for_acrt_uninitialize 0044e790 f   MSVCRTD:ucrt_stubs.obj
 0001:0004d790       ___vcrt_uninitialize       0044e790 f   MSVCRTD:ucrt_stubs.obj
 0001:0004d7a0       ___acrt_uninitialize_critical 0044e7a0 f   MSVCRTD:ucrt_stubs.obj
 0001:0004d7a0       ___scrt_stub_for_acrt_uninitialize_critical 0044e7a0 f   MSVCRTD:ucrt_stubs.obj
 0001:0004d7a0       ___vcrt_uninitialize_critical 0044e7a0 f   MSVCRTD:ucrt_stubs.obj
 0001:0004d7b0       ___scrt_stub_for_is_c_termination_complete 0044e7b0 f   MSVCRTD:ucrt_stubs.obj
 0001:0004d7b0       __is_c_termination_complete 0044e7b0 f   MSVCRTD:ucrt_stubs.obj
 0001:0004d7c0       __filter_x86_sse2_floating_point_exception_default 0044e7c0 f   MSVCRTD:x86_exception_filter.obj
 0001:0004d7c0       __filter_x86_sse2_floating_point_exception 0044e7c0 f   MSVCRTD:x86_exception_filter.obj
 0002:00000000       ___xc_a                    00457000     MSVCRTD:initializers.obj
 0002:00000410       ___xc_z                    00457410     MSVCRTD:initializers.obj
 0002:00000514       ___xi_a                    00457514     MSVCRTD:initializers.obj
 0002:00000820       ___xi_z                    00457820     MSVCRTD:initializers.obj
 0002:00000924       ___xp_a                    00457924     MSVCRTD:initializers.obj
 0002:00000a28       ___xp_z                    00457a28     MSVCRTD:initializers.obj
 0002:00000b2c       ___xt_a                    00457b2c     MSVCRTD:initializers.obj
 0002:00000c30       ___xt_z                    00457c30     MSVCRTD:initializers.obj
 0002:00002e84       ??_7exception@std@@6B@     00459e84     Configuration.obj
 0002:00002e90       ??_C@_0BC@EOODALEL@Unknown?5exception@ 00459e90     Configuration.obj
 0002:00002eac       ??_7bad_alloc@std@@6B@     00459eac     Configuration.obj
 0002:00002ebc       ??_7bad_array_new_length@std@@6B@ 00459ebc     Configuration.obj
 0002:00002ec8       ??_C@_0BF@KINCDENJ@bad?5array?5new?5length@ 00459ec8     Configuration.obj
 0002:00002ee4       ??_C@_0BB@FCMFBGOM@invalid?5argument@ 00459ee4     Configuration.obj
 0002:00002ef8       ??_C@_02DKCKIIND@?$CFs@    00459ef8     Configuration.obj
 0002:00002f00       ??_C@_0FN@BGOBPCOG@E?3?2Study?2CS?2IDEs?2Visual?5Studio?5@ 00459f00     Configuration.obj
 0002:00002f70       ??_C@_1LK@GLDLOMNI@?$AAE?$AA?3?$AA?2?$AAS?$AAt?$AAu?$AAd?$AAy?$AA?2?$AAC?$AAS?$AA?2?$AAI?$AAD?$AAE@ 00459f70     Configuration.obj
 0002:00003050       ??_C@_1EK@NIFDJFDG@?$AAs?$AAt?$AAd?$AA?3?$AA?3?$AA_?$AAA?$AAd?$AAj?$AAu?$AAs?$AAt?$AA_?$AAm?$AAa@ 0045a050     Configuration.obj
 0002:000030a8       ??_C@_1CG@JNLFBNGN@?$AA?$CC?$AAi?$AAn?$AAv?$AAa?$AAl?$AAi?$AAd?$AA?5?$AAa?$AAr?$AAg?$AAu?$AAm?$AAe@ 0045a0a8     Configuration.obj
 0002:000030d8       ??_C@_0BA@JFNIOLAK@string?5too?5long@ 0045a0d8     Configuration.obj
 0002:00003574       ??_C@_0BJ@LFDBABJJ@ITERATOR?5LIST?5CORRUPTED?$CB@ 0045a574     controller.obj
 0002:00003598       ??_C@_1EE@KLDMFDFL@?$AAs?$AAt?$AAd?$AA?3?$AA?3?$AA_?$AAI?$AAt?$AAe?$AAr?$AAa?$AAt?$AAo?$AAr?$AA_@ 0045a598     controller.obj
 0002:000035ec       ??_C@_1DG@PLBPCAEM@?$AA?$CC?$AAI?$AAT?$AAE?$AAR?$AAA?$AAT?$AAO?$AAR?$AA?5?$AAL?$AAI?$AAS?$AAT?$AA?5@ 0045a5ec     controller.obj
 0002:0000362c       ??_C@_0BB@GCADKGJO@map?1set?5too?5long@ 0045a62c     controller.obj
 0002:00003640       ??_C@_0DC@BNOGMHFL@Error?5creating?5surface?5in?5RawIm@ 0045a640     controller.obj
 0002:00003680       ??_7controller@@6B@        0045a680     controller.obj
 0002:000036c0       ??_C@_0BD@IFIGDDIC@?7?7?$CL?$CL?$CL?5Load?5image?3?5@ 0045a6c0     controller.obj
 0002:000036d8       ??_C@_0DJ@OJEPJEDH@ImageManager?3?3getImagePtrbyURL?$CI@ 0045a6d8     controller.obj
 0002:0000371c       ??_C@_0BJ@LOCNEGOL@Failed?5to?5load?5image?5?$CFs?6@ 0045a71c     controller.obj
 0002:00003740       ??_C@_0FO@IKIEKCOP@E?3?2Study?2CS?2IDEs?2Visual?5Studio?5@ 0045a740     controller.obj
 0002:000037b0       ??_C@_0BP@OLDKBHLM@map?1set?5iterators?5incompatible@ 0045a7b0     controller.obj
 0002:000037d8       ??_C@_0FL@NPGHBJJB@E?3?2Study?2CS?2IDEs?2Visual?5Studio?5@ 0045a7d8     controller.obj
 0002:00003848       ??_C@_1LG@CPLEMCBO@?$AAE?$AA?3?$AA?2?$AAS?$AAt?$AAu?$AAd?$AAy?$AA?2?$AAC?$AAS?$AA?2?$AAI?$AAD?$AAE@ 0045a848     controller.obj
 0002:00003928       ??_C@_1EC@JLIDLCDH@?$AA?$CC?$AAm?$AAa?$AAp?$AA?1?$AAs?$AAe?$AAt?$AA?5?$AAi?$AAt?$AAe?$AAr?$AAa?$AAt@ 0045a928     controller.obj
 0002:00003978       ??_C@_1BPG@KHABJGCD@?$AAs?$AAt?$AAd?$AA?3?$AA?3?$AA_?$AAT?$AAr?$AAe?$AAe?$AA_?$AAc?$AAo?$AAn?$AAs@ 0045a978     controller.obj
 0002:00003bd4       ??_C@_0DG@LCFNIIPB@cannot?5dereference?5value?9initia@ 0045abd4     controller.obj
 0002:00003c18       ??_C@_1BPE@BBFPAJEC@?$AAs?$AAt?$AAd?$AA?3?$AA?3?$AA_?$AAT?$AAr?$AAe?$AAe?$AA_?$AAc?$AAo?$AAn?$AAs@ 0045ac18     controller.obj
 0002:00003e70       ??_C@_1HA@ILGCNILF@?$AA?$CC?$AAc?$AAa?$AAn?$AAn?$AAo?$AAt?$AA?5?$AAd?$AAe?$AAr?$AAe?$AAf?$AAe?$AAr@ 0045ae70     controller.obj
 0002:00003ef8       ??_C@_0CI@OKFEHCEB@cannot?5dereference?5end?5map?1set?5@ 0045aef8     controller.obj
 0002:00003f28       ??_C@_1FE@NKHAAGMB@?$AA?$CC?$AAc?$AAa?$AAn?$AAn?$AAo?$AAt?$AA?5?$AAd?$AAe?$AAr?$AAe?$AAf?$AAe?$AAr@ 0045af28     controller.obj
 0002:00003f90       ??_7?$_Ref_count@VRawImageData@@@std@@6B@ 0045af90     controller.obj
 0002:00003fa4       ??_C@_0DA@GGPHOHEL@map?1set?5erase?5iterator?5from?5inc@ 0045afa4     controller.obj
 0002:00003fe0       ??_C@_1DJG@KIJFPGMB@?$AAs?$AAt?$AAd?$AA?3?$AA?3?$AA_?$AAT?$AAr?$AAe?$AAe?$AA?$DM?$AAc?$AAl?$AAa?$AAs@ 0045afe0     controller.obj
 0002:00004430       ??_C@_1GE@FENJBJJO@?$AA?$CC?$AAm?$AAa?$AAp?$AA?1?$AAs?$AAe?$AAt?$AA?5?$AAe?$AAr?$AAa?$AAs?$AAe?$AA?5@ 0045b430     controller.obj
 0002:000044a8       ??_C@_0CE@JAJNKOFK@cannot?5erase?5map?1set?5end?$CI?$CJ?5iter@ 0045b4a8     controller.obj
 0002:000044d8       ??_C@_1EM@MEAEPHLP@?$AA?$CC?$AAc?$AAa?$AAn?$AAn?$AAo?$AAt?$AA?5?$AAe?$AAr?$AAa?$AAs?$AAe?$AA?5?$AAm@ 0045b4d8     controller.obj
 0002:00004538       ??_C@_1LM@ONJNKHHN@?$AAE?$AA?3?$AA?2?$AAS?$AAt?$AAu?$AAd?$AAy?$AA?2?$AAC?$AAS?$AA?2?$AAI?$AAD?$AAE@ 0045b538     controller.obj
 0002:0000461c       ??_C@_0BD@FEEMDEPI@invalid?5comparator@ 0045b61c     controller.obj
 0002:00004634       ??_C@_1CI@JONCLBEJ@?$AAs?$AAt?$AAd?$AA?3?$AA?3?$AA_?$AAD?$AAe?$AAb?$AAu?$AAg?$AA_?$AAl?$AAt?$AA_@ 0045b634     controller.obj
 0002:00004664       ??_C@_1CK@NDNHPKPI@?$AA?$CC?$AAi?$AAn?$AAv?$AAa?$AAl?$AAi?$AAd?$AA?5?$AAc?$AAo?$AAm?$AAp?$AAa?$AAr@ 0045b664     controller.obj
 0002:00004b24       ??_C@_0CN@GHCLOPHF@Error?5in?5setting?5pixel?9?5should?5@ 0045bb24     DraggingDemo.obj
 0002:00004b60       ??_C@_0JM@GIEKPEHN@WARNING?3?5Attempted?5write?5to?5sur@ 0045bb60     DraggingDemo.obj
 0002:00004c20       ??_7DragableBaseClassObject@@6B@ 0045bc20     DraggingDemo.obj
 0002:00004c78       ??_7DragableObject@@6B@    0045bc78     DraggingDemo.obj
 0002:00004cd0       ??_7ImageObject@@6B@       0045bcd0     DraggingDemo.obj
 0002:00004d14       ??_7DragableImageObject@@6B@ 0045bd14     DraggingDemo.obj
 0002:00004d68       ??_C@_0FM@LKNJHOMC@E?3?2Study?2CS?2IDEs?2Visual?5Studio?5@ 0045bd68     DraggingDemo.obj
 0002:00004dd8       ??_C@_1LI@OFNNNHPG@?$AAE?$AA?3?$AA?2?$AAS?$AAt?$AAu?$AAd?$AAy?$AA?2?$AAC?$AAS?$AA?2?$AAI?$AAD?$AAE@ 0045bdd8     DraggingDemo.obj
 0002:00004eb4       ??_C@_0BO@PFKOHNJC@vector?5subscript?5out?5of?5range@ 0045beb4     DraggingDemo.obj
 0002:00004ed8       ??_C@_1MK@PODALHBD@?$AAs?$AAt?$AAd?$AA?3?$AA?3?$AAv?$AAe?$AAc?$AAt?$AAo?$AAr?$AA?$DM?$AAc?$AAl?$AAa@ 0045bed8     DraggingDemo.obj
 0002:00004fd0       ??_C@_1EA@LEKOKFNB@?$AA?$CC?$AAv?$AAe?$AAc?$AAt?$AAo?$AAr?$AA?5?$AAs?$AAu?$AAb?$AAs?$AAc?$AAr?$AAi@ 0045bfd0     DraggingDemo.obj
 0002:0000501c       ??_C@_0BA@FOIKENOD@vector?5too?5long@ 0045c01c     DraggingDemo.obj
 0002:00005030       ?MY_PI@DrawingSurface@@2NB 0045c030     DrawingSurface.obj
 0002:000054a8       ??_C@_0LN@HOLHFHJI@WARNING?3?5Attempted?5blit?5to?5lock@ 0045c4a8     DrawingSurface.obj
 0002:00005590       __real@3fe0000000000000    0045c590     DrawingSurface.obj
 0002:000055a0       __real@3fe0c152382d7365    0045c5a0     DrawingSurface.obj
 0002:000055b0       __real@3ff0000000000000    0045c5b0     DrawingSurface.obj
 0002:000055c0       __real@3ff8000000000000    0045c5c0     DrawingSurface.obj
 0002:000055d0       __real@3ff921fb54442d18    0045c5d0     DrawingSurface.obj
 0002:000055e0       __real@4000000000000000    0045c5e0     DrawingSurface.obj
 0002:000055f0       __real@4008000000000000    0045c5f0     DrawingSurface.obj
 0002:00005600       __real@400921fb54442d18    0045c600     DrawingSurface.obj
 0002:00005610       __real@400f6a7a2955385e    0045c610     DrawingSurface.obj
 0002:00005620       __real@4010000000000000    0045c620     DrawingSurface.obj
 0002:00005630       __real@401921fb54442d18    0045c630     DrawingSurface.obj
 0002:00005ab0       ??_7FlashingDemo@@6BDisplayableObjectContainer@@@ 0045cab0     FlashingDemo.obj
 0002:00005b5c       ??_7FlashingDemo@@6BFilterPoints@@@ 0045cb5c     FlashingDemo.obj
 0002:00006084       ??_7BouncingObject@@6B@    0045d084     ImageObjectDemo.obj
 0002:000060c8       ??_7BouncingImageObject@@6B@ 0045d0c8     ImageObjectDemo.obj
 0002:00006108       __real@0000000000000000    0045d108     ImageObjectDemo.obj
 0002:00006118       __real@3f747ae147ae147b    0045d118     ImageObjectDemo.obj
 0002:00006128       __real@4004000000000000    0045d128     ImageObjectDemo.obj
 0002:00006140       __xmm@80000000000000008000000000000000 0045d140     ImageObjectDemo.obj
 0002:0000664c       ??_7CoordinateMapping@@6B@ 0045d64c     JigsawDemo.obj
 0002:0000665c       ??_7JigsawPiece@@6BDragableImageObject@@@ 0045d65c     JigsawDemo.obj
 0002:000066b8       ??_7JigsawPiece@@6BCoordinateMapping@@@ 0045d6b8     JigsawDemo.obj
 0002:000066c4       ??_C@_0CA@ONKMLLKE@?$CF05dx?$CF07dy?$CF07dr?$CF02dc?$CF07dr?$CF07d?$AN?6@ 0045d6c4     JigsawDemo.obj
 0002:000066ec       ??_C@_0BI@OPENOKOK@checkJoinBottom?5success@ 0045d6ec     JigsawDemo.obj
 0002:00006708       ??_C@_0BF@IKBLDNLD@checkJoinTop?5success@ 0045d708     JigsawDemo.obj
 0002:00006724       ??_C@_0BH@OIGOFELM@checkJoinRight?5success@ 0045d724     JigsawDemo.obj
 0002:00006740       ??_C@_0BG@NHPDEGHB@checkJoinLeft?5success@ 0045d740     JigsawDemo.obj
 0002:0000675c       ??_C@_0CE@EAMOGAIE@vector?5erase?5iterator?5outside?5r@ 0045d75c     JigsawDemo.obj
 0002:00006788       ??_C@_1LO@PHHLNKEP@?$AAs?$AAt?$AAd?$AA?3?$AA?3?$AAv?$AAe?$AAc?$AAt?$AAo?$AAr?$AA?$DM?$AAc?$AAl?$AAa@ 0045d788     JigsawDemo.obj
 0002:00006870       ??_C@_1EM@BEMPOGMM@?$AA?$CC?$AAv?$AAe?$AAc?$AAt?$AAo?$AAr?$AA?5?$AAe?$AAr?$AAa?$AAs?$AAe?$AA?5?$AAi@ 0045d870     JigsawDemo.obj
 0002:000068cc       ??_C@_0BO@CAOBBIOC@vector?5iterators?5incompatible@ 0045d8cc     JigsawDemo.obj
 0002:000068f0       ??_C@_1OK@EOCJDFAL@?$AAs?$AAt?$AAd?$AA?3?$AA?3?$AA_?$AAV?$AAe?$AAc?$AAt?$AAo?$AAr?$AA_?$AAc?$AAo@ 0045d8f0     JigsawDemo.obj
 0002:00006a08       ??_C@_1EA@DJDGNIII@?$AA?$CC?$AAv?$AAe?$AAc?$AAt?$AAo?$AAr?$AA?5?$AAi?$AAt?$AAe?$AAr?$AAa?$AAt?$AAo@ 0045da08     JigsawDemo.obj
 0002:00006a54       ??_C@_1CG@LJCPDKEJ@?$AAs?$AAt?$AAd?$AA?3?$AA?3?$AA_?$AAV?$AAe?$AAr?$AAi?$AAf?$AAy?$AA_?$AAr?$AAa@ 0045da54     JigsawDemo.obj
 0002:00006a88       ??_7?$_Func_impl_no_alloc@V<lambda_2870de01b601283699da779de20905fc>@@XPAVDisplayableObject@@@std@@6B@ 0045da88     JigsawDemo.obj
 0002:00006aac       ??_7?$_Func_impl_no_alloc@V<lambda_4d3c514b9e5ad6cc29096aa3b57f98f2>@@XPAVDisplayableObject@@@std@@6B@ 0045daac     JigsawDemo.obj
 0002:00006ad0       ??_7?$_Func_impl_no_alloc@V<lambda_369f3aee610e50bbd15c3a78d9c8686f>@@XPAVDisplayableObject@@@std@@6B@ 0045dad0     JigsawDemo.obj
 0002:00006af4       ??_7?$_Func_impl_no_alloc@V<lambda_817584b2460f1bcab806f46a25c321a8>@@XPAVDisplayableObject@@@std@@6B@ 0045daf4     JigsawDemo.obj
 0002:00006b18       ??_7?$_Func_impl_no_alloc@V<lambda_341a6657abb2758c42a6873833e6116f>@@XPAVDisplayableObject@@@std@@6B@ 0045db18     JigsawDemo.obj
 0002:00006ba4       ??_C@_0DI@PBEELKIF@vector?5iterators?5in?5range?5are?5f@ 0045dba4     JigsawDemo.obj
 0002:00006be8       ??_C@_1HE@KBMFDAFB@?$AA?$CC?$AAv?$AAe?$AAc?$AAt?$AAo?$AAr?$AA?5?$AAi?$AAt?$AAe?$AAr?$AAa?$AAt?$AAo@ 0045dbe8     JigsawDemo.obj
 0002:00006c74       ??_C@_0CB@LIAHLBAO@vector?5iterator?5range?5transpose@ 0045dc74     JigsawDemo.obj
 0002:00006ca0       ??_C@_1EG@ODKBEHFN@?$AA?$CC?$AAv?$AAe?$AAc?$AAt?$AAo?$AAr?$AA?5?$AAi?$AAt?$AAe?$AAr?$AAa?$AAt?$AAo@ 0045dca0     JigsawDemo.obj
 0002:00006cf8       __real@4051800000000000    0045dcf8     JigsawDemo.obj
 0002:00007178       ??_C@_1KK@EPMNOLOP@?$AAs?$AAt?$AAd?$AA?3?$AA?3?$AAv?$AAe?$AAc?$AAt?$AAo?$AAr?$AA?$DM?$AAc?$AAl?$AAa@ 0045e178     luckyDraw.obj
 0002:00007710       ??_7FilterPoints@@6B@      0045e710     mainfunction.obj
 0002:0000772c       ??_7TileManager@@6B@       0045e72c     mainfunction.obj
 0002:0000773c       ??_7FilterPointsScaling@@6B@ 0045e73c     mainfunction.obj
 0002:00007758       ??_7FilterPointsTranslation@@6B@ 0045e758     mainfunction.obj
 0002:00007774       ??_7CoordinateMappingShiftXY@@6B@ 0045e774     mainfunction.obj
 0002:00007784       ??_7CoordinateMappingRotate@@6B@ 0045e784     mainfunction.obj
 0002:00007794       ??_7State@@6B@             0045e794     mainfunction.obj
 0002:000077ec       ??_7State_gaming@@6B@      0045e7ec     mainfunction.obj
 0002:00007840       ??_C@_06KAFDJOCK@gaming@   0045e840     mainfunction.obj
 0002:00007848       ??_C@_03OHDNLOHO@one@      0045e848     mainfunction.obj
 0002:0000784c       ??_C@_06PCKCAPGA@backup@   0045e84c     mainfunction.obj
 0002:00007854       ??_C@_02JDPG@rb@           0045e854     mainfunction.obj
 0002:00007858       ??_C@_0BG@PJJHHIMN@?4?1sounds?1bmboledg?4wav@ 0045e858     mainfunction.obj
 0002:00007874       ??_C@_0BF@HMACJHEC@?4?1sounds?1HH?5open?4wav@ 0045e874     mainfunction.obj
 0002:00007890       ??_C@_0BM@EFKAJOCC@?4?1sounds?1PlasticTray_PS?4wav@ 0045e890     mainfunction.obj
 0002:000078b4       ??_C@_0CI@LFCAGIIF@?4?1sounds?1Side?5Stick_Kalavrezos_@ 0045e8b4     mainfunction.obj
 0002:000078e8       ??_7State_function@@6B@    0045e8e8     mainfunction.obj
 0002:00007940       ??_7State_start@@6B@       0045e940     mainfunction.obj
 0002:00007998       ??_7State_animation@@6B@   0045e998     mainfunction.obj
 0002:000079f0       ??_7luckyDraw@@6B@         0045e9f0     mainfunction.obj
 0002:000079fc       ??_C@_0P@GDEMFCML@?4?1images?1e?4png@ 0045e9fc     mainfunction.obj
 0002:00007a10       ??_C@_0P@HOEJGCHD@?4?1images?1b?4png@ 0045ea10     mainfunction.obj
 0002:00007a24       ??_C@_0P@PINNBANN@?4?1images?1a?4png@ 0045ea24     mainfunction.obj
 0002:00007a38       ??_C@_0P@LFBFLBNG@?4?1images?1c?4png@ 0045ea38     mainfunction.obj
 0002:00007a4c       ??_C@_0P@KIBAIBGO@?4?1images?1d?4png@ 0045ea4c     mainfunction.obj
 0002:00007a60       ??_C@_0BG@CJDIJPLF@?4?1images?1b_cherry?4png@ 0045ea60     mainfunction.obj
 0002:00007a7c       ??_C@_0BF@PFKHBPHK@?4?1images?1b_lemon?4png@ 0045ea7c     mainfunction.obj
 0002:00007a98       ??_C@_0BK@FNECPDFB@?4?1images?1b_watermelon?4png@ 0045ea98     mainfunction.obj
 0002:00007ab8       ??_C@_0BE@OJGPJEFM@?4?1images?1b_kiwi?4png@ 0045eab8     mainfunction.obj
 0002:00007ad4       ??_7State_end@@6B@         0045ead4     mainfunction.obj
 0002:00007b2c       ??_7State_pause@@6B@       0045eb2c     mainfunction.obj
 0002:00007b84       ??_7State_name@@6B@        0045eb84     mainfunction.obj
 0002:00007bdc       ??_7State_rank@@6B@        0045ebdc     mainfunction.obj
 0002:00007c34       ??_7Scyyc1Engine@@6BDisplayableObjectContainer@@@ 0045ec34     mainfunction.obj
 0002:00007ce0       ??_7Scyyc1Engine@@6BFilterPoints@@@ 0045ece0     mainfunction.obj
 0002:00007cfc       ??_7Scyyc1Engine@@6B@      0045ecfc     mainfunction.obj
 0002:00007d08       ??_C@_09KCBFNMAJ@animation@ 0045ed08     mainfunction.obj
 0002:00007d14       ??_C@_05FAGFPHJG@start@    0045ed14     mainfunction.obj
 0002:00007d1c       ??_C@_07LMGIAFPG@oldgame@  0045ed1c     mainfunction.obj
 0002:00007d28       ??_C@_03JBJLGPFL@end@      0045ed28     mainfunction.obj
 0002:00007d2c       ??_C@_05PDJBBECF@pause@    0045ed2c     mainfunction.obj
 0002:00007d34       ??_C@_04MEMAJGDJ@name@     0045ed34     mainfunction.obj
 0002:00007d3c       ??_C@_04PNBFHPGN@rank@     0045ed3c     mainfunction.obj
 0002:00007d48       ??_C@_1JK@CLACACDB@?$AAs?$AAt?$AAd?$AA?3?$AA?3?$AAv?$AAe?$AAc?$AAt?$AAo?$AAr?$AA?$DM?$AAc?$AAl?$AAa@ 0045ed48     mainfunction.obj
 0002:00007e00       ??_C@_1JO@NDCGPBPH@?$AAs?$AAt?$AAd?$AA?3?$AA?3?$AAv?$AAe?$AAc?$AAt?$AAo?$AAr?$AA?$DM?$AAc?$AAl?$AAa@ 0045ee00     mainfunction.obj
 0002:00007ec0       ??_C@_1BPA@MHLHGHIM@?$AAs?$AAt?$AAd?$AA?3?$AA?3?$AAv?$AAe?$AAc?$AAt?$AAo?$AAr?$AA?$DM?$AAc?$AAl?$AAa@ 0045eec0     mainfunction.obj
 0002:00008114       ??_C@_0BH@EDKEEENI@deque?5empty?5before?5pop@ 0045f114     mainfunction.obj
 0002:00008130       ??_C@_0FL@PIGAGJNN@E?3?2Study?2CS?2IDEs?2Visual?5Studio?5@ 0045f130     mainfunction.obj
 0002:000081a0       ??_C@_1LG@GDJDINMN@?$AAE?$AA?3?$AA?2?$AAS?$AAt?$AAu?$AAd?$AAy?$AA?2?$AAC?$AAS?$AA?2?$AAI?$AAD?$AAE@ 0045f1a0     mainfunction.obj
 0002:00008280       ??_C@_1IO@NCCIKLB@?$AAs?$AAt?$AAd?$AA?3?$AA?3?$AAd?$AAe?$AAq?$AAu?$AAe?$AA?$DM?$AAc?$AAl?$AAa?$AAs@ 0045f280     mainfunction.obj
 0002:0000832c       ??_C@_1DC@NJAACHCD@?$AA?$CC?$AAd?$AAe?$AAq?$AAu?$AAe?$AA?5?$AAe?$AAm?$AAp?$AAt?$AAy?$AA?5?$AAb?$AAe@ 0045f32c     mainfunction.obj
 0002:00008368       ??_C@_0BC@KBDMBKEH@deque?$DMT?$DO?5too?5long@ 0045f368     mainfunction.obj
 0002:00008380       ??_C@_0BJ@HAJGEHKO@transposed?5pointer?5range@ 0045f380     mainfunction.obj
 0002:000083a0       ??_C@_1DG@FJIKMGFD@?$AA?$CC?$AAt?$AAr?$AAa?$AAn?$AAs?$AAp?$AAo?$AAs?$AAe?$AAd?$AA?5?$AAp?$AAo?$AAi@ 0045f3a0     mainfunction.obj
 0002:000083e0       __real@3f1a36e2eb1c432d    0045f3e0     mainfunction.obj
 0002:000088b8       ??_7DisplayableObjectContainer@@6B@ 0045f8b8     BaseEngine.obj
 0002:000088c8       ??_7BaseEngine@@6BDisplayableObjectContainer@@@ 0045f8c8     BaseEngine.obj
 0002:00008974       ??_7BaseEngine@@6BFilterPoints@@@ 0045f974     BaseEngine.obj
 0002:0000898c       ??_C@_0DE@CHADHGFF@can?8t?5dereference?5value?9initial@ 0045f98c     BaseEngine.obj
 0002:000089d0       ??_C@_1PA@DMJFJEGO@?$AAs?$AAt?$AAd?$AA?3?$AA?3?$AA_?$AAV?$AAe?$AAc?$AAt?$AAo?$AAr?$AA_?$AAc?$AAo@ 0045f9d0     BaseEngine.obj
 0002:00008af0       ??_C@_1GM@FNBFNBEL@?$AA?$CC?$AAc?$AAa?$AAn?$AA?8?$AAt?$AA?5?$AAd?$AAe?$AAr?$AAe?$AAf?$AAe?$AAr?$AAe@ 0045faf0     BaseEngine.obj
 0002:00008b74       ??_C@_0CP@MDHADBHN@can?8t?5dereference?5out?5of?5range?5@ 0045fb74     BaseEngine.obj
 0002:00008bb0       ??_C@_1GC@JDCKOLAC@?$AA?$CC?$AAc?$AAa?$AAn?$AA?8?$AAt?$AA?5?$AAd?$AAe?$AAr?$AAe?$AAf?$AAe?$AAr?$AAe@ 0045fbb0     BaseEngine.obj
 0002:00008c28       ??_C@_0DC@KEKNBAEB@can?8t?5increment?5value?9initializ@ 0045fc28     BaseEngine.obj
 0002:00008c68       ??_C@_1PC@LAHDNGHL@?$AAs?$AAt?$AAd?$AA?3?$AA?3?$AA_?$AAV?$AAe?$AAc?$AAt?$AAo?$AAr?$AA_?$AAc?$AAo@ 0045fc68     BaseEngine.obj
 0002:00008d90       ??_C@_1GI@EDCILPL@?$AA?$CC?$AAc?$AAa?$AAn?$AA?8?$AAt?$AA?5?$AAi?$AAn?$AAc?$AAr?$AAe?$AAm?$AAe?$AAn@ 0045fd90     BaseEngine.obj
 0002:00008e0c       ??_C@_0CJ@OAAAAGPM@can?8t?5increment?5vector?5iterator@ 0045fe0c     BaseEngine.obj
 0002:00008e40       ??_C@_1FG@LDPPKMGP@?$AA?$CC?$AAc?$AAa?$AAn?$AA?8?$AAt?$AA?5?$AAi?$AAn?$AAc?$AAr?$AAe?$AAm?$AAe?$AAn@ 0045fe40     BaseEngine.obj
 0002:00009318       ??_7DisplayableObject@@6B@ 00460318     DisplayableObject.obj
 0002:00009610       ??_C@_0BI@GMOFELCF@Free?5font?3?5?$CFd?5point?5?$CFs?6@ 00460610     FontManager.obj
 0002:00009ae8       ??_7MappableImageObject@@6B@ 00460ae8     ImageMappingDemo.obj
 0002:00009b40       __real@4059000000000000    00460b40     ImageMappingDemo.obj
 0002:00009b50       __real@c059000000000000    00460b50     ImageMappingDemo.obj
 0002:00009fd0       ??_7DoubleNote@@6B@        00460fd0     DoubleNote.obj
 0002:0000a498       ??_7LongNote@@6B@          00461498     LongNote.obj
 0002:0000a9ac       ??_7note@@6B@              004619ac     note.obj
 0002:0000ae70       ??_7SingleNote@@6B@        00461e70     SingleNote.obj
 0002:0000b18c       ??_C@_0BG@HGEDEDEC@invalid?5stoi?5argument@ 0046218c     Ranking.obj
 0002:0000b1a8       ??_C@_0BL@MFFNMGGC@stoi?5argument?5out?5of?5range@ 004621a8     Ranking.obj
 0002:0000b1cc       ??_7bad_cast@std@@6B@      004621cc     Ranking.obj
 0002:0000b1d8       ??_C@_08EPJLHIJG@bad?5cast@ 004621d8     Ranking.obj
 0002:0000b1e8       ??_7?$basic_filebuf@DU?$char_traits@D@std@@@std@@6B@ 004621e8     Ranking.obj
 0002:0000b234       ??_7?$basic_ofstream@DU?$char_traits@D@std@@@std@@6B@ 00462234     Ranking.obj
 0002:0000b23c       ??_8?$basic_ofstream@DU?$char_traits@D@std@@@std@@7B@ 0046223c     Ranking.obj
 0002:0000b24c       ??_7?$basic_ifstream@DU?$char_traits@D@std@@@std@@6B@ 0046224c     Ranking.obj
 0002:0000b254       ??_8?$basic_ifstream@DU?$char_traits@D@std@@@std@@7B@ 00462254     Ranking.obj
 0002:0000b260       ??_C@_1HC@HBCEAHKD@?$AAs?$AAt?$AAd?$AA?3?$AA?3?$AAv?$AAe?$AAc?$AAt?$AAo?$AAr?$AA?$DM?$AAi?$AAn?$AAt@ 00462260     Ranking.obj
 0002:0000b2e8       ??_C@_1BME@NCIPHHDN@?$AAs?$AAt?$AAd?$AA?3?$AA?3?$AAv?$AAe?$AAc?$AAt?$AAo?$AAr?$AA?$DM?$AAc?$AAl?$AAa@ 004622e8     Ranking.obj
 0002:0000b508       ??_C@_0FN@OPCMPOAP@E?3?2Study?2CS?2IDEs?2Visual?5Studio?5@ 00462508     Ranking.obj
 0002:0000b578       ??_C@_1LK@IFLHBFAJ@?$AAE?$AA?3?$AA?2?$AAS?$AAt?$AAu?$AAd?$AAy?$AA?2?$AAC?$AAS?$AA?2?$AAI?$AAD?$AAE@ 00462578     Ranking.obj
 0002:0000b658       ??_C@_0BP@PFIPNLNI@front?$CI?$CJ?5called?5on?5empty?5string@ 00462658     Ranking.obj
 0002:0000b680       ??_C@_1LC@BJDDPGPA@?$AAs?$AAt?$AAd?$AA?3?$AA?3?$AAb?$AAa?$AAs?$AAi?$AAc?$AA_?$AAs?$AAt?$AAr?$AAi@ 00462680     Ranking.obj
 0002:0000b758       ??_C@_1EC@DINNLDHA@?$AA?$CC?$AAf?$AAr?$AAo?$AAn?$AAt?$AA?$CI?$AA?$CJ?$AA?5?$AAc?$AAa?$AAl?$AAl?$AAe?$AAd@ 00462758     Ranking.obj
 0002:0000b7a8       ??_C@_0BI@CFPLBAOH@invalid?5string?5position@ 004627a8     Ranking.obj
 0002:0000bc58       ??_7Button@@6B@            00462c58     State_pause.obj
 0002:0000bc9c       ??_7Button_exit@@6B@       00462c9c     State_pause.obj
 0002:0000bce0       ??_7Button_load@@6B@       00462ce0     State_pause.obj
 0002:0000cb10       ??_7lifeManager@@6B@       00463b10     lifeManager.obj
 0002:0000cf90       ??_7Scyyc1TileManager@@6B@ 00463f90     Scyyc1TileManager.obj
 0002:0000cfa0       ??_7CroppedCoordinateMapping@@6B@ 00463fa0     SimpleImage.obj
 0002:0000d8bc       ??_7JasonsDemoA@@6BDisplayableObjectContainer@@@ 004648bc     JasonsDemoA.obj
 0002:0000d968       ??_7JasonsDemoA@@6BFilterPoints@@@ 00464968     JasonsDemoA.obj
 0002:0000ddf0       ??_7JasonsObjectA@@6B@     00464df0     JasonsObjectA.obj
 0002:0000e2a0       ??_7JasonsTileManager@@6B@ 004652a0     JasonsTileManager.obj
 0002:0000e794       ??_7DragableTokenContainer@@6BDragableBaseClassObject@@@ 00465794     PlayingCardsDemo.obj
 0002:0000e7f0       ??_7DragableTokenContainer@@6BDisplayableObjectContainer@@@ 004657f0     PlayingCardsDemo.obj
 0002:0000e7fc       ??_C@_0BI@NHFDFHOB@Cornerstone?5Regular?4ttf@ 004657fc     PlayingCardsDemo.obj
 0002:0000e818       ??_C@_05JLAFMLMB@Token@    00465818     PlayingCardsDemo.obj
 0002:0000e820       ??_C@_05FKOOCFCH@Cntnr@    00465820     PlayingCardsDemo.obj
 0002:0000e82c       ??_7DragableToken@@6B@     0046582c     PlayingCardsDemo.obj
 0002:0000e874       ??_7TokenTray@@6BDragableBaseClassObject@@@ 00465874     PlayingCardsDemo.obj
 0002:0000e8d0       ??_7TokenTray@@6BDisplayableObjectContainer@@@ 004658d0     PlayingCardsDemo.obj
 0002:0000e8dc       ??_C@_06OIOKNNNI@Tokens@   004658dc     PlayingCardsDemo.obj
 0002:0000e8e8       ??_7CardContainer@@6BDragableBaseClassObject@@@ 004658e8     PlayingCardsDemo.obj
 0002:0000e944       ??_7CardContainer@@6BDisplayableObjectContainer@@@ 00465944     PlayingCardsDemo.obj
 0002:0000e950       ??_C@_07PDLKMNNH@Shuffle@  00465950     PlayingCardsDemo.obj
 0002:0000e95c       ??_C@_04HMPDNAFK@Draw@     0046595c     PlayingCardsDemo.obj
 0002:0000e964       ??_C@_07KLFFMLGM@DISCARD@  00465964     PlayingCardsDemo.obj
 0002:0000e970       ??_C@_04FJDFPLDD@DECK@     00465970     PlayingCardsDemo.obj
 0002:0000e97c       ??_7CoordinateMappingRotateAndColour@@6B@ 0046597c     PlayingCardsDemo.obj
 0002:0000e990       ??_7CardOrTile@@6BDragableBaseClassObject@@@ 00465990     PlayingCardsDemo.obj
 0002:0000e9ec       ??_7CardOrTile@@6BDisplayableObjectContainer@@@ 004659ec     PlayingCardsDemo.obj
 0002:0000e9f8       ??_C@_04IPBPFFEL@Load@     004659f8     PlayingCardsDemo.obj
 0002:0000ea00       ??_C@_06CMLPEGNC@Failed@   00465a00     PlayingCardsDemo.obj
 0002:0000ea08       __real@406fe00000000000    00465a08     PlayingCardsDemo.obj
 0002:0000f7d8       ??_7speedController@@6B@   004667d8     speedController.obj
 0002:0000fc88       ??_7StarfieldDemo@@6BDisplayableObjectContainer@@@ 00466c88     StarfieldDemo.obj
 0002:0000fd34       ??_7StarfieldDemo@@6BFilterPoints@@@ 00466d34     StarfieldDemo.obj
 0002:00010d78       ??_C@_1KO@HFCGHINH@?$AAs?$AAt?$AAd?$AA?3?$AA?3?$AAv?$AAe?$AAc?$AAt?$AAo?$AAr?$AA?$DM?$AAs?$AAt?$AAr@ 00467d78     State_gaming.obj
 0002:00010e48       ??_C@_1KO@MKNJHHNM@?$AAs?$AAt?$AAd?$AA?3?$AA?3?$AAv?$AAe?$AAc?$AAt?$AAo?$AAr?$AA?$DM?$AAc?$AAl?$AAa@ 00467e48     State_gaming.obj
 0002:00010f18       ??_C@_1JG@LFNLLDPO@?$AAs?$AAt?$AAd?$AA?3?$AA?3?$AAv?$AAe?$AAc?$AAt?$AAo?$AAr?$AA?$DM?$AAc?$AAl?$AAa@ 00467f18     State_gaming.obj
 0002:00010fd0       ??_C@_1JA@NMBDEKEG@?$AAs?$AAt?$AAd?$AA?3?$AA?3?$AAd?$AAe?$AAq?$AAu?$AAe?$AA?$DM?$AAc?$AAl?$AAa?$AAs@ 00467fd0     State_gaming.obj
 0002:0001107c       ??_C@_0BO@PEOHNLIM@front?$CI?$CJ?5called?5on?5empty?5deque@ 0046807c     State_gaming.obj
 0002:000110a0       ??_C@_1II@DBHPFBAO@?$AAs?$AAt?$AAd?$AA?3?$AA?3?$AAd?$AAe?$AAq?$AAu?$AAe?$AA?$DM?$AAc?$AAl?$AAa?$AAs@ 004680a0     State_gaming.obj
 0002:00011148       ??_C@_1EA@EELNAHHD@?$AA?$CC?$AAf?$AAr?$AAo?$AAn?$AAt?$AA?$CI?$AA?$CJ?$AA?5?$AAc?$AAa?$AAl?$AAl?$AAe?$AAd@ 00468148     State_gaming.obj
 0002:00011198       __real@4044000000000000    00468198     State_gaming.obj
 0002:00011ab0       ??_7Button_start@@6B@      00468ab0     State_start.obj
 0002:00011af4       ??_7Button_rank@@6B@       00468af4     State_start.obj
 0002:00012028       ??_7Button_back@@6B@       00469028     State_end.obj
 0002:0001206c       ??_7Button_stop@@6B@       0046906c     State_end.obj
 0002:00012a4c       ??_C@_0CB@EJBNKHHC@invalid?5to?5pop_back?5empty?5strin@ 00469a4c     State_name.obj
 0002:00012a78       ??_C@_1LI@HCBEBID@?$AAs?$AAt?$AAd?$AA?3?$AA?3?$AAb?$AAa?$AAs?$AAi?$AAc?$AA_?$AAs?$AAt?$AAr?$AAi@ 00469a78     State_name.obj
 0002:00012b58       ??_C@_1EG@GNALHNOG@?$AA?$CC?$AAi?$AAn?$AAv?$AAa?$AAl?$AAi?$AAd?$AA?5?$AAt?$AAo?$AA?5?$AAp?$AAo?$AAp@ 00469b58     State_name.obj
 0002:00013998       ??_7BouncingBall@@6B@      0046a998     BouncingBall.obj
 0002:000139dc       ??_7BouncingBall1@@6B@     0046a9dc     BouncingBall.obj
 0002:00013a20       ??_7BouncingBall2@@6B@     0046aa20     BouncingBall.obj
 0002:00013a60       __real@3f847ae147ae147b    0046aa60     BouncingBall.obj
 0002:00013f29       ??_C@_00CNPNBAHC@@         0046af29     BouncingBallMain.obj
 0002:00013f2c       ??_C@_01IPJKGB@?$CD@       0046af2c     BouncingBallMain.obj
 0002:00013f30       ??_C@_02KLCDNAMD@?$CDS@    0046af30     BouncingBallMain.obj
 0002:00013f34       ??_C@_02LCDIOBIC@?$CDR@    0046af34     BouncingBallMain.obj
 0002:00013f38       __real@3fe999999999999a    0046af38     BouncingBallMain.obj
 0002:00013f48       __real@3ff199999999999a    0046af48     BouncingBallMain.obj
 0002:00013f58       __real@3ff3333333333333    0046af58     BouncingBallMain.obj
 0002:00013f68       __real@4049000000000000    0046af68     BouncingBallMain.obj
 0002:00013f78       __real@4062c00000000000    0046af78     BouncingBallMain.obj
 0002:00013f88       __real@4066800000000000    0046af88     BouncingBallMain.obj
 0002:00013f98       __real@4069000000000000    0046af98     BouncingBallMain.obj
 0002:00013fa8       __real@406f400000000000    0046afa8     BouncingBallMain.obj
 0002:00013fb8       __real@4071300000000000    0046afb8     BouncingBallMain.obj
 0002:00013fc8       __real@4072c00000000000    0046afc8     BouncingBallMain.obj
 0002:00013fd8       __real@4074500000000000    0046afd8     BouncingBallMain.obj
 0002:00013fe8       __real@4075e00000000000    0046afe8     BouncingBallMain.obj
 0002:00013ff8       __real@4077700000000000    0046aff8     BouncingBallMain.obj
 0002:00014008       __real@4079000000000000    0046b008     BouncingBallMain.obj
 0002:00014018       __real@4079a00000000000    0046b018     BouncingBallMain.obj
 0002:00014028       __real@407c200000000000    0046b028     BouncingBallMain.obj
 0002:00014038       __real@407f400000000000    0046b038     BouncingBallMain.obj
 0002:00014048       __real@4081300000000000    0046b048     BouncingBallMain.obj
 0002:00014058       __real@4082c00000000000    0046b058     BouncingBallMain.obj
 0002:00014068       __real@4084500000000000    0046b068     BouncingBallMain.obj
 0002:00014078       __real@4087700000000000    0046b078     BouncingBallMain.obj
 0002:00014598       ??_7SimpleFlashingDragableImageObject@@6B@ 0046b598     ZoomingDemo.obj
 0002:00014b78       ??_7MazeDemoTileManager@@6B@ 0046bb78     MazeDemoMain.obj
 0002:00014b88       ??_7MazeDemoMain@@6BDisplayableObjectContainer@@@ 0046bb88     MazeDemoMain.obj
 0002:00014c34       ??_7MazeDemoMain@@6BFilterPoints@@@ 0046bc34     MazeDemoMain.obj
 0002:000150c0       ??_7MazeDemoObject@@6B@    0046c0c0     MazeDemoObject.obj
 0002:0001556c       ??_C@_0DO@NMAMPKB@d?3?2agent?2_work?24?2s?2src?2vctools?2@ 0046c56c     msvcprtd:locale0_implib.obj
 0002:000155bc       ??_7type_info@@6B@         0046c5bc     MSVCRTD:std_type_info_static.obj
 0002:000155d0       ??_C@_0P@GHFPNOJB@bad?5allocation@ 0046c5d0     MSVCRTD:throw_bad_alloc.obj
 0002:000155e4       ??_C@_0BJ@HFNMHALN@Out?5of?5memory?5?9?5aborting@ 0046c5e4     SDL2main:SDL_windows_main.obj
 0002:00015604       ??_C@_0M@HFFOIJBL@Fatal?5Error@ 0046c604     SDL2main:SDL_windows_main.obj
 0002:00015650       __load_config_used         0046c650     MSVCRTD:loadcfg.obj
 0002:00015988       ??_R4exception@std@@6B@    0046c988     Configuration.obj
 0002:000159a0       ??_R3exception@std@@8      0046c9a0     Configuration.obj
 0002:000159b4       ??_R2exception@std@@8      0046c9b4     Configuration.obj
 0002:000159bc       ??_R1A@?0A@EA@exception@std@@8 0046c9bc     Configuration.obj
 0002:000159e0       ??_R4bad_alloc@std@@6B@    0046c9e0     Configuration.obj
 0002:000159f8       ??_R3bad_alloc@std@@8      0046c9f8     Configuration.obj
 0002:00015a0c       ??_R2bad_alloc@std@@8      0046ca0c     Configuration.obj
 0002:00015a18       ??_R1A@?0A@EA@bad_alloc@std@@8 0046ca18     Configuration.obj
 0002:00015a3c       ??_R4bad_array_new_length@std@@6B@ 0046ca3c     Configuration.obj
 0002:00015a54       ??_R3bad_array_new_length@std@@8 0046ca54     Configuration.obj
 0002:00015a68       ??_R2bad_array_new_length@std@@8 0046ca68     Configuration.obj
 0002:00015a78       ??_R1A@?0A@EA@bad_array_new_length@std@@8 0046ca78     Configuration.obj
 0002:00015a9c       ??_R3_Ref_count_base@std@@8 0046ca9c     controller.obj
 0002:00015ab0       ??_R2_Ref_count_base@std@@8 0046cab0     controller.obj
 0002:00015ab8       ??_R1A@?0A@EA@_Ref_count_base@std@@8 0046cab8     controller.obj
 0002:00015adc       ??_R4controller@@6B@       0046cadc     controller.obj
 0002:00015af4       ??_R3controller@@8         0046caf4     controller.obj
 0002:00015b08       ??_R2controller@@8         0046cb08     controller.obj
 0002:00015b14       ??_R1A@?0A@EA@controller@@8 0046cb14     controller.obj
 0002:00015b38       ??_R1A@?0A@EA@DisplayableObject@@8 0046cb38     controller.obj
 0002:00015b5c       ??_R3DisplayableObject@@8  0046cb5c     controller.obj
 0002:00015b70       ??_R2DisplayableObject@@8  0046cb70     controller.obj
 0002:00015b78       ??_R4?$_Ref_count@VRawImageData@@@std@@6B@ 0046cb78     controller.obj
 0002:00015b90       ??_R3?$_Ref_count@VRawImageData@@@std@@8 0046cb90     controller.obj
 0002:00015ba4       ??_R2?$_Ref_count@VRawImageData@@@std@@8 0046cba4     controller.obj
 0002:00015bb0       ??_R1A@?0A@EA@?$_Ref_count@VRawImageData@@@std@@8 0046cbb0     controller.obj
 0002:00015bd4       ??_R4DragableBaseClassObject@@6B@ 0046cbd4     DraggingDemo.obj
 0002:00015bec       ??_R3DragableBaseClassObject@@8 0046cbec     DraggingDemo.obj
 0002:00015c00       ??_R2DragableBaseClassObject@@8 0046cc00     DraggingDemo.obj
 0002:00015c0c       ??_R1A@?0A@EA@DragableBaseClassObject@@8 0046cc0c     DraggingDemo.obj
 0002:00015c30       ??_R4DragableObject@@6B@   0046cc30     DraggingDemo.obj
 0002:00015c48       ??_R3DragableObject@@8     0046cc48     DraggingDemo.obj
 0002:00015c5c       ??_R2DragableObject@@8     0046cc5c     DraggingDemo.obj
 0002:00015c6c       ??_R1A@?0A@EA@DragableObject@@8 0046cc6c     DraggingDemo.obj
 0002:00015c90       ??_R4ImageObject@@6B@      0046cc90     DraggingDemo.obj
 0002:00015ca8       ??_R3ImageObject@@8        0046cca8     DraggingDemo.obj
 0002:00015cbc       ??_R2ImageObject@@8        0046ccbc     DraggingDemo.obj
 0002:00015cc8       ??_R1A@?0A@EA@ImageObject@@8 0046ccc8     DraggingDemo.obj
 0002:00015cec       ??_R4DragableImageObject@@6B@ 0046ccec     DraggingDemo.obj
 0002:00015d04       ??_R3DragableImageObject@@8 0046cd04     DraggingDemo.obj
 0002:00015d18       ??_R2DragableImageObject@@8 0046cd18     DraggingDemo.obj
 0002:00015d28       ??_R1A@?0A@EA@DragableImageObject@@8 0046cd28     DraggingDemo.obj
 0002:00015d4c       ??_R3DisplayableObjectContainer@@8 0046cd4c     FlashingDemo.obj
 0002:00015d60       ??_R2DisplayableObjectContainer@@8 0046cd60     FlashingDemo.obj
 0002:00015d68       ??_R1A@?0A@EA@DisplayableObjectContainer@@8 0046cd68     FlashingDemo.obj
 0002:00015d8c       ??_R4FlashingDemo@@6BDisplayableObjectContainer@@@ 0046cd8c     FlashingDemo.obj
 0002:00015da4       ??_R3FlashingDemo@@8       0046cda4     FlashingDemo.obj
 0002:00015db8       ??_R2FlashingDemo@@8       0046cdb8     FlashingDemo.obj
 0002:00015dcc       ??_R1A@?0A@EA@FlashingDemo@@8 0046cdcc     FlashingDemo.obj
 0002:00015df0       ??_R1A@?0A@EA@BaseEngine@@8 0046cdf0     FlashingDemo.obj
 0002:00015e14       ??_R3BaseEngine@@8         0046ce14     FlashingDemo.obj
 0002:00015e28       ??_R2BaseEngine@@8         0046ce28     FlashingDemo.obj
 0002:00015e38       ??_R1BM@?0A@EA@FilterPoints@@8 0046ce38     FlashingDemo.obj
 0002:00015e5c       ??_R3FilterPoints@@8       0046ce5c     FlashingDemo.obj
 0002:00015e70       ??_R2FilterPoints@@8       0046ce70     FlashingDemo.obj
 0002:00015e78       ??_R1A@?0A@EA@FilterPoints@@8 0046ce78     FlashingDemo.obj
 0002:00015e9c       ??_R4FlashingDemo@@6BFilterPoints@@@ 0046ce9c     FlashingDemo.obj
 0002:00015eb4       ??_R4BouncingObject@@6B@   0046ceb4     ImageObjectDemo.obj
 0002:00015ecc       ??_R3BouncingObject@@8     0046cecc     ImageObjectDemo.obj
 0002:00015ee0       ??_R2BouncingObject@@8     0046cee0     ImageObjectDemo.obj
 0002:00015eec       ??_R1A@?0A@EA@BouncingObject@@8 0046ceec     ImageObjectDemo.obj
 0002:00015f10       ??_R4BouncingImageObject@@6B@ 0046cf10     ImageObjectDemo.obj
 0002:00015f28       ??_R3BouncingImageObject@@8 0046cf28     ImageObjectDemo.obj
 0002:00015f3c       ??_R2BouncingImageObject@@8 0046cf3c     ImageObjectDemo.obj
 0002:00015f4c       ??_R1A@?0A@EA@BouncingImageObject@@8 0046cf4c     ImageObjectDemo.obj
 0002:00015f70       ??_R3?$_Func_base@XPAVDisplayableObject@@@std@@8 0046cf70     JigsawDemo.obj
 0002:00015f84       ??_R2?$_Func_base@XPAVDisplayableObject@@@std@@8 0046cf84     JigsawDemo.obj
 0002:00015f8c       ??_R1A@?0A@EA@?$_Func_base@XPAVDisplayableObject@@@std@@8 0046cf8c     JigsawDemo.obj
 0002:00015fb0       ??_R4CoordinateMapping@@6B@ 0046cfb0     JigsawDemo.obj
 0002:00015fc8       ??_R3CoordinateMapping@@8  0046cfc8     JigsawDemo.obj
 0002:00015fdc       ??_R2CoordinateMapping@@8  0046cfdc     JigsawDemo.obj
 0002:00015fe4       ??_R1A@?0A@EA@CoordinateMapping@@8 0046cfe4     JigsawDemo.obj
 0002:00016008       ??_R4JigsawPiece@@6BDragableImageObject@@@ 0046d008     JigsawDemo.obj
 0002:00016020       ??_R3JigsawPiece@@8        0046d020     JigsawDemo.obj
 0002:00016034       ??_R2JigsawPiece@@8        0046d034     JigsawDemo.obj
 0002:00016050       ??_R1A@?0A@EA@JigsawPiece@@8 0046d050     JigsawDemo.obj
 0002:00016074       ??_R1EM@?0A@EA@CoordinateMapping@@8 0046d074     JigsawDemo.obj
 0002:00016098       ??_R4JigsawPiece@@6BCoordinateMapping@@@ 0046d098     JigsawDemo.obj
 0002:000160b0       ??_R4?$_Func_impl_no_alloc@V<lambda_2870de01b601283699da779de20905fc>@@XPAVDisplayableObject@@@std@@6B@ 0046d0b0     JigsawDemo.obj
 0002:000160c8       ??_R3?$_Func_impl_no_alloc@V<lambda_2870de01b601283699da779de20905fc>@@XPAVDisplayableObject@@@std@@8 0046d0c8     JigsawDemo.obj
 0002:000160dc       ??_R2?$_Func_impl_no_alloc@V<lambda_2870de01b601283699da779de20905fc>@@XPAVDisplayableObject@@@std@@8 0046d0dc     JigsawDemo.obj
 0002:000160e8       ??_R1A@?0A@EA@?$_Func_impl_no_alloc@V<lambda_2870de01b601283699da779de20905fc>@@XPAVDisplayableObject@@@std@@8 0046d0e8     JigsawDemo.obj
 0002:0001610c       ??_R4?$_Func_impl_no_alloc@V<lambda_4d3c514b9e5ad6cc29096aa3b57f98f2>@@XPAVDisplayableObject@@@std@@6B@ 0046d10c     JigsawDemo.obj
 0002:00016124       ??_R3?$_Func_impl_no_alloc@V<lambda_4d3c514b9e5ad6cc29096aa3b57f98f2>@@XPAVDisplayableObject@@@std@@8 0046d124     JigsawDemo.obj
 0002:00016138       ??_R2?$_Func_impl_no_alloc@V<lambda_4d3c514b9e5ad6cc29096aa3b57f98f2>@@XPAVDisplayableObject@@@std@@8 0046d138     JigsawDemo.obj
 0002:00016144       ??_R1A@?0A@EA@?$_Func_impl_no_alloc@V<lambda_4d3c514b9e5ad6cc29096aa3b57f98f2>@@XPAVDisplayableObject@@@std@@8 0046d144     JigsawDemo.obj
 0002:00016168       ??_R4?$_Func_impl_no_alloc@V<lambda_369f3aee610e50bbd15c3a78d9c8686f>@@XPAVDisplayableObject@@@std@@6B@ 0046d168     JigsawDemo.obj
 0002:00016180       ??_R3?$_Func_impl_no_alloc@V<lambda_369f3aee610e50bbd15c3a78d9c8686f>@@XPAVDisplayableObject@@@std@@8 0046d180     JigsawDemo.obj
 0002:00016194       ??_R2?$_Func_impl_no_alloc@V<lambda_369f3aee610e50bbd15c3a78d9c8686f>@@XPAVDisplayableObject@@@std@@8 0046d194     JigsawDemo.obj
 0002:000161a0       ??_R1A@?0A@EA@?$_Func_impl_no_alloc@V<lambda_369f3aee610e50bbd15c3a78d9c8686f>@@XPAVDisplayableObject@@@std@@8 0046d1a0     JigsawDemo.obj
 0002:000161c4       ??_R4?$_Func_impl_no_alloc@V<lambda_817584b2460f1bcab806f46a25c321a8>@@XPAVDisplayableObject@@@std@@6B@ 0046d1c4     JigsawDemo.obj
 0002:000161dc       ??_R3?$_Func_impl_no_alloc@V<lambda_817584b2460f1bcab806f46a25c321a8>@@XPAVDisplayableObject@@@std@@8 0046d1dc     JigsawDemo.obj
 0002:000161f0       ??_R2?$_Func_impl_no_alloc@V<lambda_817584b2460f1bcab806f46a25c321a8>@@XPAVDisplayableObject@@@std@@8 0046d1f0     JigsawDemo.obj
 0002:000161fc       ??_R1A@?0A@EA@?$_Func_impl_no_alloc@V<lambda_817584b2460f1bcab806f46a25c321a8>@@XPAVDisplayableObject@@@std@@8 0046d1fc     JigsawDemo.obj
 0002:00016220       ??_R4?$_Func_impl_no_alloc@V<lambda_341a6657abb2758c42a6873833e6116f>@@XPAVDisplayableObject@@@std@@6B@ 0046d220     JigsawDemo.obj
 0002:00016238       ??_R3?$_Func_impl_no_alloc@V<lambda_341a6657abb2758c42a6873833e6116f>@@XPAVDisplayableObject@@@std@@8 0046d238     JigsawDemo.obj
 0002:0001624c       ??_R2?$_Func_impl_no_alloc@V<lambda_341a6657abb2758c42a6873833e6116f>@@XPAVDisplayableObject@@@std@@8 0046d24c     JigsawDemo.obj
 0002:00016258       ??_R1A@?0A@EA@?$_Func_impl_no_alloc@V<lambda_341a6657abb2758c42a6873833e6116f>@@XPAVDisplayableObject@@@std@@8 0046d258     JigsawDemo.obj
 0002:00016390       ??_R4FilterPoints@@6B@     0046d390     mainfunction.obj
 0002:000163a8       ??_R4TileManager@@6B@      0046d3a8     mainfunction.obj
 0002:000163c0       ??_R3TileManager@@8        0046d3c0     mainfunction.obj
 0002:000163d4       ??_R2TileManager@@8        0046d3d4     mainfunction.obj
 0002:000163dc       ??_R1A@?0A@EA@TileManager@@8 0046d3dc     mainfunction.obj
 0002:00016400       ??_R4FilterPointsScaling@@6B@ 0046d400     mainfunction.obj
 0002:00016418       ??_R3FilterPointsScaling@@8 0046d418     mainfunction.obj
 0002:0001642c       ??_R2FilterPointsScaling@@8 0046d42c     mainfunction.obj
 0002:00016438       ??_R1A@?0A@EA@FilterPointsScaling@@8 0046d438     mainfunction.obj
 0002:0001645c       ??_R4FilterPointsTranslation@@6B@ 0046d45c     mainfunction.obj
 0002:00016474       ??_R3FilterPointsTranslation@@8 0046d474     mainfunction.obj
 0002:00016488       ??_R2FilterPointsTranslation@@8 0046d488     mainfunction.obj
 0002:00016494       ??_R1A@?0A@EA@FilterPointsTranslation@@8 0046d494     mainfunction.obj
 0002:000164b8       ??_R4CoordinateMappingShiftXY@@6B@ 0046d4b8     mainfunction.obj
 0002:000164d0       ??_R3CoordinateMappingShiftXY@@8 0046d4d0     mainfunction.obj
 0002:000164e4       ??_R2CoordinateMappingShiftXY@@8 0046d4e4     mainfunction.obj
 0002:000164f0       ??_R1A@?0A@EA@CoordinateMappingShiftXY@@8 0046d4f0     mainfunction.obj
 0002:00016514       ??_R4CoordinateMappingRotate@@6B@ 0046d514     mainfunction.obj
 0002:0001652c       ??_R3CoordinateMappingRotate@@8 0046d52c     mainfunction.obj
 0002:00016540       ??_R2CoordinateMappingRotate@@8 0046d540     mainfunction.obj
 0002:0001654c       ??_R1A@?0A@EA@CoordinateMappingRotate@@8 0046d54c     mainfunction.obj
 0002:00016570       ??_R1BAI@?0A@EA@CoordinateMapping@@8 0046d570     mainfunction.obj
 0002:00016594       ??_R4State@@6B@            0046d594     mainfunction.obj
 0002:000165ac       ??_R3State@@8              0046d5ac     mainfunction.obj
 0002:000165c0       ??_R2State@@8              0046d5c0     mainfunction.obj
 0002:000165c8       ??_R1A@?0A@EA@State@@8     0046d5c8     mainfunction.obj
 0002:000165ec       ??_R4State_gaming@@6B@     0046d5ec     mainfunction.obj
 0002:00016604       ??_R3State_gaming@@8       0046d604     mainfunction.obj
 0002:00016618       ??_R2State_gaming@@8       0046d618     mainfunction.obj
 0002:00016624       ??_R1A@?0A@EA@State_gaming@@8 0046d624     mainfunction.obj
 0002:00016648       ??_R4State_function@@6B@   0046d648     mainfunction.obj
 0002:00016660       ??_R3State_function@@8     0046d660     mainfunction.obj
 0002:00016674       ??_R2State_function@@8     0046d674     mainfunction.obj
 0002:00016680       ??_R1A@?0A@EA@State_function@@8 0046d680     mainfunction.obj
 0002:000166a4       ??_R4State_start@@6B@      0046d6a4     mainfunction.obj
 0002:000166bc       ??_R3State_start@@8        0046d6bc     mainfunction.obj
 0002:000166d0       ??_R2State_start@@8        0046d6d0     mainfunction.obj
 0002:000166e0       ??_R1A@?0A@EA@State_start@@8 0046d6e0     mainfunction.obj
 0002:00016704       ??_R4State_animation@@6B@  0046d704     mainfunction.obj
 0002:0001671c       ??_R3State_animation@@8    0046d71c     mainfunction.obj
 0002:00016730       ??_R2State_animation@@8    0046d730     mainfunction.obj
 0002:0001673c       ??_R1A@?0A@EA@State_animation@@8 0046d73c     mainfunction.obj
 0002:00016760       ??_R4luckyDraw@@6B@        0046d760     mainfunction.obj
 0002:00016778       ??_R3luckyDraw@@8          0046d778     mainfunction.obj
 0002:0001678c       ??_R2luckyDraw@@8          0046d78c     mainfunction.obj
 0002:00016798       ??_R1A@?0A@EA@luckyDraw@@8 0046d798     mainfunction.obj
 0002:000167bc       ??_R4State_end@@6B@        0046d7bc     mainfunction.obj
 0002:000167d4       ??_R3State_end@@8          0046d7d4     mainfunction.obj
 0002:000167e8       ??_R2State_end@@8          0046d7e8     mainfunction.obj
 0002:000167f8       ??_R1A@?0A@EA@State_end@@8 0046d7f8     mainfunction.obj
 0002:0001681c       ??_R4State_pause@@6B@      0046d81c     mainfunction.obj
 0002:00016834       ??_R3State_pause@@8        0046d834     mainfunction.obj
 0002:00016848       ??_R2State_pause@@8        0046d848     mainfunction.obj
 0002:00016858       ??_R1A@?0A@EA@State_pause@@8 0046d858     mainfunction.obj
 0002:0001687c       ??_R4State_name@@6B@       0046d87c     mainfunction.obj
 0002:00016894       ??_R3State_name@@8         0046d894     mainfunction.obj
 0002:000168a8       ??_R2State_name@@8         0046d8a8     mainfunction.obj
 0002:000168b8       ??_R1A@?0A@EA@State_name@@8 0046d8b8     mainfunction.obj
 0002:000168dc       ??_R4State_rank@@6B@       0046d8dc     mainfunction.obj
 0002:000168f4       ??_R3State_rank@@8         0046d8f4     mainfunction.obj
 0002:00016908       ??_R2State_rank@@8         0046d908     mainfunction.obj
 0002:00016918       ??_R1A@?0A@EA@State_rank@@8 0046d918     mainfunction.obj
 0002:0001693c       ??_R4Scyyc1Engine@@6BDisplayableObjectContainer@@@ 0046d93c     mainfunction.obj
 0002:00016954       ??_R3Scyyc1Engine@@8       0046d954     mainfunction.obj
 0002:00016968       ??_R2Scyyc1Engine@@8       0046d968     mainfunction.obj
 0002:00016984       ??_R1A@?0A@EA@Scyyc1Engine@@8 0046d984     mainfunction.obj
 0002:000169a8       ??_R4Scyyc1Engine@@6BFilterPoints@@@ 0046d9a8     mainfunction.obj
 0002:000169c0       ??_R4Scyyc1Engine@@6B@     0046d9c0     mainfunction.obj
 0002:000169d8       ??_R4BaseEngine@@6BDisplayableObjectContainer@@@ 0046d9d8     BaseEngine.obj
 0002:000169f0       ??_R4BaseEngine@@6BFilterPoints@@@ 0046d9f0     BaseEngine.obj
 0002:00016a08       ??_R4DisplayableObjectContainer@@6B@ 0046da08     BaseEngine.obj
 0002:00016a20       ??_R4DisplayableObject@@6B@ 0046da20     DisplayableObject.obj
 0002:00016a38       ??_R4MappableImageObject@@6B@ 0046da38     ImageMappingDemo.obj
 0002:00016a50       ??_R3MappableImageObject@@8 0046da50     ImageMappingDemo.obj
 0002:00016a64       ??_R2MappableImageObject@@8 0046da64     ImageMappingDemo.obj
 0002:00016a78       ??_R1A@?0A@EA@MappableImageObject@@8 0046da78     ImageMappingDemo.obj
 0002:00016a9c       ??_R4DoubleNote@@6B@       0046da9c     DoubleNote.obj
 0002:00016ab4       ??_R3DoubleNote@@8         0046dab4     DoubleNote.obj
 0002:00016ac8       ??_R2DoubleNote@@8         0046dac8     DoubleNote.obj
 0002:00016ad8       ??_R1A@?0A@EA@DoubleNote@@8 0046dad8     DoubleNote.obj
 0002:00016afc       ??_R1A@?0A@EA@note@@8      0046dafc     DoubleNote.obj
 0002:00016b20       ??_R3note@@8               0046db20     DoubleNote.obj
 0002:00016b34       ??_R2note@@8               0046db34     DoubleNote.obj
 0002:00016b40       ??_R4LongNote@@6B@         0046db40     LongNote.obj
 0002:00016b58       ??_R3LongNote@@8           0046db58     LongNote.obj
 0002:00016b6c       ??_R2LongNote@@8           0046db6c     LongNote.obj
 0002:00016b7c       ??_R1A@?0A@EA@LongNote@@8  0046db7c     LongNote.obj
 0002:00016ba0       ??_R4note@@6B@             0046dba0     note.obj
 0002:00016bb8       ??_R4SingleNote@@6B@       0046dbb8     SingleNote.obj
 0002:00016bd0       ??_R3SingleNote@@8         0046dbd0     SingleNote.obj
 0002:00016be4       ??_R2SingleNote@@8         0046dbe4     SingleNote.obj
 0002:00016bf4       ??_R1A@?0A@EA@SingleNote@@8 0046dbf4     SingleNote.obj
 0002:00016c18       ??_R4?$basic_filebuf@DU?$char_traits@D@std@@@std@@6B@ 0046dc18     Ranking.obj
 0002:00016c30       ??_R3?$basic_filebuf@DU?$char_traits@D@std@@@std@@8 0046dc30     Ranking.obj
 0002:00016c44       ??_R2?$basic_filebuf@DU?$char_traits@D@std@@@std@@8 0046dc44     Ranking.obj
 0002:00016c50       ??_R1A@?0A@EA@?$basic_filebuf@DU?$char_traits@D@std@@@std@@8 0046dc50     Ranking.obj
 0002:00016c74       ??_R1A@?0A@EA@?$basic_streambuf@DU?$char_traits@D@std@@@std@@8 0046dc74     Ranking.obj
 0002:00016c98       ??_R3?$basic_streambuf@DU?$char_traits@D@std@@@std@@8 0046dc98     Ranking.obj
 0002:00016cac       ??_R2?$basic_streambuf@DU?$char_traits@D@std@@@std@@8 0046dcac     Ranking.obj
 0002:00016cb4       ??_R4?$basic_ifstream@DU?$char_traits@D@std@@@std@@6B@ 0046dcb4     Ranking.obj
 0002:00016ccc       ??_R3?$basic_ifstream@DU?$char_traits@D@std@@@std@@8 0046dccc     Ranking.obj
 0002:00016ce0       ??_R2?$basic_ifstream@DU?$char_traits@D@std@@@std@@8 0046dce0     Ranking.obj
 0002:00016cfc       ??_R1A@?0A@EA@?$basic_ifstream@DU?$char_traits@D@std@@@std@@8 0046dcfc     Ranking.obj
 0002:00016d20       ??_R1A@?0A@EA@?$basic_istream@DU?$char_traits@D@std@@@std@@8 0046dd20     Ranking.obj
 0002:00016d44       ??_R3?$basic_istream@DU?$char_traits@D@std@@@std@@8 0046dd44     Ranking.obj
 0002:00016d58       ??_R2?$basic_istream@DU?$char_traits@D@std@@@std@@8 0046dd58     Ranking.obj
 0002:00016d6c       ??_R1A@A@3FA@?$basic_ios@DU?$char_traits@D@std@@@std@@8 0046dd6c     Ranking.obj
 0002:00016d90       ??_R3?$basic_ios@DU?$char_traits@D@std@@@std@@8 0046dd90     Ranking.obj
 0002:00016da4       ??_R2?$basic_ios@DU?$char_traits@D@std@@@std@@8 0046dda4     Ranking.obj
 0002:00016db4       ??_R1A@?0A@EA@?$basic_ios@DU?$char_traits@D@std@@@std@@8 0046ddb4     Ranking.obj
 0002:00016dd8       ??_R1A@?0A@EA@ios_base@std@@8 0046ddd8     Ranking.obj
 0002:00016dfc       ??_R3ios_base@std@@8       0046ddfc     Ranking.obj
 0002:00016e10       ??_R2ios_base@std@@8       0046de10     Ranking.obj
 0002:00016e1c       ??_R17?0A@EA@?$_Iosb@H@std@@8 0046de1c     Ranking.obj
 0002:00016e40       ??_R3?$_Iosb@H@std@@8      0046de40     Ranking.obj
 0002:00016e54       ??_R2?$_Iosb@H@std@@8      0046de54     Ranking.obj
 0002:00016e5c       ??_R1A@?0A@EA@?$_Iosb@H@std@@8 0046de5c     Ranking.obj
 0002:00016e80       ??_R1A@A@3EA@ios_base@std@@8 0046de80     Ranking.obj
 0002:00016ea4       ??_R17A@3EA@?$_Iosb@H@std@@8 0046dea4     Ranking.obj
 0002:00016ec8       ??_R4?$basic_ofstream@DU?$char_traits@D@std@@@std@@6B@ 0046dec8     Ranking.obj
 0002:00016ee0       ??_R3?$basic_ofstream@DU?$char_traits@D@std@@@std@@8 0046dee0     Ranking.obj
 0002:00016ef4       ??_R2?$basic_ofstream@DU?$char_traits@D@std@@@std@@8 0046def4     Ranking.obj
 0002:00016f10       ??_R1A@?0A@EA@?$basic_ofstream@DU?$char_traits@D@std@@@std@@8 0046df10     Ranking.obj
 0002:00016f34       ??_R1A@?0A@EA@?$basic_ostream@DU?$char_traits@D@std@@@std@@8 0046df34     Ranking.obj
 0002:00016f58       ??_R3?$basic_ostream@DU?$char_traits@D@std@@@std@@8 0046df58     Ranking.obj
 0002:00016f6c       ??_R2?$basic_ostream@DU?$char_traits@D@std@@@std@@8 0046df6c     Ranking.obj
 0002:00016f80       ??_R4bad_cast@std@@6B@     0046df80     Ranking.obj
 0002:00016f98       ??_R3bad_cast@std@@8       0046df98     Ranking.obj
 0002:00016fac       ??_R2bad_cast@std@@8       0046dfac     Ranking.obj
 0002:00016fb8       ??_R1A@?0A@EA@bad_cast@std@@8 0046dfb8     Ranking.obj
 0002:00016fdc       ??_R4Button@@6B@           0046dfdc     State_pause.obj
 0002:00016ff4       ??_R3Button@@8             0046dff4     State_pause.obj
 0002:00017008       ??_R2Button@@8             0046e008     State_pause.obj
 0002:00017014       ??_R1A@?0A@EA@Button@@8    0046e014     State_pause.obj
 0002:00017038       ??_R4Button_exit@@6B@      0046e038     State_pause.obj
 0002:00017050       ??_R3Button_exit@@8        0046e050     State_pause.obj
 0002:00017064       ??_R2Button_exit@@8        0046e064     State_pause.obj
 0002:00017074       ??_R1A@?0A@EA@Button_exit@@8 0046e074     State_pause.obj
 0002:00017098       ??_R4Button_load@@6B@      0046e098     State_pause.obj
 0002:000170b0       ??_R3Button_load@@8        0046e0b0     State_pause.obj
 0002:000170c4       ??_R2Button_load@@8        0046e0c4     State_pause.obj
 0002:000170d4       ??_R1A@?0A@EA@Button_load@@8 0046e0d4     State_pause.obj
 0002:000170f8       ??_R4lifeManager@@6B@      0046e0f8     lifeManager.obj
 0002:00017110       ??_R3lifeManager@@8        0046e110     lifeManager.obj
 0002:00017124       ??_R2lifeManager@@8        0046e124     lifeManager.obj
 0002:00017130       ??_R1A@?0A@EA@lifeManager@@8 0046e130     lifeManager.obj
 0002:00017154       ??_R4Scyyc1TileManager@@6B@ 0046e154     Scyyc1TileManager.obj
 0002:0001716c       ??_R3Scyyc1TileManager@@8  0046e16c     Scyyc1TileManager.obj
 0002:00017180       ??_R2Scyyc1TileManager@@8  0046e180     Scyyc1TileManager.obj
 0002:0001718c       ??_R1A@?0A@EA@Scyyc1TileManager@@8 0046e18c     Scyyc1TileManager.obj
 0002:000171b0       ??_R4CroppedCoordinateMapping@@6B@ 0046e1b0     SimpleImage.obj
 0002:000171c8       ??_R3CroppedCoordinateMapping@@8 0046e1c8     SimpleImage.obj
 0002:000171dc       ??_R2CroppedCoordinateMapping@@8 0046e1dc     SimpleImage.obj
 0002:000171e8       ??_R1A@?0A@EA@CroppedCoordinateMapping@@8 0046e1e8     SimpleImage.obj
 0002:0001720c       ??_R4JasonsDemoA@@6BDisplayableObjectContainer@@@ 0046e20c     JasonsDemoA.obj
 0002:00017224       ??_R3JasonsDemoA@@8        0046e224     JasonsDemoA.obj
 0002:00017238       ??_R2JasonsDemoA@@8        0046e238     JasonsDemoA.obj
 0002:0001724c       ??_R1A@?0A@EA@JasonsDemoA@@8 0046e24c     JasonsDemoA.obj
 0002:00017270       ??_R4JasonsDemoA@@6BFilterPoints@@@ 0046e270     JasonsDemoA.obj
 0002:00017288       ??_R4JasonsObjectA@@6B@    0046e288     JasonsObjectA.obj
 0002:000172a0       ??_R3JasonsObjectA@@8      0046e2a0     JasonsObjectA.obj
 0002:000172b4       ??_R2JasonsObjectA@@8      0046e2b4     JasonsObjectA.obj
 0002:000172c0       ??_R1A@?0A@EA@JasonsObjectA@@8 0046e2c0     JasonsObjectA.obj
 0002:000172e4       ??_R4JasonsTileManager@@6B@ 0046e2e4     JasonsTileManager.obj
 0002:000172fc       ??_R3JasonsTileManager@@8  0046e2fc     JasonsTileManager.obj
 0002:00017310       ??_R2JasonsTileManager@@8  0046e310     JasonsTileManager.obj
 0002:0001731c       ??_R1A@?0A@EA@JasonsTileManager@@8 0046e31c     JasonsTileManager.obj
 0002:00017340       ??_R4DragableTokenContainer@@6BDragableBaseClassObject@@@ 0046e340     PlayingCardsDemo.obj
 0002:00017358       ??_R3DragableTokenContainer@@8 0046e358     PlayingCardsDemo.obj
 0002:0001736c       ??_R2DragableTokenContainer@@8 0046e36c     PlayingCardsDemo.obj
 0002:00017380       ??_R1A@?0A@EA@DragableTokenContainer@@8 0046e380     PlayingCardsDemo.obj
 0002:000173a4       ??_R1DM@?0A@EA@DisplayableObjectContainer@@8 0046e3a4     PlayingCardsDemo.obj
 0002:000173c8       ??_R4DragableTokenContainer@@6BDisplayableObjectContainer@@@ 0046e3c8     PlayingCardsDemo.obj
 0002:000173e0       ??_R4DragableToken@@6B@    0046e3e0     PlayingCardsDemo.obj
 0002:000173f8       ??_R3DragableToken@@8      0046e3f8     PlayingCardsDemo.obj
 0002:0001740c       ??_R2DragableToken@@8      0046e40c     PlayingCardsDemo.obj
 0002:00017418       ??_R1A@?0A@EA@DragableToken@@8 0046e418     PlayingCardsDemo.obj
 0002:0001743c       ??_R4TokenTray@@6BDragableBaseClassObject@@@ 0046e43c     PlayingCardsDemo.obj
 0002:00017454       ??_R3TokenTray@@8          0046e454     PlayingCardsDemo.obj
 0002:00017468       ??_R2TokenTray@@8          0046e468     PlayingCardsDemo.obj
 0002:00017484       ??_R1A@?0A@EA@TokenTray@@8 0046e484     PlayingCardsDemo.obj
 0002:000174a8       ??_R4TokenTray@@6BDisplayableObjectContainer@@@ 0046e4a8     PlayingCardsDemo.obj
 0002:000174c0       ??_R4CardOrTile@@6BDragableBaseClassObject@@@ 0046e4c0     PlayingCardsDemo.obj
 0002:000174d8       ??_R3CardOrTile@@8         0046e4d8     PlayingCardsDemo.obj
 0002:000174ec       ??_R2CardOrTile@@8         0046e4ec     PlayingCardsDemo.obj
 0002:00017508       ??_R1A@?0A@EA@CardOrTile@@8 0046e508     PlayingCardsDemo.obj
 0002:0001752c       ??_R4CardOrTile@@6BDisplayableObjectContainer@@@ 0046e52c     PlayingCardsDemo.obj
 0002:00017544       ??_R4CardContainer@@6BDragableBaseClassObject@@@ 0046e544     PlayingCardsDemo.obj
 0002:0001755c       ??_R3CardContainer@@8      0046e55c     PlayingCardsDemo.obj
 0002:00017570       ??_R2CardContainer@@8      0046e570     PlayingCardsDemo.obj
 0002:0001758c       ??_R1A@?0A@EA@CardContainer@@8 0046e58c     PlayingCardsDemo.obj
 0002:000175b0       ??_R4CardContainer@@6BDisplayableObjectContainer@@@ 0046e5b0     PlayingCardsDemo.obj
 0002:000175c8       ??_R4CoordinateMappingRotateAndColour@@6B@ 0046e5c8     PlayingCardsDemo.obj
 0002:000175e0       ??_R3CoordinateMappingRotateAndColour@@8 0046e5e0     PlayingCardsDemo.obj
 0002:000175f4       ??_R2CoordinateMappingRotateAndColour@@8 0046e5f4     PlayingCardsDemo.obj
 0002:00017604       ??_R1A@?0A@EA@CoordinateMappingRotateAndColour@@8 0046e604     PlayingCardsDemo.obj
 0002:00017628       ??_R4speedController@@6B@  0046e628     speedController.obj
 0002:00017640       ??_R3speedController@@8    0046e640     speedController.obj
 0002:00017654       ??_R2speedController@@8    0046e654     speedController.obj
 0002:00017660       ??_R1A@?0A@EA@speedController@@8 0046e660     speedController.obj
 0002:00017684       ??_R4StarfieldDemo@@6BDisplayableObjectContainer@@@ 0046e684     StarfieldDemo.obj
 0002:0001769c       ??_R3StarfieldDemo@@8      0046e69c     StarfieldDemo.obj
 0002:000176b0       ??_R2StarfieldDemo@@8      0046e6b0     StarfieldDemo.obj
 0002:000176c4       ??_R1A@?0A@EA@StarfieldDemo@@8 0046e6c4     StarfieldDemo.obj
 0002:000176e8       ??_R4StarfieldDemo@@6BFilterPoints@@@ 0046e6e8     StarfieldDemo.obj
 0002:00017700       ??_R4Button_start@@6B@     0046e700     State_start.obj
 0002:00017718       ??_R3Button_start@@8       0046e718     State_start.obj
 0002:0001772c       ??_R2Button_start@@8       0046e72c     State_start.obj
 0002:0001773c       ??_R1A@?0A@EA@Button_start@@8 0046e73c     State_start.obj
 0002:00017760       ??_R4Button_rank@@6B@      0046e760     State_start.obj
 0002:00017778       ??_R3Button_rank@@8        0046e778     State_start.obj
 0002:0001778c       ??_R2Button_rank@@8        0046e78c     State_start.obj
 0002:0001779c       ??_R1A@?0A@EA@Button_rank@@8 0046e79c     State_start.obj
 0002:000177c0       ??_R4Button_back@@6B@      0046e7c0     State_end.obj
 0002:000177d8       ??_R3Button_back@@8        0046e7d8     State_end.obj
 0002:000177ec       ??_R2Button_back@@8        0046e7ec     State_end.obj
 0002:000177fc       ??_R1A@?0A@EA@Button_back@@8 0046e7fc     State_end.obj
 0002:00017820       ??_R4Button_stop@@6B@      0046e820     State_end.obj
 0002:00017838       ??_R3Button_stop@@8        0046e838     State_end.obj
 0002:0001784c       ??_R2Button_stop@@8        0046e84c     State_end.obj
 0002:0001785c       ??_R1A@?0A@EA@Button_stop@@8 0046e85c     State_end.obj
 0002:00017880       ??_R4BouncingBall@@6B@     0046e880     BouncingBall.obj
 0002:00017898       ??_R3BouncingBall@@8       0046e898     BouncingBall.obj
 0002:000178ac       ??_R2BouncingBall@@8       0046e8ac     BouncingBall.obj
 0002:000178b8       ??_R1A@?0A@EA@BouncingBall@@8 0046e8b8     BouncingBall.obj
 0002:000178dc       ??_R4BouncingBall1@@6B@    0046e8dc     BouncingBall.obj
 0002:000178f4       ??_R3BouncingBall1@@8      0046e8f4     BouncingBall.obj
 0002:00017908       ??_R2BouncingBall1@@8      0046e908     BouncingBall.obj
 0002:00017918       ??_R1A@?0A@EA@BouncingBall1@@8 0046e918     BouncingBall.obj
 0002:0001793c       ??_R4BouncingBall2@@6B@    0046e93c     BouncingBall.obj
 0002:00017954       ??_R3BouncingBall2@@8      0046e954     BouncingBall.obj
 0002:00017968       ??_R2BouncingBall2@@8      0046e968     BouncingBall.obj
 0002:00017978       ??_R1A@?0A@EA@BouncingBall2@@8 0046e978     BouncingBall.obj
 0002:0001799c       ??_R4SimpleFlashingDragableImageObject@@6B@ 0046e99c     ZoomingDemo.obj
 0002:000179b4       ??_R3SimpleFlashingDragableImageObject@@8 0046e9b4     ZoomingDemo.obj
 0002:000179c8       ??_R2SimpleFlashingDragableImageObject@@8 0046e9c8     ZoomingDemo.obj
 0002:000179d4       ??_R1A@?0A@EA@SimpleFlashingDragableImageObject@@8 0046e9d4     ZoomingDemo.obj
 0002:000179f8       ??_R4MazeDemoMain@@6BDisplayableObjectContainer@@@ 0046e9f8     MazeDemoMain.obj
 0002:00017a10       ??_R3MazeDemoMain@@8       0046ea10     MazeDemoMain.obj
 0002:00017a24       ??_R2MazeDemoMain@@8       0046ea24     MazeDemoMain.obj
 0002:00017a38       ??_R1A@?0A@EA@MazeDemoMain@@8 0046ea38     MazeDemoMain.obj
 0002:00017a5c       ??_R4MazeDemoMain@@6BFilterPoints@@@ 0046ea5c     MazeDemoMain.obj
 0002:00017a74       ??_R4MazeDemoTileManager@@6B@ 0046ea74     MazeDemoMain.obj
 0002:00017a8c       ??_R3MazeDemoTileManager@@8 0046ea8c     MazeDemoMain.obj
 0002:00017aa0       ??_R2MazeDemoTileManager@@8 0046eaa0     MazeDemoMain.obj
 0002:00017aac       ??_R1A@?0A@EA@MazeDemoTileManager@@8 0046eaac     MazeDemoMain.obj
 0002:00017ad0       ??_R4MazeDemoObject@@6B@   0046ead0     MazeDemoObject.obj
 0002:00017ae8       ??_R3MazeDemoObject@@8     0046eae8     MazeDemoObject.obj
 0002:00017afc       ??_R2MazeDemoObject@@8     0046eafc     MazeDemoObject.obj
 0002:00017b08       ??_R1A@?0A@EA@MazeDemoObject@@8 0046eb08     MazeDemoObject.obj
 0002:00017b2c       ??_R4type_info@@6B@        0046eb2c     MSVCRTD:std_type_info_static.obj
 0002:00017b44       ??_R3type_info@@8          0046eb44     MSVCRTD:std_type_info_static.obj
 0002:00017b58       ??_R2type_info@@8          0046eb58     MSVCRTD:std_type_info_static.obj
 0002:00017b60       ??_R1A@?0A@EA@type_info@@8 0046eb60     MSVCRTD:std_type_info_static.obj
 0002:00017d64       ___safe_se_handler_table   0046ed64     <linker-defined>
 0002:00018480       ___rtc_iaa                 0046f480     MSVCRTD:initsect.obj
 0002:00018584       ___rtc_izz                 0046f584     MSVCRTD:initsect.obj
 0002:00018688       ___rtc_taa                 0046f688     MSVCRTD:initsect.obj
 0002:0001878c       ___rtc_tzz                 0046f78c     MSVCRTD:initsect.obj
 0002:0001896c       __TI3?AVbad_array_new_length@std@@ 0046f96c     Configuration.obj
 0002:00018980       __CTA3?AVbad_array_new_length@std@@ 0046f980     Configuration.obj
 0002:00018994       __CT??_R0?AVbad_array_new_length@std@@@8??0bad_array_new_length@std@@QAE@ABV01@@Z12 0046f994     Configuration.obj
 0002:000189b4       __CT??_R0?AVbad_alloc@std@@@8??0bad_alloc@std@@QAE@ABV01@@Z12 0046f9b4     Configuration.obj
 0002:000189d4       __CT??_R0?AVexception@std@@@8??0exception@std@@QAE@ABV01@@Z12 0046f9d4     Configuration.obj
 0002:0001af4c       __TI2?AVbad_cast@std@@     00471f4c     Ranking.obj
 0002:0001af60       __CTA2?AVbad_cast@std@@    00471f60     Ranking.obj
 0002:0001af70       __CT??_R0?AVbad_cast@std@@@8??0bad_cast@std@@QAE@ABV01@@Z12 00471f70     Ranking.obj
 0002:0001c158       __TI2?AVbad_alloc@std@@    00473158     MSVCRTD:throw_bad_alloc.obj
 0002:0001c16c       __CTA2?AVbad_alloc@std@@   0047316c     MSVCRTD:throw_bad_alloc.obj
 0003:00000000       ?TILE_SIZE@@3HA            00474000     Configuration.obj
 0003:00000004       ?MAP_HEIGHT@@3HA           00474004     Configuration.obj
 0003:00000008       ?MAP_WIDTH@@3HA            00474008     Configuration.obj
 0003:0000000c       ?LIFEMAP_START_X@@3HA      0047400c     Configuration.obj
 0003:00000010       ?LIFEMAP_START_Y@@3HA      00474010     Configuration.obj
 0003:00000014       ?AVENUE_TILE_SIZE@@3HA     00474014     Configuration.obj
 0003:00000018       ?AVENUE_MAP_HEIGHT@@3HA    00474018     Configuration.obj
 0003:0000001c       ?AVENUE_MAP_WIDTH@@3HA     0047401c     Configuration.obj
 0003:00000020       ?AVENUE_START_X@@3HA       00474020     Configuration.obj
 0003:00000024       ?AVENUE_START_Y@@3HA       00474024     Configuration.obj
 0003:00000028       ?NOTE_SIZE@@3HA            00474028     Configuration.obj
 0003:0000002c       ?NOTE_START_1_Y@@3HA       0047402c     Configuration.obj
 0003:00000030       ?NOTE_START_2_Y@@3HA       00474030     Configuration.obj
 0003:00000034       ?NOTE_START_3_Y@@3HA       00474034     Configuration.obj
 0003:00000038       ?NOTE_START_4_Y@@3HA       00474038     Configuration.obj
 0003:0000003c       ?NOTE_START_X@@3HA         0047403c     Configuration.obj
 0003:00000040       ?DOUBLE@@3HA               00474040     Configuration.obj
 0003:00000044       ?LONG@@3HA                 00474044     Configuration.obj
 0003:00000048       ?CONTROLLER_SIZE@@3HA      00474048     Configuration.obj
 0003:0000004c       ?CONTROLLER_NUM@@3HA       0047404c     Configuration.obj
 0003:00000050       ?CONTROLLER_START_1_Y@@3HA 00474050     Configuration.obj
 0003:00000054       ?CONTROLLER_START_2_Y@@3HA 00474054     Configuration.obj
 0003:00000058       ?CONTROLLER_START_3_Y@@3HA 00474058     Configuration.obj
 0003:0000005c       ?CONTROLLER_START_4_Y@@3HA 0047405c     Configuration.obj
 0003:00000060       ?CONTROLLER_START_X@@3HA   00474060     Configuration.obj
 0003:00000064       ?GREAT@@3HA                00474064     Configuration.obj
 0003:00000068       ?GOOD@@3HA                 00474068     Configuration.obj
 0003:0000006c       ?BAD@@3HA                  0047406c     Configuration.obj
 0003:00000070       ?MISS@@3HA                 00474070     Configuration.obj
 0003:00000074       ?MIN_POS_X@@3HA            00474074     Configuration.obj
 0003:00000078       ?MIN_POS_Y@@3HA            00474078     Configuration.obj
 0003:0000007c       ?MAX_POS_X@@3HA            0047407c     Configuration.obj
 0003:00000080       ?RESTART@@3HA              00474080     Configuration.obj
 0003:00000084       ?OVAL_OFFSET@@3HA          00474084     Configuration.obj
 0003:00000088       ?RECTANGLE_OFFSET@@3HA     00474088     Configuration.obj
 0003:0000008c       ?BEATS@@3HA                0047408c     Configuration.obj
 0003:00000090       ?BUTTON_OFFSET@@3HA        00474090     Configuration.obj
 0003:00000094       ?STATENUM@@3HA             00474094     Configuration.obj
 0003:00000098       ?START_G@@3HA              00474098     Configuration.obj
 0003:0000009c       ?START_A@@3HA              0047409c     Configuration.obj
 0003:000000a0       ?RED@@3HA                  004740a0     Configuration.obj
 0003:000000a4       ?GREEN@@3HA                004740a4     Configuration.obj
 0003:000000a8       ?BLUE@@3HA                 004740a8     Configuration.obj
 0003:000000ac       ?WINDOW_X@@3HA             004740ac     Configuration.obj
 0003:000000b0       ?WINDOW_Y@@3HA             004740b0     Configuration.obj
 0003:000000b4       ?CHANCE@@3HA               004740b4     Configuration.obj
 0003:000000b8       ?RANK_SIZE@@3HA            004740b8     Configuration.obj
 0003:000000bc       ?RANK_LINE_SPACE@@3HA      004740bc     Configuration.obj
 0003:000000ec       ___security_cookie_complement 004740ec     MSVCRTD:gs_cookie.obj
 0003:000000f0       ___security_cookie         004740f0     MSVCRTD:gs_cookie.obj
 0003:000000f8       ___scrt_native_dllmain_reason 004740f8     MSVCRTD:utility.obj
 0003:000000fc       __fltused                  004740fc     MSVCRTD:fltused.obj
 0003:00000100       ___scrt_default_matherr    00474100     MSVCRTD:matherr.obj
 0003:00000104       ___isa_enabled             00474104     MSVCRTD:cpu_disp.obj
 0003:00000108       ___scrt_ucrt_dll_is_in_use 00474108     MSVCRTD:ucrt_stubs.obj
 0003:00000218       ??_R0?AVbad_array_new_length@std@@@8 00474218     Configuration.obj
 0003:00000248       ??_R0?AVbad_alloc@std@@@8  00474248     Configuration.obj
 0003:0000026c       ??_R0?AVexception@std@@@8  0047426c     Configuration.obj
 0003:00000290       ??_R0?AV_Ref_count_base@std@@@8 00474290     controller.obj
 0003:000002b8       ??_R0?AVcontroller@@@8     004742b8     controller.obj
 0003:000002d8       ??_R0?AVDisplayableObject@@@8 004742d8     controller.obj
 0003:00000300       ??_R0?AV?$_Ref_count@VRawImageData@@@std@@@8 00474300     controller.obj
 0003:00000338       ??_R0?AVDragableBaseClassObject@@@8 00474338     DraggingDemo.obj
 0003:00000368       ??_R0?AVDragableObject@@@8 00474368     DraggingDemo.obj
 0003:0000038c       ??_R0?AVImageObject@@@8    0047438c     DraggingDemo.obj
 0003:000003ac       ??_R0?AVDragableImageObject@@@8 004743ac     DraggingDemo.obj
 0003:000003d4       ??_R0?AVDisplayableObjectContainer@@@8 004743d4     FlashingDemo.obj
 0003:00000408       ??_R0?AVFlashingDemo@@@8   00474408     FlashingDemo.obj
 0003:00000428       ??_R0?AVBaseEngine@@@8     00474428     FlashingDemo.obj
 0003:00000448       ??_R0?AVFilterPoints@@@8   00474448     FlashingDemo.obj
 0003:00000468       ??_R0?AVBouncingObject@@@8 00474468     ImageObjectDemo.obj
 0003:0000048c       ??_R0?AVBouncingImageObject@@@8 0047448c     ImageObjectDemo.obj
 0003:00000580       ??_R0?AV<lambda_341a6657abb2758c42a6873833e6116f>@@@8 00474580     JigsawDemo.obj
 0003:000005c4       ??_R0?AV<lambda_817584b2460f1bcab806f46a25c321a8>@@@8 004745c4     JigsawDemo.obj
 0003:00000608       ??_R0?AV<lambda_369f3aee610e50bbd15c3a78d9c8686f>@@@8 00474608     JigsawDemo.obj
 0003:0000064c       ??_R0?AV<lambda_4d3c514b9e5ad6cc29096aa3b57f98f2>@@@8 0047464c     JigsawDemo.obj
 0003:00000690       ??_R0?AV<lambda_2870de01b601283699da779de20905fc>@@@8 00474690     JigsawDemo.obj
 0003:000006d4       ??_R0?AV?$_Func_base@XPAVDisplayableObject@@@std@@@8 004746d4     JigsawDemo.obj
 0003:00000718       ??_R0?AVCoordinateMapping@@@8 00474718     JigsawDemo.obj
 0003:00000740       ??_R0?AVJigsawPiece@@@8    00474740     JigsawDemo.obj
 0003:00000760       ??_R0?AV?$_Func_impl_no_alloc@V<lambda_2870de01b601283699da779de20905fc>@@XPAVDisplayableObject@@@std@@@8 00474760     JigsawDemo.obj
 0003:000007e8       ??_R0?AV?$_Func_impl_no_alloc@V<lambda_4d3c514b9e5ad6cc29096aa3b57f98f2>@@XPAVDisplayableObject@@@std@@@8 004747e8     JigsawDemo.obj
 0003:00000870       ??_R0?AV?$_Func_impl_no_alloc@V<lambda_369f3aee610e50bbd15c3a78d9c8686f>@@XPAVDisplayableObject@@@std@@@8 00474870     JigsawDemo.obj
 0003:000008f8       ??_R0?AV?$_Func_impl_no_alloc@V<lambda_817584b2460f1bcab806f46a25c321a8>@@XPAVDisplayableObject@@@std@@@8 004748f8     JigsawDemo.obj
 0003:00000980       ??_R0?AV?$_Func_impl_no_alloc@V<lambda_341a6657abb2758c42a6873833e6116f>@@XPAVDisplayableObject@@@std@@@8 00474980     JigsawDemo.obj
 0003:00000b9c       ??_R0?AVTileManager@@@8    00474b9c     mainfunction.obj
 0003:00000bbc       ??_R0?AVFilterPointsScaling@@@8 00474bbc     mainfunction.obj
 0003:00000be4       ??_R0?AVFilterPointsTranslation@@@8 00474be4     mainfunction.obj
 0003:00000c14       ??_R0?AVCoordinateMappingShiftXY@@@8 00474c14     mainfunction.obj
 0003:00000c44       ??_R0?AVCoordinateMappingRotate@@@8 00474c44     mainfunction.obj
 0003:00000c74       ??_R0?AVState@@@8          00474c74     mainfunction.obj
 0003:00000c8c       ??_R0?AVState_gaming@@@8   00474c8c     mainfunction.obj
 0003:00000cac       ??_R0?AVState_function@@@8 00474cac     mainfunction.obj
 0003:00000cd0       ??_R0?AVState_start@@@8    00474cd0     mainfunction.obj
 0003:00000cf0       ??_R0?AVState_animation@@@8 00474cf0     mainfunction.obj
 0003:00000d14       ??_R0?AVluckyDraw@@@8      00474d14     mainfunction.obj
 0003:00000d30       ??_R0?AVState_end@@@8      00474d30     mainfunction.obj
 0003:00000d4c       ??_R0?AVState_pause@@@8    00474d4c     mainfunction.obj
 0003:00000d6c       ??_R0?AVState_name@@@8     00474d6c     mainfunction.obj
 0003:00000d8c       ??_R0?AVState_rank@@@8     00474d8c     mainfunction.obj
 0003:00000dac       ??_R0?AVScyyc1Engine@@@8   00474dac     mainfunction.obj
 0003:00000dcc       ??_R0?AVMappableImageObject@@@8 00474dcc     ImageMappingDemo.obj
 0003:00000df4       ??_R0?AVDoubleNote@@@8     00474df4     DoubleNote.obj
 0003:00000e14       ??_R0?AVnote@@@8           00474e14     DoubleNote.obj
 0003:00000e2c       ??_R0?AVLongNote@@@8       00474e2c     LongNote.obj
 0003:00000e48       ??_R0?AVSingleNote@@@8     00474e48     SingleNote.obj
 0003:00000e68       ??_R0?AVbad_cast@std@@@8   00474e68     Ranking.obj
 0003:00000e88       ??_R0?AV?$basic_filebuf@DU?$char_traits@D@std@@@std@@@8 00474e88     Ranking.obj
 0003:00000ed0       ??_R0?AV?$basic_streambuf@DU?$char_traits@D@std@@@std@@@8 00474ed0     Ranking.obj
 0003:00000f18       ??_R0?AV?$basic_ifstream@DU?$char_traits@D@std@@@std@@@8 00474f18     Ranking.obj
 0003:00000f60       ??_R0?AV?$basic_istream@DU?$char_traits@D@std@@@std@@@8 00474f60     Ranking.obj
 0003:00000fa8       ??_R0?AV?$basic_ios@DU?$char_traits@D@std@@@std@@@8 00474fa8     Ranking.obj
 0003:00000fe8       ??_R0?AVios_base@std@@@8   00474fe8     Ranking.obj
 0003:00001008       ??_R0?AV?$_Iosb@H@std@@@8  00475008     Ranking.obj
 0003:0000102c       ??_R0?AV?$basic_ofstream@DU?$char_traits@D@std@@@std@@@8 0047502c     Ranking.obj
 0003:00001074       ??_R0?AV?$basic_ostream@DU?$char_traits@D@std@@@std@@@8 00475074     Ranking.obj
 0003:000010bc       ??_R0?AVButton@@@8         004750bc     State_pause.obj
 0003:000010d8       ??_R0?AVButton_exit@@@8    004750d8     State_pause.obj
 0003:000010f8       ??_R0?AVButton_load@@@8    004750f8     State_pause.obj
 0003:00001118       ??_R0?AVlifeManager@@@8    00475118     lifeManager.obj
 0003:00001138       ??_R0?AVScyyc1TileManager@@@8 00475138     Scyyc1TileManager.obj
 0003:00001160       ??_R0?AVCroppedCoordinateMapping@@@8 00475160     SimpleImage.obj
 0003:00001190       ??_R0?AVJasonsDemoA@@@8    00475190     JasonsDemoA.obj
 0003:000011b0       ??_R0?AVJasonsObjectA@@@8  004751b0     JasonsObjectA.obj
 0003:000011d4       ??_R0?AVJasonsTileManager@@@8 004751d4     JasonsTileManager.obj
 0003:000011fc       ??_R0?AVDragableTokenContainer@@@8 004751fc     PlayingCardsDemo.obj
 0003:00001228       ??_R0?AVCardContainer@@@8  00475228     PlayingCardsDemo.obj
 0003:0000124c       ??_R0?AVDragableToken@@@8  0047524c     PlayingCardsDemo.obj
 0003:00001270       ??_R0?AVTokenTray@@@8      00475270     PlayingCardsDemo.obj
 0003:0000128c       ??_R0?AVCardOrTile@@@8     0047528c     PlayingCardsDemo.obj
 0003:000012ac       ??_R0?AVCoordinateMappingRotateAndColour@@@8 004752ac     PlayingCardsDemo.obj
 0003:000012e4       ??_R0?AVspeedController@@@8 004752e4     speedController.obj
 0003:00001308       ??_R0?AVStarfieldDemo@@@8  00475308     StarfieldDemo.obj
 0003:0000132c       ??_R0?AVButton_start@@@8   0047532c     State_start.obj
 0003:0000134c       ??_R0?AVButton_rank@@@8    0047534c     State_start.obj
 0003:0000136c       ??_R0?AVButton_back@@@8    0047536c     State_end.obj
 0003:0000138c       ??_R0?AVButton_stop@@@8    0047538c     State_end.obj
 0003:000013ac       ??_R0?AVBouncingBall@@@8   004753ac     BouncingBall.obj
 0003:000013cc       ??_R0?AVBouncingBall1@@@8  004753cc     BouncingBall.obj
 0003:000013f0       ??_R0?AVBouncingBall2@@@8  004753f0     BouncingBall.obj
 0003:00001414       ??_R0?AVSimpleFlashingDragableImageObject@@@8 00475414     ZoomingDemo.obj
 0003:00001450       ??_R0?AVMazeDemoMain@@@8   00475450     MazeDemoMain.obj
 0003:00001470       ??_R0?AVMazeDemoTileManager@@@8 00475470     MazeDemoMain.obj
 0003:00001498       ??_R0?AVMazeDemoObject@@@8 00475498     MazeDemoObject.obj
 0003:000014bc       ??_R0?AVtype_info@@@8      004754bc     MSVCRTD:std_type_info_static.obj
 0003:00001628       ?SINGLE@@3HA               00475628     Configuration.obj
 0003:0000162c       ?PERFECT@@3HA              0047562c     Configuration.obj
 0003:00001630       ?START_S@@3HA              00475630     Configuration.obj
 0003:00001634       ?finalScore@@3HA           00475634     Configuration.obj
 0003:00001638       ?PLAYER_NAME@@3V?$basic_string@DU?$char_traits@D@std@@V?$allocator@D@2@@std@@A 00475638     Configuration.obj
 0003:00001660       ?_OptionsStorage@?1??__local_stdio_printf_options@@9@4_KA 00475660     controller.obj
 0003:00001670       ?speed@note@@1NA           00475670     note.obj
 0003:0000167c       ?_Stinit@?1??_Init@?$basic_filebuf@DU?$char_traits@D@std@@@std@@IAEXPAU_iobuf@@W4_Initfl@23@@Z@4U_Mbstatet@@A 0047567c     Ranking.obj
 0003:00001688       ?_Psave@?$_Facetptr@V?$codecvt@DDU_Mbstatet@@@std@@@std@@2PBVfacet@locale@2@B 00475688     Ranking.obj
 0003:0000168c       ?g_pManager@ImageManager@@0PAV1@A 0047568c     SimpleImage.obj
 0003:00001694       ___scrt_current_native_startup_state 00475694     MSVCRTD:utility.obj
 0003:00001698       ___scrt_native_startup_lock 00475698     MSVCRTD:utility.obj
 0003:000016c0       ?__type_info_root_node@@3U__type_info_node@@A 004756c0     MSVCRTD:tncleanup.obj
 0003:000016d0       ?_OptionsStorage@?1??__local_stdio_scanf_options@@9@4_KA 004756d0     MSVCRTD:default_local_stdio_options.obj
 0003:000016dc       ___scrt_debugger_hook_flag 004756dc     MSVCRTD:utility_desktop.obj
 0003:00001a9c       ___isa_available           00475a9c     MSVCRTD:cpu_disp.obj
 0003:00001aa0       ___favor                   00475aa0     MSVCRTD:cpu_disp.obj
 0003:00001aa8       ___dyn_tls_dtor_callback   00475aa8     <common>
 0003:00001ab4       ___dyn_tls_init_callback   00475ab4     <common>
 0004:00000000       __imp__QueryPerformanceCounter@4 00476000     kernel32:KERNEL32.dll
 0004:00000004       __imp__GetCurrentProcessId@0 00476004     kernel32:KERNEL32.dll
 0004:00000008       __imp__GetCurrentThreadId@0 00476008     kernel32:KERNEL32.dll
 0004:0000000c       __imp__GetSystemTimeAsFileTime@4 0047600c     kernel32:KERNEL32.dll
 0004:00000010       __imp__InitializeSListHead@4 00476010     kernel32:KERNEL32.dll
 0004:00000014       __imp__IsDebuggerPresent@0 00476014     kernel32:KERNEL32.dll
 0004:00000018       __imp__SetUnhandledExceptionFilter@4 00476018     kernel32:KERNEL32.dll
 0004:0000001c       __imp__GetStartupInfoW@4   0047601c     kernel32:KERNEL32.dll
 0004:00000020       __imp__IsProcessorFeaturePresent@4 00476020     kernel32:KERNEL32.dll
 0004:00000024       __imp__GetModuleHandleW@4  00476024     kernel32:KERNEL32.dll
 0004:00000028       __imp__GetCurrentProcess@0 00476028     kernel32:KERNEL32.dll
 0004:0000002c       __imp__TerminateProcess@8  0047602c     kernel32:KERNEL32.dll
 0004:00000030       __imp__GetCommandLineW@0   00476030     kernel32:KERNEL32.dll
 0004:00000034       __imp__VirtualAlloc@16     00476034     kernel32:KERNEL32.dll
 0004:00000038       __imp__VirtualFree@12      00476038     kernel32:KERNEL32.dll
 0004:0000003c       __imp__WideCharToMultiByte@32 0047603c     kernel32:KERNEL32.dll
 0004:00000040       __imp__UnhandledExceptionFilter@4 00476040     kernel32:KERNEL32.dll
 0004:00000044       \177KERNEL32_NULL_THUNK_DATA 00476044     kernel32:KERNEL32.dll
 0004:0000007c       __imp_?xsgetn@?$basic_streambuf@DU?$char_traits@D@std@@@std@@MAE_JPAD_J@Z 0047607c     msvcprtd:MSVCP140D.dll
 0004:00000080       __imp_?_Init@?$basic_streambuf@DU?$char_traits@D@std@@@std@@IAEXPAPAD0PAH001@Z 00476080     msvcprtd:MSVCP140D.dll
 0004:00000084       __imp_?_Init@?$basic_streambuf@DU?$char_traits@D@std@@@std@@IAEXXZ 00476084     msvcprtd:MSVCP140D.dll
 0004:00000088       __imp_?xsputn@?$basic_streambuf@DU?$char_traits@D@std@@@std@@MAE_JPBD_J@Z 00476088     msvcprtd:MSVCP140D.dll
 0004:0000008c       __imp_??0?$basic_ios@DU?$char_traits@D@std@@@std@@IAE@XZ 0047608c     msvcprtd:MSVCP140D.dll
 0004:00000090       __imp_??0?$basic_ostream@DU?$char_traits@D@std@@@std@@QAE@PAV?$basic_streambuf@DU?$char_traits@D@std@@@1@_N@Z 00476090     msvcprtd:MSVCP140D.dll
 0004:00000094       __imp_??1?$basic_ostream@DU?$char_traits@D@std@@@std@@UAE@XZ 00476094     msvcprtd:MSVCP140D.dll
 0004:00000098       __imp_??6?$basic_ostream@DU?$char_traits@D@std@@@std@@QAEAAV01@H@Z 00476098     msvcprtd:MSVCP140D.dll
 0004:0000009c       __imp_??0?$basic_istream@DU?$char_traits@D@std@@@std@@QAE@PAV?$basic_streambuf@DU?$char_traits@D@std@@@1@_N@Z 0047609c     msvcprtd:MSVCP140D.dll
 0004:000000a0       __imp_??1?$basic_istream@DU?$char_traits@D@std@@@std@@UAE@XZ 004760a0     msvcprtd:MSVCP140D.dll
 0004:000000a4       __imp_?_Ipfx@?$basic_istream@DU?$char_traits@D@std@@@std@@QAE_N_N@Z 004760a4     msvcprtd:MSVCP140D.dll
 0004:000000a8       __imp_?_Fiopen@std@@YAPAU_iobuf@@PBDHH@Z 004760a8     msvcprtd:MSVCP140D.dll
 0004:000000ac       __imp_?showmanyc@?$basic_streambuf@DU?$char_traits@D@std@@@std@@MAE_JXZ 004760ac     msvcprtd:MSVCP140D.dll
 0004:000000b0       __imp_?id@?$codecvt@DDU_Mbstatet@@@std@@2V0locale@2@A 004760b0     msvcprtd:MSVCP140D.dll
 0004:000000b4       __imp_?_Xbad_alloc@std@@YAXXZ 004760b4     msvcprtd:MSVCP140D.dll
 0004:000000b8       __imp_??1?$basic_ios@DU?$char_traits@D@std@@@std@@UAE@XZ 004760b8     msvcprtd:MSVCP140D.dll
 0004:000000bc       __imp_??0_Lockit@std@@QAE@H@Z 004760bc     msvcprtd:MSVCP140D.dll
 0004:000000c0       __imp_??1_Lockit@std@@QAE@XZ 004760c0     msvcprtd:MSVCP140D.dll
 0004:000000c4       __imp_?_Xlength_error@std@@YAXPBD@Z 004760c4     msvcprtd:MSVCP140D.dll
 0004:000000c8       __imp_?uncaught_exception@std@@YA_NXZ 004760c8     msvcprtd:MSVCP140D.dll
 0004:000000cc       __imp_?good@ios_base@std@@QBE_NXZ 004760cc     msvcprtd:MSVCP140D.dll
 0004:000000d0       __imp_?flags@ios_base@std@@QBEHXZ 004760d0     msvcprtd:MSVCP140D.dll
 0004:000000d4       __imp_?width@ios_base@std@@QBE_JXZ 004760d4     msvcprtd:MSVCP140D.dll
 0004:000000d8       __imp_?width@ios_base@std@@QAE_J_J@Z 004760d8     msvcprtd:MSVCP140D.dll
 0004:000000dc       __imp_?sputc@?$basic_streambuf@DU?$char_traits@D@std@@@std@@QAEHD@Z 004760dc     msvcprtd:MSVCP140D.dll
 0004:000000e0       __imp_?sputn@?$basic_streambuf@DU?$char_traits@D@std@@@std@@QAE_JPBD_J@Z 004760e0     msvcprtd:MSVCP140D.dll
 0004:000000e4       __imp_?setstate@?$basic_ios@DU?$char_traits@D@std@@@std@@QAEXH_N@Z 004760e4     msvcprtd:MSVCP140D.dll
 0004:000000e8       __imp_?tie@?$basic_ios@DU?$char_traits@D@std@@@std@@QBEPAV?$basic_ostream@DU?$char_traits@D@std@@@2@XZ 004760e8     msvcprtd:MSVCP140D.dll
 0004:000000ec       __imp_?rdbuf@?$basic_ios@DU?$char_traits@D@std@@@std@@QBEPAV?$basic_streambuf@DU?$char_traits@D@std@@@2@XZ 004760ec     msvcprtd:MSVCP140D.dll
 0004:000000f0       __imp_?fill@?$basic_ios@DU?$char_traits@D@std@@@std@@QBEDXZ 004760f0     msvcprtd:MSVCP140D.dll
 0004:000000f4       __imp_?widen@?$basic_ios@DU?$char_traits@D@std@@@std@@QBEDD@Z 004760f4     msvcprtd:MSVCP140D.dll
 0004:000000f8       __imp_?_Osfx@?$basic_ostream@DU?$char_traits@D@std@@@std@@QAEXXZ 004760f8     msvcprtd:MSVCP140D.dll
 0004:000000fc       __imp_??6?$basic_ostream@DU?$char_traits@D@std@@@std@@QAEAAV01@P6AAAV01@AAV01@@Z@Z 004760fc     msvcprtd:MSVCP140D.dll
 0004:00000100       __imp_?put@?$basic_ostream@DU?$char_traits@D@std@@@std@@QAEAAV12@D@Z 00476100     msvcprtd:MSVCP140D.dll
 0004:00000104       __imp_?flush@?$basic_ostream@DU?$char_traits@D@std@@@std@@QAEAAV12@XZ 00476104     msvcprtd:MSVCP140D.dll
 0004:00000108       __imp_?cout@std@@3V?$basic_ostream@DU?$char_traits@D@std@@@1@A 00476108     msvcprtd:MSVCP140D.dll
 0004:0000010c       __imp_?_Xbad_function_call@std@@YAXXZ 0047610c     msvcprtd:MSVCP140D.dll
 0004:00000110       __imp_??6?$basic_ostream@DU?$char_traits@D@std@@@std@@QAEAAV01@I@Z 00476110     msvcprtd:MSVCP140D.dll
 0004:00000114       __imp_?_Xinvalid_argument@std@@YAXPBD@Z 00476114     msvcprtd:MSVCP140D.dll
 0004:00000118       __imp_?_Xout_of_range@std@@YAXPBD@Z 00476118     msvcprtd:MSVCP140D.dll
 0004:0000011c       __imp_??Bid@locale@std@@QAEIXZ 0047611c     msvcprtd:MSVCP140D.dll
 0004:00000120       __imp_?_Getgloballocale@locale@std@@CAPAV_Locimp@12@XZ 00476120     msvcprtd:MSVCP140D.dll
 0004:00000124       __imp_?always_noconv@codecvt_base@std@@QBE_NXZ 00476124     msvcprtd:MSVCP140D.dll
 0004:00000128       __imp_?in@?$codecvt@DDU_Mbstatet@@@std@@QBEHAAU_Mbstatet@@PBD1AAPBDPAD3AAPAD@Z 00476128     msvcprtd:MSVCP140D.dll
 0004:0000012c       __imp_?out@?$codecvt@DDU_Mbstatet@@@std@@QBEHAAU_Mbstatet@@PBD1AAPBDPAD3AAPAD@Z 0047612c     msvcprtd:MSVCP140D.dll
 0004:00000130       __imp_?unshift@?$codecvt@DDU_Mbstatet@@@std@@QBEHAAU_Mbstatet@@PAD1AAPAD@Z 00476130     msvcprtd:MSVCP140D.dll
 0004:00000134       __imp_?_Getcat@?$codecvt@DDU_Mbstatet@@@std@@SAIPAPBVfacet@locale@2@PBV42@@Z 00476134     msvcprtd:MSVCP140D.dll
 0004:00000138       __imp_??Bios_base@std@@QBE_NXZ 00476138     msvcprtd:MSVCP140D.dll
 0004:0000013c       __imp_??0?$basic_streambuf@DU?$char_traits@D@std@@@std@@IAE@XZ 0047613c     msvcprtd:MSVCP140D.dll
 0004:00000140       __imp_??1?$basic_streambuf@DU?$char_traits@D@std@@@std@@UAE@XZ 00476140     msvcprtd:MSVCP140D.dll
 0004:00000144       __imp_?getloc@?$basic_streambuf@DU?$char_traits@D@std@@@std@@QBE?AVlocale@2@XZ 00476144     msvcprtd:MSVCP140D.dll
 0004:00000148       __imp_?sbumpc@?$basic_streambuf@DU?$char_traits@D@std@@@std@@QAEHXZ 00476148     msvcprtd:MSVCP140D.dll
 0004:0000014c       __imp_?sgetc@?$basic_streambuf@DU?$char_traits@D@std@@@std@@QAEHXZ 0047614c     msvcprtd:MSVCP140D.dll
 0004:00000150       __imp_?snextc@?$basic_streambuf@DU?$char_traits@D@std@@@std@@QAEHXZ 00476150     msvcprtd:MSVCP140D.dll
 0004:00000154       __imp_?eback@?$basic_streambuf@DU?$char_traits@D@std@@@std@@IBEPADXZ 00476154     msvcprtd:MSVCP140D.dll
 0004:00000158       __imp_?gptr@?$basic_streambuf@DU?$char_traits@D@std@@@std@@IBEPADXZ 00476158     msvcprtd:MSVCP140D.dll
 0004:0000015c       __imp_?pptr@?$basic_streambuf@DU?$char_traits@D@std@@@std@@IBEPADXZ 0047615c     msvcprtd:MSVCP140D.dll
 0004:00000160       __imp_?egptr@?$basic_streambuf@DU?$char_traits@D@std@@@std@@IBEPADXZ 00476160     msvcprtd:MSVCP140D.dll
 0004:00000164       __imp_?gbump@?$basic_streambuf@DU?$char_traits@D@std@@@std@@IAEXH@Z 00476164     msvcprtd:MSVCP140D.dll
 0004:00000168       __imp_?setg@?$basic_streambuf@DU?$char_traits@D@std@@@std@@IAEXPAD00@Z 00476168     msvcprtd:MSVCP140D.dll
 0004:0000016c       __imp_?epptr@?$basic_streambuf@DU?$char_traits@D@std@@@std@@IBEPADXZ 0047616c     msvcprtd:MSVCP140D.dll
 0004:00000170       __imp_?_Gndec@?$basic_streambuf@DU?$char_traits@D@std@@@std@@IAEPADXZ 00476170     msvcprtd:MSVCP140D.dll
 0004:00000174       __imp_?_Gninc@?$basic_streambuf@DU?$char_traits@D@std@@@std@@IAEPADXZ 00476174     msvcprtd:MSVCP140D.dll
 0004:00000178       __imp_?_Gnavail@?$basic_streambuf@DU?$char_traits@D@std@@@std@@IBE_JXZ 00476178     msvcprtd:MSVCP140D.dll
 0004:0000017c       __imp_?pbump@?$basic_streambuf@DU?$char_traits@D@std@@@std@@IAEXH@Z 0047617c     msvcprtd:MSVCP140D.dll
 0004:00000180       __imp_?_Pninc@?$basic_streambuf@DU?$char_traits@D@std@@@std@@IAEPADXZ 00476180     msvcprtd:MSVCP140D.dll
 0004:00000184       __imp_?_Pnavail@?$basic_streambuf@DU?$char_traits@D@std@@@std@@IBE_JXZ 00476184     msvcprtd:MSVCP140D.dll
 0004:00000188       \177MSVCP140D_NULL_THUNK_DATA 00476188     msvcprtd:MSVCP140D.dll
 0004:000001e8       __imp__SDL_UpperBlitScaled 004761e8     SDL2:SDL2.dll
 0004:000001ec       __imp__SDL_SetClipRect     004761ec     SDL2:SDL2.dll
 0004:000001f0       __imp__SDL_Quit            004761f0     SDL2:SDL2.dll
 0004:000001f4       __imp__SDL_Init            004761f4     SDL2:SDL2.dll
 0004:000001f8       __imp__SDL_GetTicks        004761f8     SDL2:SDL2.dll
 0004:000001fc       __imp__SDL_RenderPresent   004761fc     SDL2:SDL2.dll
 0004:00000200       __imp__SDL_RenderCopy      00476200     SDL2:SDL2.dll
 0004:00000204       __imp__SDL_UpdateTexture   00476204     SDL2:SDL2.dll
 0004:00000208       __imp__SDL_CreateTexture   00476208     SDL2:SDL2.dll
 0004:0000020c       __imp__SDL_CreateRenderer  0047620c     SDL2:SDL2.dll
 0004:00000210       __imp__SDL_WaitEvent       00476210     SDL2:SDL2.dll
 0004:00000214       __imp__SDL_PollEvent       00476214     SDL2:SDL2.dll
 0004:00000218       __imp__SDL_CreateWindow    00476218     SDL2:SDL2.dll
 0004:0000021c       __imp__SDL_GetError        0047621c     SDL2:SDL2.dll
 0004:00000220       __imp__SDL_RWFromFile      00476220     SDL2:SDL2.dll
 0004:00000224       __imp__SDL_SetMainReady    00476224     SDL2:SDL2.dll
 0004:00000228       __imp__SDL_FillRect        00476228     SDL2:SDL2.dll
 0004:0000022c       __imp__SDL_ShowSimpleMessageBox 0047622c     SDL2:SDL2.dll
 0004:00000230       __imp__SDL_UpperBlit       00476230     SDL2:SDL2.dll
 0004:00000234       __imp__SDL_UnlockSurface   00476234     SDL2:SDL2.dll
 0004:00000238       __imp__SDL_LockSurface     00476238     SDL2:SDL2.dll
 0004:0000023c       __imp__SDL_FreeSurface     0047623c     SDL2:SDL2.dll
 0004:00000240       __imp__SDL_CreateRGBSurface 00476240     SDL2:SDL2.dll
 0004:00000244       \177SDL2_NULL_THUNK_DATA   00476244     SDL2:SDL2.dll
 0004:00000280       __imp__IMG_Load            00476280     SDL2_image:SDL2_image.dll
 0004:00000284       \177SDL2_image_NULL_THUNK_DATA 00476284     SDL2_image:SDL2_image.dll
 0004:000002b0       __imp__Mix_OpenAudio       004762b0     SDL2_mixer:SDL2_mixer.dll
 0004:000002b4       __imp__Mix_LoadWAV_RW      004762b4     SDL2_mixer:SDL2_mixer.dll
 0004:000002b8       __imp__Mix_PlayChannelTimed 004762b8     SDL2_mixer:SDL2_mixer.dll
 0004:000002bc       \177SDL2_mixer_NULL_THUNK_DATA 004762bc     SDL2_mixer:SDL2_mixer.dll
 0004:000002e8       __imp__TTF_CloseFont       004762e8     SDL2_ttf:SDL2_ttf.dll
 0004:000002ec       __imp__TTF_OpenFont        004762ec     SDL2_ttf:SDL2_ttf.dll
 0004:000002f0       __imp__TTF_Quit            004762f0     SDL2_ttf:SDL2_ttf.dll
 0004:000002f4       __imp__TTF_RenderText_Solid 004762f4     SDL2_ttf:SDL2_ttf.dll
 0004:000002f8       __imp__TTF_Init            004762f8     SDL2_ttf:SDL2_ttf.dll
 0004:000002fc       \177SDL2_ttf_NULL_THUNK_DATA 004762fc     SDL2_ttf:SDL2_ttf.dll
 0004:0000032c       __imp____current_exception 0047632c     vcruntimed:VCRUNTIME140D.dll
 0004:00000330       __imp____current_exception_context 00476330     vcruntimed:VCRUNTIME140D.dll
 0004:00000334       __imp____std_type_info_destroy_list 00476334     vcruntimed:VCRUNTIME140D.dll
 0004:00000338       __imp____RTDynamicCast     00476338     vcruntimed:VCRUNTIME140D.dll
 0004:0000033c       __imp___purecall           0047633c     vcruntimed:VCRUNTIME140D.dll
 0004:00000340       __imp__memset              00476340     vcruntimed:VCRUNTIME140D.dll
 0004:00000344       __imp___except_handler4_common 00476344     vcruntimed:VCRUNTIME140D.dll
 0004:00000348       __imp____CxxFrameHandler3  00476348     vcruntimed:VCRUNTIME140D.dll
 0004:0000034c       __imp__memmove             0047634c     vcruntimed:VCRUNTIME140D.dll
 0004:00000350       __imp____std_exception_copy 00476350     vcruntimed:VCRUNTIME140D.dll
 0004:00000354       __imp____std_exception_destroy 00476354     vcruntimed:VCRUNTIME140D.dll
 0004:00000358       __imp___CxxThrowException@8 00476358     vcruntimed:VCRUNTIME140D.dll
 0004:0000035c       __imp__memcmp              0047635c     vcruntimed:VCRUNTIME140D.dll
 0004:00000360       __imp__memcpy              00476360     vcruntimed:VCRUNTIME140D.dll
 0004:00000364       \177VCRUNTIME140D_NULL_THUNK_DATA 00476364     vcruntimed:VCRUNTIME140D.dll
 0004:00000398       __imp__strcpy              00476398     ucrtd:ucrtbased.dll
 0004:0000039c       __imp___errno              0047639c     ucrtd:ucrtbased.dll
 0004:000003a0       __imp__strtol              004763a0     ucrtd:ucrtbased.dll
 0004:000003a4       __imp___get_stream_buffer_pointers 004763a4     ucrtd:ucrtbased.dll
 0004:000003a8       __imp__fflush              004763a8     ucrtd:ucrtbased.dll
 0004:000003ac       __imp__fgetc               004763ac     ucrtd:ucrtbased.dll
 0004:000003b0       __imp__fgetpos             004763b0     ucrtd:ucrtbased.dll
 0004:000003b4       __imp__fputc               004763b4     ucrtd:ucrtbased.dll
 0004:000003b8       __imp__fread               004763b8     ucrtd:ucrtbased.dll
 0004:000003bc       __imp__fsetpos             004763bc     ucrtd:ucrtbased.dll
 0004:000003c0       __imp___fseeki64           004763c0     ucrtd:ucrtbased.dll
 0004:000003c4       __imp__fwrite              004763c4     ucrtd:ucrtbased.dll
 0004:000003c8       __imp__setvbuf             004763c8     ucrtd:ucrtbased.dll
 0004:000003cc       __imp__ungetc              004763cc     ucrtd:ucrtbased.dll
 0004:000003d0       __imp___lock_file          004763d0     ucrtd:ucrtbased.dll
 0004:000003d4       __imp___unlock_file        004763d4     ucrtd:ucrtbased.dll
 0004:000003d8       __imp__strtok              004763d8     ucrtd:ucrtbased.dll
 0004:000003dc       __imp___free_dbg           004763dc     ucrtd:ucrtbased.dll
 0004:000003e0       __imp___malloc_dbg         004763e0     ucrtd:ucrtbased.dll
 0004:000003e4       __imp___seh_filter_exe     004763e4     ucrtd:ucrtbased.dll
 0004:000003e8       __imp__puts                004763e8     ucrtd:ucrtbased.dll
 0004:000003ec       __imp____setusermatherr    004763ec     ucrtd:ucrtbased.dll
 0004:000003f0       __imp___configure_narrow_argv 004763f0     ucrtd:ucrtbased.dll
 0004:000003f4       __imp___initialize_narrow_environment 004763f4     ucrtd:ucrtbased.dll
 0004:000003f8       __imp___get_initial_narrow_environment 004763f8     ucrtd:ucrtbased.dll
 0004:000003fc       __imp___initterm           004763fc     ucrtd:ucrtbased.dll
 0004:00000400       __imp___initterm_e         00476400     ucrtd:ucrtbased.dll
 0004:00000404       __imp__exit                00476404     ucrtd:ucrtbased.dll
 0004:00000408       __imp___exit               00476408     ucrtd:ucrtbased.dll
 0004:0000040c       __imp___set_fmode          0047640c     ucrtd:ucrtbased.dll
 0004:00000410       __imp____p___argc          00476410     ucrtd:ucrtbased.dll
 0004:00000414       __imp____p___argv          00476414     ucrtd:ucrtbased.dll
 0004:00000418       __imp___cexit              00476418     ucrtd:ucrtbased.dll
 0004:0000041c       __imp___c_exit             0047641c     ucrtd:ucrtbased.dll
 0004:00000420       __imp___register_thread_local_exe_atexit_callback 00476420     ucrtd:ucrtbased.dll
 0004:00000424       __imp___configthreadlocale 00476424     ucrtd:ucrtbased.dll
 0004:00000428       __imp___set_new_mode       00476428     ucrtd:ucrtbased.dll
 0004:0000042c       __imp____p__commode        0047642c     ucrtd:ucrtbased.dll
 0004:00000430       __imp___callnewh           00476430     ucrtd:ucrtbased.dll
 0004:00000434       __imp__malloc              00476434     ucrtd:ucrtbased.dll
 0004:00000438       __imp___seh_filter_dll     00476438     ucrtd:ucrtbased.dll
 0004:0000043c       __imp___initialize_onexit_table 0047643c     ucrtd:ucrtbased.dll
 0004:00000440       __imp___register_onexit_function 00476440     ucrtd:ucrtbased.dll
 0004:00000444       __imp___execute_onexit_table 00476444     ucrtd:ucrtbased.dll
 0004:00000448       __imp___crt_atexit         00476448     ucrtd:ucrtbased.dll
 0004:0000044c       __imp___crt_at_quick_exit  0047644c     ucrtd:ucrtbased.dll
 0004:00000450       __imp___controlfp_s        00476450     ucrtd:ucrtbased.dll
 0004:00000454       __imp__terminate           00476454     ucrtd:ucrtbased.dll
 0004:00000458       __imp__strcmp              00476458     ucrtd:ucrtbased.dll
 0004:0000045c       __imp___time64             0047645c     ucrtd:ucrtbased.dll
 0004:00000460       __imp__srand               00476460     ucrtd:ucrtbased.dll
 0004:00000464       __imp__sqrt                00476464     ucrtd:ucrtbased.dll
 0004:00000468       __imp___CrtDumpMemoryLeaks 00476468     ucrtd:ucrtbased.dll
 0004:0000046c       __imp__fopen               0047646c     ucrtd:ucrtbased.dll
 0004:00000470       __imp__fgets               00476470     ucrtd:ucrtbased.dll
 0004:00000474       __imp__fclose              00476474     ucrtd:ucrtbased.dll
 0004:00000478       __imp__atoi                00476478     ucrtd:ucrtbased.dll
 0004:0000047c       __imp____stdio_common_vsprintf 0047647c     ucrtd:ucrtbased.dll
 0004:00000480       __imp__sin                 00476480     ucrtd:ucrtbased.dll
 0004:00000484       __imp__cos                 00476484     ucrtd:ucrtbased.dll
 0004:00000488       __imp__atan                00476488     ucrtd:ucrtbased.dll
 0004:0000048c       __imp__rand                0047648c     ucrtd:ucrtbased.dll
 0004:00000490       __imp____stdio_common_vfprintf 00476490     ucrtd:ucrtbased.dll
 0004:00000494       __imp____acrt_iob_func     00476494     ucrtd:ucrtbased.dll
 0004:00000498       __imp__strlen              00476498     ucrtd:ucrtbased.dll
 0004:0000049c       __imp___CrtDbgReport       0047649c     ucrtd:ucrtbased.dll
 0004:000004a0       __imp___invalid_parameter  004764a0     ucrtd:ucrtbased.dll
 0004:000004a4       __imp___set_app_type       004764a4     ucrtd:ucrtbased.dll
 0004:000004a8       \177ucrtbased_NULL_THUNK_DATA 004764a8     ucrtd:ucrtbased.dll
 0004:00000508       __IMPORT_DESCRIPTOR_SDL2   00476508     SDL2:SDL2.dll
 0004:0000051c       __IMPORT_DESCRIPTOR_SDL2_image 0047651c     SDL2_image:SDL2_image.dll
 0004:00000530       __IMPORT_DESCRIPTOR_SDL2_ttf 00476530     SDL2_ttf:SDL2_ttf.dll
 0004:00000544       __IMPORT_DESCRIPTOR_SDL2_mixer 00476544     SDL2_mixer:SDL2_mixer.dll
 0004:00000558       __IMPORT_DESCRIPTOR_MSVCP140D 00476558     msvcprtd:MSVCP140D.dll
 0004:0000056c       __IMPORT_DESCRIPTOR_VCRUNTIME140D 0047656c     vcruntimed:VCRUNTIME140D.dll
 0004:00000580       __IMPORT_DESCRIPTOR_ucrtbased 00476580     ucrtd:ucrtbased.dll
 0004:00000594       __IMPORT_DESCRIPTOR_KERNEL32 00476594     kernel32:KERNEL32.dll
 0004:000005a8       __NULL_IMPORT_DESCRIPTOR   004765a8     SDL2:SDL2.dll
 0005:00000000       ___guard_check_icall_fptr  00479000     MSVCRTD:guard_support.obj
 0005:00000004       ___guard_xfg_check_icall_fptr 00479004     MSVCRTD:guard_support.obj

 entry point at        0001:000027d8

 Static symbols

 0002:fffa9000       __ehfuncinfo$??$_Deallocate@$07$0A@@std@@YAXPAXI@Z 00400000     BaseEngine.obj
 0002:fffa9000       __ehfuncinfo$??$_Deallocate_plain@V?$allocator@U_Container_proxy@std@@@std@@@std@@YAXAAV?$allocator@U_Container_proxy@std@@@0@QAU_Container_proxy@0@@Z 00400000     BaseEngine.obj
 0001:fffff000       __ehhandler$??$_Deallocate@$07$0A@@std@@YAXPAXI@Z 00400000 f   BaseEngine.obj
 0001:fffff000       __ehhandler$??$_Deallocate_plain@V?$allocator@U_Container_proxy@std@@@std@@@std@@YAXAAV?$allocator@U_Container_proxy@std@@@0@QAU_Container_proxy@0@@Z 00400000 f   BaseEngine.obj
 0002:fffa9000       __catchsym$??$?6U?$char_traits@D@std@@@std@@YAAAV?$basic_ostream@DU?$char_traits@D@std@@@0@AAV10@PBD@Z$3 00400000     BouncingBall.obj
 0002:fffa9000       __ehfuncinfo$??1_Sentry_base@?$basic_ostream@DU?$char_traits@D@std@@@std@@QAE@XZ 00400000     BouncingBall.obj
 0002:fffa9000       __ehfuncinfo$??1sentry@?$basic_ostream@DU?$char_traits@D@std@@@std@@QAE@XZ 00400000     BouncingBall.obj
 0001:fffff000       __ehhandler$??1_Sentry_base@?$basic_ostream@DU?$char_traits@D@std@@@std@@QAE@XZ 00400000 f   BouncingBall.obj
 0001:fffff000       __ehhandler$??1sentry@?$basic_ostream@DU?$char_traits@D@std@@@std@@QAE@XZ 00400000 f   BouncingBall.obj
 0001:fffff000       __unwindfunclet$??$?6U?$char_traits@D@std@@@std@@YAAAV?$basic_ostream@DU?$char_traits@D@std@@@0@AAV10@PBD@Z$2 00400000 f   BouncingBall.obj
 0001:fffff000       __unwindfunclet$??0sentry@?$basic_ostream@DU?$char_traits@D@std@@@std@@QAE@AAV12@@Z$0 00400000 f   BouncingBall.obj
 0002:fffa9000       __unwindtable$??0sentry@?$basic_ostream@DU?$char_traits@D@std@@@std@@QAE@AAV12@@Z 00400000     BouncingBall.obj
 0002:fffa9000       __catchsym$??$?6U?$char_traits@D@std@@@std@@YAAAV?$basic_ostream@DU?$char_traits@D@std@@@0@AAV10@PBD@Z$3 00400000     BouncingBallMain.obj
 0002:fffa9000       __catchsym$??$_Insert_string@DU?$char_traits@D@std@@I@std@@YAAAV?$basic_ostream@DU?$char_traits@D@std@@@0@AAV10@QBDI@Z$3 00400000     BouncingBallMain.obj
 0002:fffa9000       __catchsym$??$_Resize_reallocate@U_Value_init_tag@std@@@?$vector@PAVDisplayableObject@@V?$allocator@PAVDisplayableObject@@@std@@@std@@AAEXIABU_Value_init_tag@1@@Z$2 00400000     BouncingBallMain.obj
 0002:fffa9000       __ehfuncinfo$??$_Deallocate@$07$0A@@std@@YAXPAXI@Z 00400000     BouncingBallMain.obj
 0002:fffa9000       __ehfuncinfo$??$_Deallocate_plain@V?$allocator@U_Container_proxy@std@@@std@@@std@@YAXAAV?$allocator@U_Container_proxy@std@@@0@QAU_Container_proxy@0@@Z 00400000     BouncingBallMain.obj
 0002:fffa9000       __ehfuncinfo$??$_Freenode0@V?$allocator@U?$_Tree_node@U?$pair@$$CBV?$basic_string@DU?$char_traits@D@std@@V?$allocator@D@2@@std@@V?$shared_ptr@VRawImageData@@@2@@std@@PAX@std@@@std@@@?$_Tree_node@U?$pair@$$CBV?$basic_string@DU?$char_traits@D@std@@V?$allocator@D@2@@std@@V?$shared_ptr@VRawImageData@@@2@@std@@PAX@std@@SAXAAV?$allocator@U?$_Tree_node@U?$pair@$$CBV?$basic_string@DU?$char_traits@D@std@@V?$allocator@D@2@@std@@V?$shared_ptr@VRawImageData@@@2@@std@@PAX@std@@@1@PAU01@@Z 00400000     BouncingBallMain.obj
 0002:fffa9000       __ehfuncinfo$??$_Freenode0@V?$allocator@U?$_Tree_node@U?$pair@$$CBV?$basic_string@DU?$char_traits@D@std@@V?$allocator@D@2@@std@@V?$weak_ptr@VRawImageData@@@2@@std@@PAX@std@@@std@@@?$_Tree_node@U?$pair@$$CBV?$basic_string@DU?$char_traits@D@std@@V?$allocator@D@2@@std@@V?$weak_ptr@VRawImageData@@@2@@std@@PAX@std@@SAXAAV?$allocator@U?$_Tree_node@U?$pair@$$CBV?$basic_string@DU?$char_traits@D@std@@V?$allocator@D@2@@std@@V?$weak_ptr@VRawImageData@@@2@@std@@PAX@std@@@1@PAU01@@Z 00400000     BouncingBallMain.obj
 0002:fffa9000       __ehfuncinfo$??$_Freenode@V?$allocator@U?$_Tree_node@U?$pair@$$CBV?$basic_string@DU?$char_traits@D@std@@V?$allocator@D@2@@std@@V?$shared_ptr@VRawImageData@@@2@@std@@PAX@std@@@std@@@?$_Tree_node@U?$pair@$$CBV?$basic_string@DU?$char_traits@D@std@@V?$allocator@D@2@@std@@V?$shared_ptr@VRawImageData@@@2@@std@@PAX@std@@SAXAAV?$allocator@U?$_Tree_node@U?$pair@$$CBV?$basic_string@DU?$char_traits@D@std@@V?$allocator@D@2@@std@@V?$shared_ptr@VRawImageData@@@2@@std@@PAX@std@@@1@PAU01@@Z 00400000     BouncingBallMain.obj
 0002:fffa9000       __ehfuncinfo$??$_Freenode@V?$allocator@U?$_Tree_node@U?$pair@$$CBV?$basic_string@DU?$char_traits@D@std@@V?$allocator@D@2@@std@@V?$weak_ptr@VRawImageData@@@2@@std@@PAX@std@@@std@@@?$_Tree_node@U?$pair@$$CBV?$basic_string@DU?$char_traits@D@std@@V?$allocator@D@2@@std@@V?$weak_ptr@VRawImageData@@@2@@std@@PAX@std@@SAXAAV?$allocator@U?$_Tree_node@U?$pair@$$CBV?$basic_string@DU?$char_traits@D@std@@V?$allocator@D@2@@std@@V?$weak_ptr@VRawImageData@@@2@@std@@PAX@std@@@1@PAU01@@Z 00400000     BouncingBallMain.obj
 0002:fffa9000       __ehfuncinfo$??$erase@V?$_Tree_iterator@V?$_Tree_val@U?$_Tree_simple_types@U?$pair@$$CBV?$basic_string@DU?$char_traits@D@std@@V?$allocator@D@2@@std@@V?$weak_ptr@VRawImageData@@@2@@std@@@std@@@std@@@std@@$0A@@?$_Tree@V?$_Tmap_traits@V?$basic_string@DU?$char_traits@D@std@@V?$allocator@D@2@@std@@V?$weak_ptr@VRawImageData@@@2@U?$less@V?$basic_string@DU?$char_traits@D@std@@V?$allocator@D@2@@std@@@2@V?$allocator@U?$pair@$$CBV?$basic_string@DU?$char_traits@D@std@@V?$allocator@D@2@@std@@V?$weak_ptr@VRawImageData@@@2@@std@@@2@$0A@@std@@@std@@QAE?AV?$_Tree_iterator@V?$_Tree_val@U?$_Tree_simple_types@U?$pair@$$CBV?$basic_string@DU?$char_traits@D@std@@V?$allocator@D@2@@std@@V?$weak_ptr@VRawImageData@@@2@@std@@@std@@@std@@@1@V21@@Z 00400000     BouncingBallMain.obj
 0002:fffa9000       __ehfuncinfo$??0?$basic_string@DU?$char_traits@D@std@@V?$allocator@D@2@@std@@QAE@$$QAV01@@Z 00400000     BouncingBallMain.obj
 0002:fffa9000       __ehfuncinfo$??1?$_Alloc_construct_ptr@V?$allocator@U?$_Tree_node@U?$pair@$$CBV?$basic_string@DU?$char_traits@D@std@@V?$allocator@D@2@@std@@V?$shared_ptr@VRawImageData@@@2@@std@@PAX@std@@@std@@@std@@QAE@XZ 00400000     BouncingBallMain.obj
 0002:fffa9000       __ehfuncinfo$??1?$_Alloc_construct_ptr@V?$allocator@U?$_Tree_node@U?$pair@$$CBV?$basic_string@DU?$char_traits@D@std@@V?$allocator@D@2@@std@@V?$weak_ptr@VRawImageData@@@2@@std@@PAX@std@@@std@@@std@@QAE@XZ 00400000     BouncingBallMain.obj
 0002:fffa9000       __ehfuncinfo$??1?$_Tree_temp_node@V?$allocator@U?$_Tree_node@U?$pair@$$CBV?$basic_string@DU?$char_traits@D@std@@V?$allocator@D@2@@std@@V?$shared_ptr@VRawImageData@@@2@@std@@PAX@std@@@std@@@std@@QAE@XZ 00400000     BouncingBallMain.obj
 0002:fffa9000       __ehfuncinfo$??1?$_Tree_temp_node@V?$allocator@U?$_Tree_node@U?$pair@$$CBV?$basic_string@DU?$char_traits@D@std@@V?$allocator@D@2@@std@@V?$weak_ptr@VRawImageData@@@2@@std@@PAX@std@@@std@@@std@@QAE@XZ 00400000     BouncingBallMain.obj
 0002:fffa9000       __ehfuncinfo$??1RawImageData@@QAE@XZ 00400000     BouncingBallMain.obj
 0002:fffa9000       __ehfuncinfo$??1_Sentry_base@?$basic_ostream@DU?$char_traits@D@std@@@std@@QAE@XZ 00400000     BouncingBallMain.obj
 0002:fffa9000       __ehfuncinfo$??1sentry@?$basic_ostream@DU?$char_traits@D@std@@@std@@QAE@XZ 00400000     BouncingBallMain.obj
 0002:fffa9000       __ehfuncinfo$?_Erase_unchecked@?$_Tree@V?$_Tmap_traits@V?$basic_string@DU?$char_traits@D@std@@V?$allocator@D@2@@std@@V?$weak_ptr@VRawImageData@@@2@U?$less@V?$basic_string@DU?$char_traits@D@std@@V?$allocator@D@2@@std@@@2@V?$allocator@U?$pair@$$CBV?$basic_string@DU?$char_traits@D@std@@V?$allocator@D@2@@std@@V?$weak_ptr@VRawImageData@@@2@@std@@@2@$0A@@std@@@std@@AAEPAU?$_Tree_node@U?$pair@$$CBV?$basic_string@DU?$char_traits@D@std@@V?$allocator@D@2@@std@@V?$weak_ptr@VRawImageData@@@2@@std@@PAX@2@V?$_Tree_unchecked_const_iterator@V?$_Tree_val@U?$_Tree_simple_types@U?$pair@$$CBV?$basic_string@DU?$char_traits@D@std@@V?$allocator@D@2@@std@@V?$weak_ptr@VRawImageData@@@2@@std@@@std@@@std@@U_Iterator_base0@2@@2@@Z 00400000     BouncingBallMain.obj
 0002:fffa9000       __ehfuncinfo$?_Extract@?$_Tree_val@U?$_Tree_simple_types@U?$pair@$$CBV?$basic_string@DU?$char_traits@D@std@@V?$allocator@D@2@@std@@V?$weak_ptr@VRawImageData@@@2@@std@@@std@@@std@@QAEPAU?$_Tree_node@U?$pair@$$CBV?$basic_string@DU?$char_traits@D@std@@V?$allocator@D@2@@std@@V?$weak_ptr@VRawImageData@@@2@@std@@PAX@2@V?$_Tree_unchecked_const_iterator@V?$_Tree_val@U?$_Tree_simple_types@U?$pair@$$CBV?$basic_string@DU?$char_traits@D@std@@V?$allocator@D@2@@std@@V?$weak_ptr@VRawImageData@@@2@@std@@@std@@@std@@U_Iterator_base0@2@@2@@Z 00400000     BouncingBallMain.obj
 0002:fffa9000       __ehfuncinfo$?_Take_contents@?$basic_string@DU?$char_traits@D@std@@V?$allocator@D@2@@std@@AAEXAAV12@U?$integral_constant@_N$00@2@@Z 00400000     BouncingBallMain.obj
 0002:fffa9000       __ehfuncinfo$?_Tidy_deallocate@?$basic_string@DU?$char_traits@D@std@@V?$allocator@D@2@@std@@AAEXXZ 00400000     BouncingBallMain.obj
 0002:fffa9000       __ehfuncinfo$?c_str@?$basic_string@DU?$char_traits@D@std@@V?$allocator@D@2@@std@@QBEPBDXZ 00400000     BouncingBallMain.obj
 0002:fffa9000       __ehfuncinfo$?compare@?$basic_string@DU?$char_traits@D@std@@V?$allocator@D@2@@std@@QBEHABV12@@Z 00400000     BouncingBallMain.obj
 0002:fffa9000       __ehfuncinfo$?data@?$basic_string@DU?$char_traits@D@std@@V?$allocator@D@2@@std@@QBEPBDXZ 00400000     BouncingBallMain.obj
 0002:fffa9000       __ehfuncinfo$?getImagePtrbyURL@ImageManager@@QAE?AV?$shared_ptr@VRawImageData@@@std@@V?$basic_string@DU?$char_traits@D@std@@V?$allocator@D@2@@3@_N1@Z 00400000     BouncingBallMain.obj
 0001:fffff000       __ehhandler$??$_Deallocate@$07$0A@@std@@YAXPAXI@Z 00400000 f   BouncingBallMain.obj
 0001:fffff000       __ehhandler$??$_Deallocate_plain@V?$allocator@U_Container_proxy@std@@@std@@@std@@YAXAAV?$allocator@U_Container_proxy@std@@@0@QAU_Container_proxy@0@@Z 00400000 f   BouncingBallMain.obj
 0001:fffff000       __ehhandler$??$_Freenode0@V?$allocator@U?$_Tree_node@U?$pair@$$CBV?$basic_string@DU?$char_traits@D@std@@V?$allocator@D@2@@std@@V?$shared_ptr@VRawImageData@@@2@@std@@PAX@std@@@std@@@?$_Tree_node@U?$pair@$$CBV?$basic_string@DU?$char_traits@D@std@@V?$allocator@D@2@@std@@V?$shared_ptr@VRawImageData@@@2@@std@@PAX@std@@SAXAAV?$allocator@U?$_Tree_node@U?$pair@$$CBV?$basic_string@DU?$char_traits@D@std@@V?$allocator@D@2@@std@@V?$shared_ptr@VRawImageData@@@2@@std@@PAX@std@@@1@PAU01@@Z 00400000 f   BouncingBallMain.obj
 0001:fffff000       __ehhandler$??$_Freenode0@V?$allocator@U?$_Tree_node@U?$pair@$$CBV?$basic_string@DU?$char_traits@D@std@@V?$allocator@D@2@@std@@V?$weak_ptr@VRawImageData@@@2@@std@@PAX@std@@@std@@@?$_Tree_node@U?$pair@$$CBV?$basic_string@DU?$char_traits@D@std@@V?$allocator@D@2@@std@@V?$weak_ptr@VRawImageData@@@2@@std@@PAX@std@@SAXAAV?$allocator@U?$_Tree_node@U?$pair@$$CBV?$basic_string@DU?$char_traits@D@std@@V?$allocator@D@2@@std@@V?$weak_ptr@VRawImageData@@@2@@std@@PAX@std@@@1@PAU01@@Z 00400000 f   BouncingBallMain.obj
 0001:fffff000       __ehhandler$??$_Freenode@V?$allocator@U?$_Tree_node@U?$pair@$$CBV?$basic_string@DU?$char_traits@D@std@@V?$allocator@D@2@@std@@V?$shared_ptr@VRawImageData@@@2@@std@@PAX@std@@@std@@@?$_Tree_node@U?$pair@$$CBV?$basic_string@DU?$char_traits@D@std@@V?$allocator@D@2@@std@@V?$shared_ptr@VRawImageData@@@2@@std@@PAX@std@@SAXAAV?$allocator@U?$_Tree_node@U?$pair@$$CBV?$basic_string@DU?$char_traits@D@std@@V?$allocator@D@2@@std@@V?$shared_ptr@VRawImageData@@@2@@std@@PAX@std@@@1@PAU01@@Z 00400000 f   BouncingBallMain.obj
 0001:fffff000       __ehhandler$??$_Freenode@V?$allocator@U?$_Tree_node@U?$pair@$$CBV?$basic_string@DU?$char_traits@D@std@@V?$allocator@D@2@@std@@V?$weak_ptr@VRawImageData@@@2@@std@@PAX@std@@@std@@@?$_Tree_node@U?$pair@$$CBV?$basic_string@DU?$char_traits@D@std@@V?$allocator@D@2@@std@@V?$weak_ptr@VRawImageData@@@2@@std@@PAX@std@@SAXAAV?$allocator@U?$_Tree_node@U?$pair@$$CBV?$basic_string@DU?$char_traits@D@std@@V?$allocator@D@2@@std@@V?$weak_ptr@VRawImageData@@@2@@std@@PAX@std@@@1@PAU01@@Z 00400000 f   BouncingBallMain.obj
 0001:fffff000       __ehhandler$??$_Resize_reallocate@U_Value_init_tag@std@@@?$vector@PAVDisplayableObject@@V?$allocator@PAVDisplayableObject@@@std@@@std@@AAEXIABU_Value_init_tag@1@@Z 00400000 f   BouncingBallMain.obj
 0001:fffff000       __ehhandler$??$erase@V?$_Tree_iterator@V?$_Tree_val@U?$_Tree_simple_types@U?$pair@$$CBV?$basic_string@DU?$char_traits@D@std@@V?$allocator@D@2@@std@@V?$weak_ptr@VRawImageData@@@2@@std@@@std@@@std@@@std@@$0A@@?$_Tree@V?$_Tmap_traits@V?$basic_string@DU?$char_traits@D@std@@V?$allocator@D@2@@std@@V?$weak_ptr@VRawImageData@@@2@U?$less@V?$basic_string@DU?$char_traits@D@std@@V?$allocator@D@2@@std@@@2@V?$allocator@U?$pair@$$CBV?$basic_string@DU?$char_traits@D@std@@V?$allocator@D@2@@std@@V?$weak_ptr@VRawImageData@@@2@@std@@@2@$0A@@std@@@std@@QAE?AV?$_Tree_iterator@V?$_Tree_val@U?$_Tree_simple_types@U?$pair@$$CBV?$basic_string@DU?$char_traits@D@std@@V?$allocator@D@2@@std@@V?$weak_ptr@VRawImageData@@@2@@std@@@std@@@std@@@1@V21@@Z 00400000 f   BouncingBallMain.obj
 0001:fffff000       __ehhandler$??0?$basic_string@DU?$char_traits@D@std@@V?$allocator@D@2@@std@@QAE@$$QAV01@@Z 00400000 f   BouncingBallMain.obj
 0001:fffff000       __ehhandler$??1?$_Alloc_construct_ptr@V?$allocator@U?$_Tree_node@U?$pair@$$CBV?$basic_string@DU?$char_traits@D@std@@V?$allocator@D@2@@std@@V?$shared_ptr@VRawImageData@@@2@@std@@PAX@std@@@std@@@std@@QAE@XZ 00400000 f   BouncingBallMain.obj
 0001:fffff000       __ehhandler$??1?$_Alloc_construct_ptr@V?$allocator@U?$_Tree_node@U?$pair@$$CBV?$basic_string@DU?$char_traits@D@std@@V?$allocator@D@2@@std@@V?$weak_ptr@VRawImageData@@@2@@std@@PAX@std@@@std@@@std@@QAE@XZ 00400000 f   BouncingBallMain.obj
 0001:fffff000       __ehhandler$??1?$_Tree_temp_node@V?$allocator@U?$_Tree_node@U?$pair@$$CBV?$basic_string@DU?$char_traits@D@std@@V?$allocator@D@2@@std@@V?$shared_ptr@VRawImageData@@@2@@std@@PAX@std@@@std@@@std@@QAE@XZ 00400000 f   BouncingBallMain.obj
 0001:fffff000       __ehhandler$??1?$_Tree_temp_node@V?$allocator@U?$_Tree_node@U?$pair@$$CBV?$basic_string@DU?$char_traits@D@std@@V?$allocator@D@2@@std@@V?$weak_ptr@VRawImageData@@@2@@std@@PAX@std@@@std@@@std@@QAE@XZ 00400000 f   BouncingBallMain.obj
 0001:fffff000       __ehhandler$??1RawImageData@@QAE@XZ 00400000 f   BouncingBallMain.obj
 0001:fffff000       __ehhandler$??1_Sentry_base@?$basic_ostream@DU?$char_traits@D@std@@@std@@QAE@XZ 00400000 f   BouncingBallMain.obj
 0001:fffff000       __ehhandler$??1sentry@?$basic_ostream@DU?$char_traits@D@std@@@std@@QAE@XZ 00400000 f   BouncingBallMain.obj
 0001:fffff000       __ehhandler$?_Erase_unchecked@?$_Tree@V?$_Tmap_traits@V?$basic_string@DU?$char_traits@D@std@@V?$allocator@D@2@@std@@V?$weak_ptr@VRawImageData@@@2@U?$less@V?$basic_string@DU?$char_traits@D@std@@V?$allocator@D@2@@std@@@2@V?$allocator@U?$pair@$$CBV?$basic_string@DU?$char_traits@D@std@@V?$allocator@D@2@@std@@V?$weak_ptr@VRawImageData@@@2@@std@@@2@$0A@@std@@@std@@AAEPAU?$_Tree_node@U?$pair@$$CBV?$basic_string@DU?$char_traits@D@std@@V?$allocator@D@2@@std@@V?$weak_ptr@VRawImageData@@@2@@std@@PAX@2@V?$_Tree_unchecked_const_iterator@V?$_Tree_val@U?$_Tree_simple_types@U?$pair@$$CBV?$basic_string@DU?$char_traits@D@std@@V?$allocator@D@2@@std@@V?$weak_ptr@VRawImageData@@@2@@std@@@std@@@std@@U_Iterator_base0@2@@2@@Z 00400000 f   BouncingBallMain.obj
 0001:fffff000       __ehhandler$?_Extract@?$_Tree_val@U?$_Tree_simple_types@U?$pair@$$CBV?$basic_string@DU?$char_traits@D@std@@V?$allocator@D@2@@std@@V?$weak_ptr@VRawImageData@@@2@@std@@@std@@@std@@QAEPAU?$_Tree_node@U?$pair@$$CBV?$basic_string@DU?$char_traits@D@std@@V?$allocator@D@2@@std@@V?$weak_ptr@VRawImageData@@@2@@std@@PAX@2@V?$_Tree_unchecked_const_iterator@V?$_Tree_val@U?$_Tree_simple_types@U?$pair@$$CBV?$basic_string@DU?$char_traits@D@std@@V?$allocator@D@2@@std@@V?$weak_ptr@VRawImageData@@@2@@std@@@std@@@std@@U_Iterator_base0@2@@2@@Z 00400000 f   BouncingBallMain.obj
 0001:fffff000       __ehhandler$?_Take_contents@?$basic_string@DU?$char_traits@D@std@@V?$allocator@D@2@@std@@AAEXAAV12@U?$integral_constant@_N$00@2@@Z 00400000 f   BouncingBallMain.obj
 0001:fffff000       __ehhandler$?_Tidy_deallocate@?$basic_string@DU?$char_traits@D@std@@V?$allocator@D@2@@std@@AAEXXZ 00400000 f   BouncingBallMain.obj
 0001:fffff000       __ehhandler$?c_str@?$basic_string@DU?$char_traits@D@std@@V?$allocator@D@2@@std@@QBEPBDXZ 00400000 f   BouncingBallMain.obj
 0001:fffff000       __ehhandler$?compare@?$basic_string@DU?$char_traits@D@std@@V?$allocator@D@2@@std@@QBEHABV12@@Z 00400000 f   BouncingBallMain.obj
 0001:fffff000       __ehhandler$?data@?$basic_string@DU?$char_traits@D@std@@V?$allocator@D@2@@std@@QBEPBDXZ 00400000 f   BouncingBallMain.obj
 0001:fffff000       __unwindfunclet$??$?0PAD$0A@@?$basic_string@DU?$char_traits@D@std@@V?$allocator@D@2@@std@@QAE@PAD0ABV?$allocator@D@1@@Z$0 00400000 f   BouncingBallMain.obj
 0001:fffff000       __unwindfunclet$??$?0U?$pair@V?$basic_string@DU?$char_traits@D@std@@V?$allocator@D@2@@std@@V?$shared_ptr@VRawImageData@@@2@@std@@@?$_Tree_temp_node@V?$allocator@U?$_Tree_node@U?$pair@$$CBV?$basic_string@DU?$char_traits@D@std@@V?$allocator@D@2@@std@@V?$shared_ptr@VRawImageData@@@2@@std@@PAX@std@@@std@@@std@@QAE@AAV?$allocator@U?$_Tree_node@U?$pair@$$CBV?$basic_string@DU?$char_traits@D@std@@V?$allocator@D@2@@std@@V?$shared_ptr@VRawImageData@@@2@@std@@PAX@std@@@1@PAU?$_Tree_node@U?$pair@$$CBV?$basic_string@DU?$char_traits@D@std@@V?$allocator@D@2@@std@@V?$shared_ptr@VRawImageData@@@2@@std@@PAX@1@$$QAU?$pair@V?$basic_string@DU?$char_traits@D@std@@V?$allocator@D@2@@std@@V?$shared_ptr@VRawImageData@@@2@@1@@Z$0 00400000 f   BouncingBallMain.obj
 0001:fffff000       __unwindfunclet$??$?0U?$pair@V?$basic_string@DU?$char_traits@D@std@@V?$allocator@D@2@@std@@V?$weak_ptr@VRawImageData@@@2@@std@@@?$_Tree_temp_node@V?$allocator@U?$_Tree_node@U?$pair@$$CBV?$basic_string@DU?$char_traits@D@std@@V?$allocator@D@2@@std@@V?$weak_ptr@VRawImageData@@@2@@std@@PAX@std@@@std@@@std@@QAE@AAV?$allocator@U?$_Tree_node@U?$pair@$$CBV?$basic_string@DU?$char_traits@D@std@@V?$allocator@D@2@@std@@V?$weak_ptr@VRawImageData@@@2@@std@@PAX@std@@@1@PAU?$_Tree_node@U?$pair@$$CBV?$basic_string@DU?$char_traits@D@std@@V?$allocator@D@2@@std@@V?$weak_ptr@VRawImageData@@@2@@std@@PAX@1@$$QAU?$pair@V?$basic_string@DU?$char_traits@D@std@@V?$allocator@D@2@@std@@V?$weak_ptr@VRawImageData@@@2@@1@@Z$0 00400000 f   BouncingBallMain.obj
 0001:fffff000       __unwindfunclet$??$?0VRawImageData@@$0A@@?$shared_ptr@VRawImageData@@@std@@QAE@PAVRawImageData@@@Z$0 00400000 f   BouncingBallMain.obj
 0001:fffff000       __unwindfunclet$??$?6U?$char_traits@D@std@@@std@@YAAAV?$basic_ostream@DU?$char_traits@D@std@@@0@AAV10@PBD@Z$2 00400000 f   BouncingBallMain.obj
 0001:fffff000       __unwindfunclet$??$_Insert_string@DU?$char_traits@D@std@@I@std@@YAAAV?$basic_ostream@DU?$char_traits@D@std@@@0@AAV10@QBDI@Z$2 00400000 f   BouncingBallMain.obj
 0001:fffff000       __unwindfunclet$??0?$_Tree_temp_node_alloc@V?$allocator@U?$_Tree_node@U?$pair@$$CBV?$basic_string@DU?$char_traits@D@std@@V?$allocator@D@2@@std@@V?$shared_ptr@VRawImageData@@@2@@std@@PAX@std@@@std@@@std@@QAE@AAV?$allocator@U?$_Tree_node@U?$pair@$$CBV?$basic_string@DU?$char_traits@D@std@@V?$allocator@D@2@@std@@V?$shared_ptr@VRawImageData@@@2@@std@@PAX@std@@@1@@Z$0 00400000 f   BouncingBallMain.obj
 0001:fffff000       __unwindfunclet$??0?$_Tree_temp_node_alloc@V?$allocator@U?$_Tree_node@U?$pair@$$CBV?$basic_string@DU?$char_traits@D@std@@V?$allocator@D@2@@std@@V?$weak_ptr@VRawImageData@@@2@@std@@PAX@std@@@std@@@std@@QAE@AAV?$allocator@U?$_Tree_node@U?$pair@$$CBV?$basic_string@DU?$char_traits@D@std@@V?$allocator@D@2@@std@@V?$weak_ptr@VRawImageData@@@2@@std@@PAX@std@@@1@@Z$0 00400000 f   BouncingBallMain.obj
 0001:fffff000       __unwindfunclet$??0?$basic_string@DU?$char_traits@D@std@@V?$allocator@D@2@@std@@QAE@ABV01@@Z$0 00400000 f   BouncingBallMain.obj
 0001:fffff000       __unwindfunclet$??0?$basic_string@DU?$char_traits@D@std@@V?$allocator@D@2@@std@@QAE@QBD@Z$0 00400000 f   BouncingBallMain.obj
 0001:fffff000       __unwindfunclet$??0ImageManager@@QAE@XZ$0 00400000 f   BouncingBallMain.obj
 0001:fffff000       __unwindfunclet$??0RawImageData@@QAE@V?$basic_string@DU?$char_traits@D@std@@V?$allocator@D@2@@std@@@Z$0 00400000 f   BouncingBallMain.obj
 0001:fffff000       __unwindfunclet$??0sentry@?$basic_ostream@DU?$char_traits@D@std@@@std@@QAE@AAV12@@Z$0 00400000 f   BouncingBallMain.obj
 0001:fffff000       __unwindfunclet$?_Alloc_sentinel_and_proxy@?$_Tree@V?$_Tmap_traits@V?$basic_string@DU?$char_traits@D@std@@V?$allocator@D@2@@std@@V?$shared_ptr@VRawImageData@@@2@U?$less@V?$basic_string@DU?$char_traits@D@std@@V?$allocator@D@2@@std@@@2@V?$allocator@U?$pair@$$CBV?$basic_string@DU?$char_traits@D@std@@V?$allocator@D@2@@std@@V?$shared_ptr@VRawImageData@@@2@@std@@@2@$0A@@std@@@std@@IAEXXZ$0 00400000 f   BouncingBallMain.obj
 0001:fffff000       __unwindfunclet$?_Alloc_sentinel_and_proxy@?$_Tree@V?$_Tmap_traits@V?$basic_string@DU?$char_traits@D@std@@V?$allocator@D@2@@std@@V?$weak_ptr@VRawImageData@@@2@U?$less@V?$basic_string@DU?$char_traits@D@std@@V?$allocator@D@2@@std@@@2@V?$allocator@U?$pair@$$CBV?$basic_string@DU?$char_traits@D@std@@V?$allocator@D@2@@std@@V?$weak_ptr@VRawImageData@@@2@@std@@@2@$0A@@std@@@std@@IAEXXZ$0 00400000 f   BouncingBallMain.obj
 0001:fffff000       __unwindfunclet$?get@ImageManager@@SAPAV1@XZ$0 00400000 f   BouncingBallMain.obj
 0001:fffff000       __unwindfunclet$?getImagePtrbyURL@ImageManager@@QAE?AV?$shared_ptr@VRawImageData@@@std@@V?$basic_string@DU?$char_traits@D@std@@V?$allocator@D@2@@3@_N1@Z$0 00400000 f   BouncingBallMain.obj
 0001:fffff000       __unwindfunclet$?getImagebyURL@ImageManager@@QAE?AVSimpleImage@@V?$basic_string@DU?$char_traits@D@std@@V?$allocator@D@2@@std@@_N1@Z$0 00400000 f   BouncingBallMain.obj
 0001:fffff000       __unwindfunclet$?loadAsNew@ImageManager@@QAE?AV?$shared_ptr@VRawImageData@@@std@@V?$basic_string@DU?$char_traits@D@std@@V?$allocator@D@2@@3@@Z$0 00400000 f   BouncingBallMain.obj
 0001:fffff000       __unwindfunclet$?loadImage@RawImageData@@QAE_NV?$basic_string@DU?$char_traits@D@std@@V?$allocator@D@2@@std@@HHHHH_N@Z$0 00400000 f   BouncingBallMain.obj
 0002:fffa9000       __unwindtable$??$?0PAD$0A@@?$basic_string@DU?$char_traits@D@std@@V?$allocator@D@2@@std@@QAE@PAD0ABV?$allocator@D@1@@Z 00400000     BouncingBallMain.obj
 0002:fffa9000       __unwindtable$??$?0U?$pair@V?$basic_string@DU?$char_traits@D@std@@V?$allocator@D@2@@std@@V?$shared_ptr@VRawImageData@@@2@@std@@@?$_Tree_temp_node@V?$allocator@U?$_Tree_node@U?$pair@$$CBV?$basic_string@DU?$char_traits@D@std@@V?$allocator@D@2@@std@@V?$shared_ptr@VRawImageData@@@2@@std@@PAX@std@@@std@@@std@@QAE@AAV?$allocator@U?$_Tree_node@U?$pair@$$CBV?$basic_string@DU?$char_traits@D@std@@V?$allocator@D@2@@std@@V?$shared_ptr@VRawImageData@@@2@@std@@PAX@std@@@1@PAU?$_Tree_node@U?$pair@$$CBV?$basic_string@DU?$char_traits@D@std@@V?$allocator@D@2@@std@@V?$shared_ptr@VRawImageData@@@2@@std@@PAX@1@$$QAU?$pair@V?$basic_string@DU?$char_traits@D@std@@V?$allocator@D@2@@std@@V?$shared_ptr@VRawImageData@@@2@@1@@Z 00400000     BouncingBallMain.obj
 0002:fffa9000       __unwindtable$??$?0U?$pair@V?$basic_string@DU?$char_traits@D@std@@V?$allocator@D@2@@std@@V?$weak_ptr@VRawImageData@@@2@@std@@@?$_Tree_temp_node@V?$allocator@U?$_Tree_node@U?$pair@$$CBV?$basic_string@DU?$char_traits@D@std@@V?$allocator@D@2@@std@@V?$weak_ptr@VRawImageData@@@2@@std@@PAX@std@@@std@@@std@@QAE@AAV?$allocator@U?$_Tree_node@U?$pair@$$CBV?$basic_string@DU?$char_traits@D@std@@V?$allocator@D@2@@std@@V?$weak_ptr@VRawImageData@@@2@@std@@PAX@std@@@1@PAU?$_Tree_node@U?$pair@$$CBV?$basic_string@DU?$char_traits@D@std@@V?$allocator@D@2@@std@@V?$weak_ptr@VRawImageData@@@2@@std@@PAX@1@$$QAU?$pair@V?$basic_string@DU?$char_traits@D@std@@V?$allocator@D@2@@std@@V?$weak_ptr@VRawImageData@@@2@@1@@Z 00400000     BouncingBallMain.obj
 0002:fffa9000       __unwindtable$??$?0VRawImageData@@$0A@@?$shared_ptr@VRawImageData@@@std@@QAE@PAVRawImageData@@@Z 00400000     BouncingBallMain.obj
 0002:fffa9000       __unwindtable$??0?$_Tree_temp_node_alloc@V?$allocator@U?$_Tree_node@U?$pair@$$CBV?$basic_string@DU?$char_traits@D@std@@V?$allocator@D@2@@std@@V?$shared_ptr@VRawImageData@@@2@@std@@PAX@std@@@std@@@std@@QAE@AAV?$allocator@U?$_Tree_node@U?$pair@$$CBV?$basic_string@DU?$char_traits@D@std@@V?$allocator@D@2@@std@@V?$shared_ptr@VRawImageData@@@2@@std@@PAX@std@@@1@@Z 00400000     BouncingBallMain.obj
 0002:fffa9000       __unwindtable$??0?$_Tree_temp_node_alloc@V?$allocator@U?$_Tree_node@U?$pair@$$CBV?$basic_string@DU?$char_traits@D@std@@V?$allocator@D@2@@std@@V?$weak_ptr@VRawImageData@@@2@@std@@PAX@std@@@std@@@std@@QAE@AAV?$allocator@U?$_Tree_node@U?$pair@$$CBV?$basic_string@DU?$char_traits@D@std@@V?$allocator@D@2@@std@@V?$weak_ptr@VRawImageData@@@2@@std@@PAX@std@@@1@@Z 00400000     BouncingBallMain.obj
 0002:fffa9000       __unwindtable$??0?$basic_string@DU?$char_traits@D@std@@V?$allocator@D@2@@std@@QAE@ABV01@@Z 00400000     BouncingBallMain.obj
 0002:fffa9000       __unwindtable$??0?$basic_string@DU?$char_traits@D@std@@V?$allocator@D@2@@std@@QAE@QBD@Z 00400000     BouncingBallMain.obj
 0002:fffa9000       __unwindtable$??0ImageManager@@QAE@XZ 00400000     BouncingBallMain.obj
 0002:fffa9000       __unwindtable$??0RawImageData@@QAE@V?$basic_string@DU?$char_traits@D@std@@V?$allocator@D@2@@std@@@Z 00400000     BouncingBallMain.obj
 0002:fffa9000       __unwindtable$??0sentry@?$basic_ostream@DU?$char_traits@D@std@@@std@@QAE@AAV12@@Z 00400000     BouncingBallMain.obj
 0002:fffa9000       __unwindtable$?_Alloc_sentinel_and_proxy@?$_Tree@V?$_Tmap_traits@V?$basic_string@DU?$char_traits@D@std@@V?$allocator@D@2@@std@@V?$shared_ptr@VRawImageData@@@2@U?$less@V?$basic_string@DU?$char_traits@D@std@@V?$allocator@D@2@@std@@@2@V?$allocator@U?$pair@$$CBV?$basic_string@DU?$char_traits@D@std@@V?$allocator@D@2@@std@@V?$shared_ptr@VRawImageData@@@2@@std@@@2@$0A@@std@@@std@@IAEXXZ 00400000     BouncingBallMain.obj
 0002:fffa9000       __unwindtable$?_Alloc_sentinel_and_proxy@?$_Tree@V?$_Tmap_traits@V?$basic_string@DU?$char_traits@D@std@@V?$allocator@D@2@@std@@V?$weak_ptr@VRawImageData@@@2@U?$less@V?$basic_string@DU?$char_traits@D@std@@V?$allocator@D@2@@std@@@2@V?$allocator@U?$pair@$$CBV?$basic_string@DU?$char_traits@D@std@@V?$allocator@D@2@@std@@V?$weak_ptr@VRawImageData@@@2@@std@@@2@$0A@@std@@@std@@IAEXXZ 00400000     BouncingBallMain.obj
 0002:fffa9000       __unwindtable$?get@ImageManager@@SAPAV1@XZ 00400000     BouncingBallMain.obj
 0002:fffa9000       __unwindtable$?getImagebyURL@ImageManager@@QAE?AVSimpleImage@@V?$basic_string@DU?$char_traits@D@std@@V?$allocator@D@2@@std@@_N1@Z 00400000     BouncingBallMain.obj
 0002:fffa9000       __unwindtable$?loadAsNew@ImageManager@@QAE?AV?$shared_ptr@VRawImageData@@@std@@V?$basic_string@DU?$char_traits@D@std@@V?$allocator@D@2@@3@@Z 00400000     BouncingBallMain.obj
 0002:fffa9000       __unwindtable$?loadImage@RawImageData@@QAE_NV?$basic_string@DU?$char_traits@D@std@@V?$allocator@D@2@@std@@HHHHH_N@Z 00400000     BouncingBallMain.obj
 0002:fffa9000       __catchsym$??$?6U?$char_traits@D@std@@@std@@YAAAV?$basic_ostream@DU?$char_traits@D@std@@@0@AAV10@PBD@Z$3 00400000     DisplayableObject.obj
 0002:fffa9000       __ehfuncinfo$??1_Sentry_base@?$basic_ostream@DU?$char_traits@D@std@@@std@@QAE@XZ 00400000     DisplayableObject.obj
 0002:fffa9000       __ehfuncinfo$??1sentry@?$basic_ostream@DU?$char_traits@D@std@@@std@@QAE@XZ 00400000     DisplayableObject.obj
 0001:fffff000       __ehhandler$??1_Sentry_base@?$basic_ostream@DU?$char_traits@D@std@@@std@@QAE@XZ 00400000 f   DisplayableObject.obj
 0001:fffff000       __ehhandler$??1sentry@?$basic_ostream@DU?$char_traits@D@std@@@std@@QAE@XZ 00400000 f   DisplayableObject.obj
 0001:fffff000       __unwindfunclet$??$?6U?$char_traits@D@std@@@std@@YAAAV?$basic_ostream@DU?$char_traits@D@std@@@0@AAV10@PBD@Z$2 00400000 f   DisplayableObject.obj
 0001:fffff000       __unwindfunclet$??0sentry@?$basic_ostream@DU?$char_traits@D@std@@@std@@QAE@AAV12@@Z$0 00400000 f   DisplayableObject.obj
 0002:fffa9000       __unwindtable$??0sentry@?$basic_ostream@DU?$char_traits@D@std@@@std@@QAE@AAV12@@Z 00400000     DisplayableObject.obj
 0002:fffa9000       __catchsym$??$?6U?$char_traits@D@std@@@std@@YAAAV?$basic_ostream@DU?$char_traits@D@std@@@0@AAV10@PBD@Z$3 00400000     DraggingDemo.obj
 0002:fffa9000       __catchsym$??$_Insert_string@DU?$char_traits@D@std@@I@std@@YAAAV?$basic_ostream@DU?$char_traits@D@std@@@0@AAV10@QBDI@Z$3 00400000     DraggingDemo.obj
 0002:fffa9000       __ehfuncinfo$??$_Deallocate@$07$0A@@std@@YAXPAXI@Z 00400000     DraggingDemo.obj
 0002:fffa9000       __ehfuncinfo$??$_Deallocate_plain@V?$allocator@U_Container_proxy@std@@@std@@@std@@YAXAAV?$allocator@U_Container_proxy@std@@@0@QAU_Container_proxy@0@@Z 00400000     DraggingDemo.obj
 0002:fffa9000       __ehfuncinfo$??$_Freenode0@V?$allocator@U?$_Tree_node@U?$pair@$$CBV?$basic_string@DU?$char_traits@D@std@@V?$allocator@D@2@@std@@V?$shared_ptr@VRawImageData@@@2@@std@@PAX@std@@@std@@@?$_Tree_node@U?$pair@$$CBV?$basic_string@DU?$char_traits@D@std@@V?$allocator@D@2@@std@@V?$shared_ptr@VRawImageData@@@2@@std@@PAX@std@@SAXAAV?$allocator@U?$_Tree_node@U?$pair@$$CBV?$basic_string@DU?$char_traits@D@std@@V?$allocator@D@2@@std@@V?$shared_ptr@VRawImageData@@@2@@std@@PAX@std@@@1@PAU01@@Z 00400000     DraggingDemo.obj
 0002:fffa9000       __ehfuncinfo$??$_Freenode0@V?$allocator@U?$_Tree_node@U?$pair@$$CBV?$basic_string@DU?$char_traits@D@std@@V?$allocator@D@2@@std@@V?$weak_ptr@VRawImageData@@@2@@std@@PAX@std@@@std@@@?$_Tree_node@U?$pair@$$CBV?$basic_string@DU?$char_traits@D@std@@V?$allocator@D@2@@std@@V?$weak_ptr@VRawImageData@@@2@@std@@PAX@std@@SAXAAV?$allocator@U?$_Tree_node@U?$pair@$$CBV?$basic_string@DU?$char_traits@D@std@@V?$allocator@D@2@@std@@V?$weak_ptr@VRawImageData@@@2@@std@@PAX@std@@@1@PAU01@@Z 00400000     DraggingDemo.obj
 0002:fffa9000       __ehfuncinfo$??$_Freenode@V?$allocator@U?$_Tree_node@U?$pair@$$CBV?$basic_string@DU?$char_traits@D@std@@V?$allocator@D@2@@std@@V?$shared_ptr@VRawImageData@@@2@@std@@PAX@std@@@std@@@?$_Tree_node@U?$pair@$$CBV?$basic_string@DU?$char_traits@D@std@@V?$allocator@D@2@@std@@V?$shared_ptr@VRawImageData@@@2@@std@@PAX@std@@SAXAAV?$allocator@U?$_Tree_node@U?$pair@$$CBV?$basic_string@DU?$char_traits@D@std@@V?$allocator@D@2@@std@@V?$shared_ptr@VRawImageData@@@2@@std@@PAX@std@@@1@PAU01@@Z 00400000     DraggingDemo.obj
 0002:fffa9000       __ehfuncinfo$??$_Freenode@V?$allocator@U?$_Tree_node@U?$pair@$$CBV?$basic_string@DU?$char_traits@D@std@@V?$allocator@D@2@@std@@V?$weak_ptr@VRawImageData@@@2@@std@@PAX@std@@@std@@@?$_Tree_node@U?$pair@$$CBV?$basic_string@DU?$char_traits@D@std@@V?$allocator@D@2@@std@@V?$weak_ptr@VRawImageData@@@2@@std@@PAX@std@@SAXAAV?$allocator@U?$_Tree_node@U?$pair@$$CBV?$basic_string@DU?$char_traits@D@std@@V?$allocator@D@2@@std@@V?$weak_ptr@VRawImageData@@@2@@std@@PAX@std@@@1@PAU01@@Z 00400000     DraggingDemo.obj
 0002:fffa9000       __ehfuncinfo$??$erase@V?$_Tree_iterator@V?$_Tree_val@U?$_Tree_simple_types@U?$pair@$$CBV?$basic_string@DU?$char_traits@D@std@@V?$allocator@D@2@@std@@V?$weak_ptr@VRawImageData@@@2@@std@@@std@@@std@@@std@@$0A@@?$_Tree@V?$_Tmap_traits@V?$basic_string@DU?$char_traits@D@std@@V?$allocator@D@2@@std@@V?$weak_ptr@VRawImageData@@@2@U?$less@V?$basic_string@DU?$char_traits@D@std@@V?$allocator@D@2@@std@@@2@V?$allocator@U?$pair@$$CBV?$basic_string@DU?$char_traits@D@std@@V?$allocator@D@2@@std@@V?$weak_ptr@VRawImageData@@@2@@std@@@2@$0A@@std@@@std@@QAE?AV?$_Tree_iterator@V?$_Tree_val@U?$_Tree_simple_types@U?$pair@$$CBV?$basic_string@DU?$char_traits@D@std@@V?$allocator@D@2@@std@@V?$weak_ptr@VRawImageData@@@2@@std@@@std@@@std@@@1@V21@@Z 00400000     DraggingDemo.obj
 0002:fffa9000       __ehfuncinfo$??0?$basic_string@DU?$char_traits@D@std@@V?$allocator@D@2@@std@@QAE@$$QAV01@@Z 00400000     DraggingDemo.obj
 0002:fffa9000       __ehfuncinfo$??1?$_Alloc_construct_ptr@V?$allocator@U?$_Tree_node@U?$pair@$$CBV?$basic_string@DU?$char_traits@D@std@@V?$allocator@D@2@@std@@V?$shared_ptr@VRawImageData@@@2@@std@@PAX@std@@@std@@@std@@QAE@XZ 00400000     DraggingDemo.obj
 0002:fffa9000       __ehfuncinfo$??1?$_Alloc_construct_ptr@V?$allocator@U?$_Tree_node@U?$pair@$$CBV?$basic_string@DU?$char_traits@D@std@@V?$allocator@D@2@@std@@V?$weak_ptr@VRawImageData@@@2@@std@@PAX@std@@@std@@@std@@QAE@XZ 00400000     DraggingDemo.obj
 0002:fffa9000       __ehfuncinfo$??1?$_Tree_temp_node@V?$allocator@U?$_Tree_node@U?$pair@$$CBV?$basic_string@DU?$char_traits@D@std@@V?$allocator@D@2@@std@@V?$shared_ptr@VRawImageData@@@2@@std@@PAX@std@@@std@@@std@@QAE@XZ 00400000     DraggingDemo.obj
 0002:fffa9000       __ehfuncinfo$??1?$_Tree_temp_node@V?$allocator@U?$_Tree_node@U?$pair@$$CBV?$basic_string@DU?$char_traits@D@std@@V?$allocator@D@2@@std@@V?$weak_ptr@VRawImageData@@@2@@std@@PAX@std@@@std@@@std@@QAE@XZ 00400000     DraggingDemo.obj
 0002:fffa9000       __ehfuncinfo$??1RawImageData@@QAE@XZ 00400000     DraggingDemo.obj
 0002:fffa9000       __ehfuncinfo$??1_Sentry_base@?$basic_ostream@DU?$char_traits@D@std@@@std@@QAE@XZ 00400000     DraggingDemo.obj
 0002:fffa9000       __ehfuncinfo$??1sentry@?$basic_ostream@DU?$char_traits@D@std@@@std@@QAE@XZ 00400000     DraggingDemo.obj
 0002:fffa9000       __ehfuncinfo$?_Erase_unchecked@?$_Tree@V?$_Tmap_traits@V?$basic_string@DU?$char_traits@D@std@@V?$allocator@D@2@@std@@V?$weak_ptr@VRawImageData@@@2@U?$less@V?$basic_string@DU?$char_traits@D@std@@V?$allocator@D@2@@std@@@2@V?$allocator@U?$pair@$$CBV?$basic_string@DU?$char_traits@D@std@@V?$allocator@D@2@@std@@V?$weak_ptr@VRawImageData@@@2@@std@@@2@$0A@@std@@@std@@AAEPAU?$_Tree_node@U?$pair@$$CBV?$basic_string@DU?$char_traits@D@std@@V?$allocator@D@2@@std@@V?$weak_ptr@VRawImageData@@@2@@std@@PAX@2@V?$_Tree_unchecked_const_iterator@V?$_Tree_val@U?$_Tree_simple_types@U?$pair@$$CBV?$basic_string@DU?$char_traits@D@std@@V?$allocator@D@2@@std@@V?$weak_ptr@VRawImageData@@@2@@std@@@std@@@std@@U_Iterator_base0@2@@2@@Z 00400000     DraggingDemo.obj
 0002:fffa9000       __ehfuncinfo$?_Extract@?$_Tree_val@U?$_Tree_simple_types@U?$pair@$$CBV?$basic_string@DU?$char_traits@D@std@@V?$allocator@D@2@@std@@V?$weak_ptr@VRawImageData@@@2@@std@@@std@@@std@@QAEPAU?$_Tree_node@U?$pair@$$CBV?$basic_string@DU?$char_traits@D@std@@V?$allocator@D@2@@std@@V?$weak_ptr@VRawImageData@@@2@@std@@PAX@2@V?$_Tree_unchecked_const_iterator@V?$_Tree_val@U?$_Tree_simple_types@U?$pair@$$CBV?$basic_string@DU?$char_traits@D@std@@V?$allocator@D@2@@std@@V?$weak_ptr@VRawImageData@@@2@@std@@@std@@@std@@U_Iterator_base0@2@@2@@Z 00400000     DraggingDemo.obj
 0002:fffa9000       __ehfuncinfo$?_Take_contents@?$basic_string@DU?$char_traits@D@std@@V?$allocator@D@2@@std@@AAEXAAV12@U?$integral_constant@_N$00@2@@Z 00400000     DraggingDemo.obj
 0002:fffa9000       __ehfuncinfo$?_Tidy_deallocate@?$basic_string@DU?$char_traits@D@std@@V?$allocator@D@2@@std@@AAEXXZ 00400000     DraggingDemo.obj
 0002:fffa9000       __ehfuncinfo$?c_str@?$basic_string@DU?$char_traits@D@std@@V?$allocator@D@2@@std@@QBEPBDXZ 00400000     DraggingDemo.obj
 0002:fffa9000       __ehfuncinfo$?compare@?$basic_string@DU?$char_traits@D@std@@V?$allocator@D@2@@std@@QBEHABV12@@Z 00400000     DraggingDemo.obj
 0002:fffa9000       __ehfuncinfo$?data@?$basic_string@DU?$char_traits@D@std@@V?$allocator@D@2@@std@@QBEPBDXZ 00400000     DraggingDemo.obj
 0002:fffa9000       __ehfuncinfo$?getImagePtrbyURL@ImageManager@@QAE?AV?$shared_ptr@VRawImageData@@@std@@V?$basic_string@DU?$char_traits@D@std@@V?$allocator@D@2@@3@_N1@Z 00400000     DraggingDemo.obj
 0001:fffff000       __ehhandler$??$_Deallocate@$07$0A@@std@@YAXPAXI@Z 00400000 f   DraggingDemo.obj
 0001:fffff000       __ehhandler$??$_Deallocate_plain@V?$allocator@U_Container_proxy@std@@@std@@@std@@YAXAAV?$allocator@U_Container_proxy@std@@@0@QAU_Container_proxy@0@@Z 00400000 f   DraggingDemo.obj
 0001:fffff000       __ehhandler$??$_Freenode0@V?$allocator@U?$_Tree_node@U?$pair@$$CBV?$basic_string@DU?$char_traits@D@std@@V?$allocator@D@2@@std@@V?$shared_ptr@VRawImageData@@@2@@std@@PAX@std@@@std@@@?$_Tree_node@U?$pair@$$CBV?$basic_string@DU?$char_traits@D@std@@V?$allocator@D@2@@std@@V?$shared_ptr@VRawImageData@@@2@@std@@PAX@std@@SAXAAV?$allocator@U?$_Tree_node@U?$pair@$$CBV?$basic_string@DU?$char_traits@D@std@@V?$allocator@D@2@@std@@V?$shared_ptr@VRawImageData@@@2@@std@@PAX@std@@@1@PAU01@@Z 00400000 f   DraggingDemo.obj
 0001:fffff000       __ehhandler$??$_Freenode0@V?$allocator@U?$_Tree_node@U?$pair@$$CBV?$basic_string@DU?$char_traits@D@std@@V?$allocator@D@2@@std@@V?$weak_ptr@VRawImageData@@@2@@std@@PAX@std@@@std@@@?$_Tree_node@U?$pair@$$CBV?$basic_string@DU?$char_traits@D@std@@V?$allocator@D@2@@std@@V?$weak_ptr@VRawImageData@@@2@@std@@PAX@std@@SAXAAV?$allocator@U?$_Tree_node@U?$pair@$$CBV?$basic_string@DU?$char_traits@D@std@@V?$allocator@D@2@@std@@V?$weak_ptr@VRawImageData@@@2@@std@@PAX@std@@@1@PAU01@@Z 00400000 f   DraggingDemo.obj
 0001:fffff000       __ehhandler$??$_Freenode@V?$allocator@U?$_Tree_node@U?$pair@$$CBV?$basic_string@DU?$char_traits@D@std@@V?$allocator@D@2@@std@@V?$shared_ptr@VRawImageData@@@2@@std@@PAX@std@@@std@@@?$_Tree_node@U?$pair@$$CBV?$basic_string@DU?$char_traits@D@std@@V?$allocator@D@2@@std@@V?$shared_ptr@VRawImageData@@@2@@std@@PAX@std@@SAXAAV?$allocator@U?$_Tree_node@U?$pair@$$CBV?$basic_string@DU?$char_traits@D@std@@V?$allocator@D@2@@std@@V?$shared_ptr@VRawImageData@@@2@@std@@PAX@std@@@1@PAU01@@Z 00400000 f   DraggingDemo.obj
 0001:fffff000       __ehhandler$??$_Freenode@V?$allocator@U?$_Tree_node@U?$pair@$$CBV?$basic_string@DU?$char_traits@D@std@@V?$allocator@D@2@@std@@V?$weak_ptr@VRawImageData@@@2@@std@@PAX@std@@@std@@@?$_Tree_node@U?$pair@$$CBV?$basic_string@DU?$char_traits@D@std@@V?$allocator@D@2@@std@@V?$weak_ptr@VRawImageData@@@2@@std@@PAX@std@@SAXAAV?$allocator@U?$_Tree_node@U?$pair@$$CBV?$basic_string@DU?$char_traits@D@std@@V?$allocator@D@2@@std@@V?$weak_ptr@VRawImageData@@@2@@std@@PAX@std@@@1@PAU01@@Z 00400000 f   DraggingDemo.obj
 0001:fffff000       __ehhandler$??$erase@V?$_Tree_iterator@V?$_Tree_val@U?$_Tree_simple_types@U?$pair@$$CBV?$basic_string@DU?$char_traits@D@std@@V?$allocator@D@2@@std@@V?$weak_ptr@VRawImageData@@@2@@std@@@std@@@std@@@std@@$0A@@?$_Tree@V?$_Tmap_traits@V?$basic_string@DU?$char_traits@D@std@@V?$allocator@D@2@@std@@V?$weak_ptr@VRawImageData@@@2@U?$less@V?$basic_string@DU?$char_traits@D@std@@V?$allocator@D@2@@std@@@2@V?$allocator@U?$pair@$$CBV?$basic_string@DU?$char_traits@D@std@@V?$allocator@D@2@@std@@V?$weak_ptr@VRawImageData@@@2@@std@@@2@$0A@@std@@@std@@QAE?AV?$_Tree_iterator@V?$_Tree_val@U?$_Tree_simple_types@U?$pair@$$CBV?$basic_string@DU?$char_traits@D@std@@V?$allocator@D@2@@std@@V?$weak_ptr@VRawImageData@@@2@@std@@@std@@@std@@@1@V21@@Z 00400000 f   DraggingDemo.obj
 0001:fffff000       __ehhandler$??0?$basic_string@DU?$char_traits@D@std@@V?$allocator@D@2@@std@@QAE@$$QAV01@@Z 00400000 f   DraggingDemo.obj
 0001:fffff000       __ehhandler$??1?$_Alloc_construct_ptr@V?$allocator@U?$_Tree_node@U?$pair@$$CBV?$basic_string@DU?$char_traits@D@std@@V?$allocator@D@2@@std@@V?$shared_ptr@VRawImageData@@@2@@std@@PAX@std@@@std@@@std@@QAE@XZ 00400000 f   DraggingDemo.obj
 0001:fffff000       __ehhandler$??1?$_Alloc_construct_ptr@V?$allocator@U?$_Tree_node@U?$pair@$$CBV?$basic_string@DU?$char_traits@D@std@@V?$allocator@D@2@@std@@V?$weak_ptr@VRawImageData@@@2@@std@@PAX@std@@@std@@@std@@QAE@XZ 00400000 f   DraggingDemo.obj
